

HI-TECH Software PIC LITE Macro Assembler V9.80 build 6738 
                                                                                               Wed Jun 20 23:16:01 2012

HI-TECH Software Omniscient Code Generator (Lite mode) build 6738
     1  0000                     opt subtitle "HI-TECH Software Omniscient Code Generator (Lite mode) build 6738"
     2                           
     3                           opt pagewidth 120
     4                           
     5                           	opt lm
     6                           
     7                           	processor	16F727
     8                           clrc	macro
     9                           	bcf	3,0
    10  0000                     	endm
    11                           clrz	macro
    12                           	bcf	3,2
    13  0000                     	endm
    14                           setc	macro
    15                           	bsf	3,0
    16  0000                     	endm
    17                           setz	macro
    18                           	bsf	3,2
    19  0000                     	endm
    20                           skipc	macro
    21                           	btfss	3,0
    22  0000                     	endm
    23                           skipz	macro
    24                           	btfss	3,2
    25  0000                     	endm
    26                           skipnc	macro
    27                           	btfsc	3,0
    28  0000                     	endm
    29                           skipnz	macro
    30                           	btfsc	3,2
    31  0000                     	endm
    32  0000                     indf	equ	0
    33  0000                     indf0	equ	0
    34  0002                     pc	equ	2
    35  0002                     pcl	equ	2
    36  0003                     status	equ	3
    37  0004                     fsr	equ	4
    38  0004                     fsr0	equ	4
    39  0001                     c	equ	1
    40  0000                     z	equ	0
    41  000A                     pclath	equ	10
    42                           # 12 "C:\Users\Phang\Desktop\9.80\PR 28\PR28.c"
    43                           	psect config,class=CONFIG,delta=2 ;#
    44                           # 12 "C:\Users\Phang\Desktop\9.80\PR 28\PR28.c"
    45  2007  3CE4               	dw 0x3CE4 ;#
    46                           	FNCALL	_main,_Init
    47                           	FNCALL	_main,_send_config
    48                           	FNCALL	_main,_lcd_clr
    49                           	FNCALL	_main,_lcd_goto
    50                           	FNCALL	_main,_send_string
    51                           	FNCALL	_main,_delay
    52                           	FNCALL	_main,_lcd_shift
    53                           	FNCALL	_main,_PIEZO_S
    54                           	FNCALL	_main,_checkflag
    55                           	FNCALL	_main,_winlose
    56                           	FNCALL	_main,_PIEZO
    57                           	FNCALL	_main,_PIEZO_D
    58                           	FNCALL	_main,_draw
    59                           	FNCALL	_checkflag,_player_1
    60                           	FNCALL	_checkflag,_player_2
    61                           	FNCALL	_player_2,_checkstatus
    62                           	FNCALL	_player_1,_checkstatus
    63                           	FNCALL	_lcd_shift,_send_config
    64                           	FNCALL	_lcd_shift,_delay
    65                           	FNCALL	_send_string,_send_char
    66                           	FNCALL	_lcd_goto,_send_config
    67                           	FNCALL	_lcd_clr,_send_config
    68                           	FNCALL	_lcd_clr,_delay
    69                           	FNCALL	_send_char,_delay
    70                           	FNCALL	_send_char,_e_pulse
    71                           	FNCALL	_checkstatus,_store
    72                           	FNCALL	_checkstatus,_DisplayLEDs
    73                           	FNCALL	_draw,_led_display1
    74                           	FNCALL	_draw,_led_display2
    75                           	FNCALL	_draw,_led_display3
    76                           	FNCALL	_draw,_delay
    77                           	FNCALL	_draw,_led_off
    78                           	FNCALL	_send_config,_delay
    79                           	FNCALL	_send_config,_e_pulse
    80                           	FNCALL	_Init,_led_off
    81                           	FNCALL	_Init,_CapInit
    82                           	FNCALL	_Init,_winlose
    83                           	FNCALL	_e_pulse,_delay
    84                           	FNCALL	_DisplayLEDs,_led_display1
    85                           	FNCALL	_DisplayLEDs,_led_display2
    86                           	FNCALL	_DisplayLEDs,_led_display3
    87                           	FNCALL	_CapInit,___bmul
    88                           	FNCALL	_led_off,_led_display1
    89                           	FNCALL	_led_off,_led_display2
    90                           	FNCALL	_led_off,_led_display3
    91                           	FNCALL	_PIEZO_D,_delay
    92                           	FNCALL	_PIEZO_D,_RestartTimer1
    93                           	FNCALL	_PIEZO,_delay
    94                           	FNCALL	_PIEZO,_RestartTimer1
    95                           	FNCALL	_winlose,___bmul
    96                           	FNCALL	_PIEZO_S,_delay
    97                           	FNCALL	_PIEZO_S,_RestartTimer1
    98                           	FNROOT	_main
    99                           	FNCALL	_isr,_GetReading
   100                           	FNCALL	_GetReading,_SetNextChannel
   101                           	FNCALL	_GetReading,i1_RestartTimer1
   102                           	FNCALL	intlevel1,_isr
   103                           	global	intlevel1
   104                           	FNROOT	intlevel1
   105                           	global	_average
   106                           	global	_Buttons
   107                           	global	_matrix
   108                           	global	_result1
   109                           	global	_smallavg
   110                           	global	_threshold
   111                           	global	_threshold4
   112                           	global	_Flags
   113                           	global	_data
   114                           	global	_flag
   115                           	global	_index
   116                           	global	_result
   117                           	global	_bigval
   118                           	global	_reading
   119                           	global	_CCP1CON
   120                           psect	text692,local,class=CODE,delta=2
   121                           global __ptext692
   122  0000                     __ptext692:
   123  0017                     _CCP1CON	set	23
   124                           	global	_CCPR1L
   125  0015                     _CCPR1L	set	21
   126                           	global	_PORTB
   127  0006                     _PORTB	set	6
   128                           	global	_PORTE
   129  0009                     _PORTE	set	9
   130                           	global	_T1CON
   131  0010                     _T1CON	set	16
   132                           	global	_T2CON
   133  0012                     _T2CON	set	18
   134                           	global	_TMR1H
   135  000F                     _TMR1H	set	15
   136                           	global	_TMR1L
   137  000E                     _TMR1L	set	14
   138                           	global	_TMR2
   139  0011                     _TMR2	set	17
   140                           	global	_GIE
   141  005F                     _GIE	set	95
   142                           	global	_PEIE
   143  005E                     _PEIE	set	94
   144                           	global	_RA0
   145  0028                     _RA0	set	40
   146                           	global	_RA1
   147  0029                     _RA1	set	41
   148                           	global	_RA2
   149  002A                     _RA2	set	42
   150                           	global	_RA3
   151  002B                     _RA3	set	43
   152                           	global	_RA5
   153  002D                     _RA5	set	45
   154                           	global	_RA6
   155  002E                     _RA6	set	46
   156                           	global	_RA7
   157  002F                     _RA7	set	47
   158                           	global	_RC0
   159  0038                     _RC0	set	56
   160                           	global	_RC1
   161  0039                     _RC1	set	57
   162                           	global	_RC3
   163  003B                     _RC3	set	59
   164                           	global	_RC4
   165  003C                     _RC4	set	60
   166                           	global	_RC5
   167  003D                     _RC5	set	61
   168                           	global	_RC6
   169  003E                     _RC6	set	62
   170                           	global	_RC7
   171  003F                     _RC7	set	63
   172                           	global	_RE0
   173  0048                     _RE0	set	72
   174                           	global	_RE1
   175  0049                     _RE1	set	73
   176                           	global	_RE2
   177  004A                     _RE2	set	74
   178                           	global	_TMR1GIF
   179  0067                     _TMR1GIF	set	103
   180                           	global	_TMR1ON
   181  0080                     _TMR1ON	set	128
   182                           	global	_TMR2IF
   183  0061                     _TMR2IF	set	97
   184                           	global	_TMR2ON
   185  0092                     _TMR2ON	set	146
   186                           	global	_OSCCON
   187  0090                     _OSCCON	set	144
   188                           	global	_PR2
   189  0092                     _PR2	set	146
   190                           	global	_T1GCON
   191  008F                     _T1GCON	set	143
   192                           	global	_TRISA
   193  0085                     _TRISA	set	133
   194                           	global	_TRISB
   195  0086                     _TRISB	set	134
   196                           	global	_TRISC
   197  0087                     _TRISC	set	135
   198                           	global	_TRISD
   199  0088                     _TRISD	set	136
   200                           	global	_TRISE
   201  0089                     _TRISE	set	137
   202                           	global	_TMR1GIE
   203  0467                     _TMR1GIE	set	1127
   204                           	global	_TMR2IE
   205  0461                     _TMR2IE	set	1121
   206                           	global	_CPSCON0
   207  0108                     _CPSCON0	set	264
   208                           	global	_CPSCON1
   209  0109                     _CPSCON1	set	265
   210                           	global	_ANSELA
   211  0185                     _ANSELA	set	389
   212                           	global	_ANSELB
   213  0186                     _ANSELB	set	390
   214                           	global	_ANSELD
   215  0188                     _ANSELD	set	392
   216                           	global	_ANSELE
   217  0189                     _ANSELE	set	393
   218                           psect	strings,class=STRING,delta=2
   219                           global __pstrings
   220  0015                     __pstrings:
   221                           ;	global	stringdir,stringtab,__stringbase
   222  0015                     stringtab:
   223                           ;	String table - string pointers are 1 byte each
   224  0015                     stringcode:stringdir:
      + 0015                     stringdir:	
   225  0015  3000               movlw high(stringdir)
   226  0016  008A               movwf pclath
   227  0017  0804               movf fsr,w
   228  0018  0A84               incf fsr
   229  0019  0782               	addwf pc
   230  001A                     __stringbase:
   231  001A  3400               	retlw	0
   232                           psect	strings
   233                           	
   234  001B                     STR_2:	
   235  001B  3450               	retlw	80	;'P'
   236  001C  3452               	retlw	82	;'R'
   237  001D  3420               	retlw	32	;' '
   238  001E  3432               	retlw	50	;'2'
   239  001F  3438               	retlw	56	;'8'
   240  0020  3420               	retlw	32	;' '
   241  0021  342D               	retlw	45	;'-'
   242  0022  3420               	retlw	32	;' '
   243  0023  346D               	retlw	109	;'m'
   244  0024  3454               	retlw	84	;'T'
   245  0025  346F               	retlw	111	;'o'
   246  0026  3475               	retlw	117	;'u'
   247  0027  3463               	retlw	99	;'c'
   248  0028  3468               	retlw	104	;'h'
   249  0029  3420               	retlw	32	;' '
   250  002A  3477               	retlw	119	;'w'
   251  002B  3469               	retlw	105	;'i'
   252  002C  3474               	retlw	116	;'t'
   253  002D  3468               	retlw	104	;'h'
   254  002E  3420               	retlw	32	;' '
   255  002F  3454               	retlw	84	;'T'
   256  0030  3469               	retlw	105	;'i'
   257  0031  3463               	retlw	99	;'c'
   258  0032  3420               	retlw	32	;' '
   259  0033  3454               	retlw	84	;'T'
   260  0034  3461               	retlw	97	;'a'
   261  0035  3463               	retlw	99	;'c'
   262  0036  3420               	retlw	32	;' '
   263  0037  3454               	retlw	84	;'T'
   264  0038  346F               	retlw	111	;'o'
   265  0039  3465               	retlw	101	;'e'
   266  003A  3400               	retlw	0
   267                           psect	strings
   268                           	
   269  003B                     STR_1:	
   270  003B  3443               	retlw	67	;'C'
   271  003C  3479               	retlw	121	;'y'
   272  003D  3474               	retlw	116	;'t'
   273  003E  3472               	retlw	114	;'r'
   274  003F  346F               	retlw	111	;'o'
   275  0040  346E               	retlw	110	;'n'
   276  0041  3420               	retlw	32	;' '
   277  0042  3454               	retlw	84	;'T'
   278  0043  3465               	retlw	101	;'e'
   279  0044  3463               	retlw	99	;'c'
   280  0045  3468               	retlw	104	;'h'
   281  0046  346E               	retlw	110	;'n'
   282  0047  346F               	retlw	111	;'o'
   283  0048  346C               	retlw	108	;'l'
   284  0049  346F               	retlw	111	;'o'
   285  004A  3467               	retlw	103	;'g'
   286  004B  3469               	retlw	105	;'i'
   287  004C  3465               	retlw	101	;'e'
   288  004D  3473               	retlw	115	;'s'
   289  004E  3420               	retlw	32	;' '
   290  004F  3453               	retlw	83	;'S'
   291  0050  3464               	retlw	100	;'d'
   292  0051  346E               	retlw	110	;'n'
   293  0052  3420               	retlw	32	;' '
   294  0053  3442               	retlw	66	;'B'
   295  0054  3468               	retlw	104	;'h'
   296  0055  3464               	retlw	100	;'d'
   297  0056  3420               	retlw	32	;' '
   298  0057  3420               	retlw	32	;' '
   299  0058  3420               	retlw	32	;' '
   300  0059  3400               	retlw	0
   301                           psect	strings
   302                           	
   303  005A                     STR_9:	
   304  005A  3463               	retlw	99	;'c'
   305  005B  346F               	retlw	111	;'o'
   306  005C  346E               	retlw	110	;'n'
   307  005D  3467               	retlw	103	;'g'
   308  005E  3472               	retlw	114	;'r'
   309  005F  3461               	retlw	97	;'a'
   310  0060  3474               	retlw	116	;'t'
   311  0061  3475               	retlw	117	;'u'
   312  0062  346C               	retlw	108	;'l'
   313  0063  3461               	retlw	97	;'a'
   314  0064  3474               	retlw	116	;'t'
   315  0065  3469               	retlw	105	;'i'
   316  0066  346F               	retlw	111	;'o'
   317  0067  346E               	retlw	110	;'n'
   318  0068  3421               	retlw	33	;'!'
   319  0069  3420               	retlw	32	;' '
   320  006A  3400               	retlw	0
   321                           psect	strings
   322                           	
   323  006B                     STR_10:	
   324  006B  342A               	retlw	42	;'*'
   325  006C  342A               	retlw	42	;'*'
   326  006D  3470               	retlw	112	;'p'
   327  006E  346C               	retlw	108	;'l'
   328  006F  3461               	retlw	97	;'a'
   329  0070  3479               	retlw	121	;'y'
   330  0071  3465               	retlw	101	;'e'
   331  0072  3472               	retlw	114	;'r'
   332  0073  3431               	retlw	49	;'1'
   333  0074  3420               	retlw	32	;' '
   334  0075  3477               	retlw	119	;'w'
   335  0076  3469               	retlw	105	;'i'
   336  0077  346E               	retlw	110	;'n'
   337  0078  3473               	retlw	115	;'s'
   338  0079  342A               	retlw	42	;'*'
   339  007A  342A               	retlw	42	;'*'
   340  007B  3400               	retlw	0
   341                           psect	strings
   342                           	
   343  007C                     STR_12:	
   344  007C  342A               	retlw	42	;'*'
   345  007D  342A               	retlw	42	;'*'
   346  007E  3470               	retlw	112	;'p'
   347  007F  346C               	retlw	108	;'l'
   348  0080  3461               	retlw	97	;'a'
   349  0081  3479               	retlw	121	;'y'
   350  0082  3465               	retlw	101	;'e'
   351  0083  3472               	retlw	114	;'r'
   352  0084  3432               	retlw	50	;'2'
   353  0085  3420               	retlw	32	;' '
   354  0086  3477               	retlw	119	;'w'
   355  0087  3469               	retlw	105	;'i'
   356  0088  346E               	retlw	110	;'n'
   357  0089  3473               	retlw	115	;'s'
   358  008A  342A               	retlw	42	;'*'
   359  008B  342A               	retlw	42	;'*'
   360  008C  3400               	retlw	0
   361                           psect	strings
   362                           	
   363  008D                     STR_4:	
   364  008D  3450               	retlw	80	;'P'
   365  008E  346C               	retlw	108	;'l'
   366  008F  3461               	retlw	97	;'a'
   367  0090  3479               	retlw	121	;'y'
   368  0091  3465               	retlw	101	;'e'
   369  0092  3472               	retlw	114	;'r'
   370  0093  3420               	retlw	32	;' '
   371  0094  3432               	retlw	50	;'2'
   372  0095  3420               	retlw	32	;' '
   373  0096  343D               	retlw	61	;'='
   374  0097  3420               	retlw	32	;' '
   375  0098  3467               	retlw	103	;'g'
   376  0099  3472               	retlw	114	;'r'
   377  009A  3465               	retlw	101	;'e'
   378  009B  3465               	retlw	101	;'e'
   379  009C  346E               	retlw	110	;'n'
   380  009D  3400               	retlw	0
   381                           psect	strings
   382                           	
   383  009E                     STR_7:	
   384  009E  3450               	retlw	80	;'P'
   385  009F  346C               	retlw	108	;'l'
   386  00A0  3461               	retlw	97	;'a'
   387  00A1  3479               	retlw	121	;'y'
   388  00A2  3465               	retlw	101	;'e'
   389  00A3  3472               	retlw	114	;'r'
   390  00A4  3420               	retlw	32	;' '
   391  00A5  3431               	retlw	49	;'1'
   392  00A6  3427               	retlw	39	;'''
   393  00A7  3473               	retlw	115	;'s'
   394  00A8  3420               	retlw	32	;' '
   395  00A9  3474               	retlw	116	;'t'
   396  00AA  3475               	retlw	117	;'u'
   397  00AB  3472               	retlw	114	;'r'
   398  00AC  346E               	retlw	110	;'n'
   399  00AD  3400               	retlw	0
   400                           psect	strings
   401                           	
   402  00AE                     STR_8:	
   403  00AE  3450               	retlw	80	;'P'
   404  00AF  346C               	retlw	108	;'l'
   405  00B0  3461               	retlw	97	;'a'
   406  00B1  3479               	retlw	121	;'y'
   407  00B2  3465               	retlw	101	;'e'
   408  00B3  3472               	retlw	114	;'r'
   409  00B4  3420               	retlw	32	;' '
   410  00B5  3432               	retlw	50	;'2'
   411  00B6  3427               	retlw	39	;'''
   412  00B7  3473               	retlw	115	;'s'
   413  00B8  3420               	retlw	32	;' '
   414  00B9  3474               	retlw	116	;'t'
   415  00BA  3475               	retlw	117	;'u'
   416  00BB  3472               	retlw	114	;'r'
   417  00BC  346E               	retlw	110	;'n'
   418  00BD  3400               	retlw	0
   419                           psect	strings
   420                           	
   421  00BE                     STR_5:	
   422  00BE  3450               	retlw	80	;'P'
   423  00BF  346C               	retlw	108	;'l'
   424  00C0  3461               	retlw	97	;'a'
   425  00C1  3479               	retlw	121	;'y'
   426  00C2  3465               	retlw	101	;'e'
   427  00C3  3472               	retlw	114	;'r'
   428  00C4  3420               	retlw	32	;' '
   429  00C5  3431               	retlw	49	;'1'
   430  00C6  3420               	retlw	32	;' '
   431  00C7  3473               	retlw	115	;'s'
   432  00C8  3474               	retlw	116	;'t'
   433  00C9  3461               	retlw	97	;'a'
   434  00CA  3472               	retlw	114	;'r'
   435  00CB  3474               	retlw	116	;'t'
   436  00CC  3473               	retlw	115	;'s'
   437  00CD  3400               	retlw	0
   438                           psect	strings
   439                           	
   440  00CE                     STR_3:	
   441  00CE  3450               	retlw	80	;'P'
   442  00CF  346C               	retlw	108	;'l'
   443  00D0  3461               	retlw	97	;'a'
   444  00D1  3479               	retlw	121	;'y'
   445  00D2  3465               	retlw	101	;'e'
   446  00D3  3472               	retlw	114	;'r'
   447  00D4  3420               	retlw	32	;' '
   448  00D5  3431               	retlw	49	;'1'
   449  00D6  3420               	retlw	32	;' '
   450  00D7  343D               	retlw	61	;'='
   451  00D8  3420               	retlw	32	;' '
   452  00D9  3472               	retlw	114	;'r'
   453  00DA  3465               	retlw	101	;'e'
   454  00DB  3464               	retlw	100	;'d'
   455  00DC  3400               	retlw	0
   456                           psect	strings
   457                           	
   458  00DD                     STR_14:	
   459  00DD  342A               	retlw	42	;'*'
   460  00DE  342A               	retlw	42	;'*'
   461  00DF  342A               	retlw	42	;'*'
   462  00E0  3464               	retlw	100	;'d'
   463  00E1  3472               	retlw	114	;'r'
   464  00E2  3461               	retlw	97	;'a'
   465  00E3  3477               	retlw	119	;'w'
   466  00E4  342A               	retlw	42	;'*'
   467  00E5  342A               	retlw	42	;'*'
   468  00E6  342A               	retlw	42	;'*'
   469  00E7  3400               	retlw	0
   470                           psect	strings
   471                           	
   472  00E8                     STR_6:	
   473  00E8  3466               	retlw	102	;'f'
   474  00E9  3469               	retlw	105	;'i'
   475  00EA  3472               	retlw	114	;'r'
   476  00EB  3473               	retlw	115	;'s'
   477  00EC  3474               	retlw	116	;'t'
   478  00ED  3400               	retlw	0
   479                           psect	strings
   480  005A                     STR_11	equ	STR_9+0
   481  005A                     STR_13	equ	STR_9+0
   482                           	file	"PR 28.as"
   483                           	line	#
   484                           psect cinit,class=CODE,delta=2
   485                           global start_initialization
   486  1DB0                     start_initialization:
   487                           
   488                           psect	bssCOMMON,class=COMMON,space=1
   489                           global __pbssCOMMON
   490  007C                     __pbssCOMMON:
   491  007C                     _bigval:
   492  007C                            ds      2
   493                           
   494                           psect	bssBANK0,class=BANK0,space=1
   495                           global __pbssBANK0
   496  0020                     __pbssBANK0:
   497  0020                     _average:
   498  0020                            ds      18
   499                           
   500  0032                     _Buttons:
   501  0032                            ds      9
   502                           
   503  003B                     _matrix:
   504  003B                            ds      9
   505                           
   506  0044                     _result1:
   507  0044                            ds      3
   508                           
   509  0047                     _smallavg:
   510  0047                            ds      2
   511                           
   512  0049                     _threshold:
   513  0049                            ds      2
   514                           
   515  004B                     _threshold4:
   516  004B                            ds      2
   517                           
   518  004D                     _Flags:
   519  004D                            ds      1
   520                           
   521  004E                     _data:
   522  004E                            ds      1
   523                           
   524  004F                     _flag:
   525  004F                            ds      1
   526                           
   527  0050                     _index:
   528  0050                            ds      1
   529                           
   530  0051                     _result:
   531  0051                            ds      1
   532                           
   533                           psect	bssBANK1,class=BANK1,space=1
   534                           global __pbssBANK1
   535  00A0                     __pbssBANK1:
   536  00A0                     _reading:
   537  00A0                            ds      18
   538                           
   539                           psect clrtext,class=CODE,delta=2
   540                           global clear_ram
   541                           ;	Called with FSR containing the base address, and
   542                           ;	W with the last address+1
   543  1D5B                     clear_ram:
   544  1D5B  0064               	clrwdt			;clear the watchdog before getting into this loop
   545  1D5C                     clrloop:
   546  1D5C  0180               	clrf	indf		;clear RAM location pointed to by FSR
   547  1D5D  0A84               	incf	fsr,f		;increment pointer
   548  1D5E  0604               	xorwf	fsr,w		;XOR with final address
   549  1D5F  1903               	btfsc	status,2	;have we reached the end yet?
   550  1D60  3400               	retlw	0		;all done for this memory range, return
   551  1D61  0604               	xorwf	fsr,w		;XOR again to restore value
   552  1D62  2D5C               	goto	clrloop		;do the next byte
   553                           
   554                           ; Clear objects allocated to COMMON
   555                           psect cinit,class=CODE,delta=2
   556  1DB0  01FC               	clrf	((__pbssCOMMON)+0)&07Fh
   557  1DB1  01FD               	clrf	((__pbssCOMMON)+1)&07Fh
   558                           ; Clear objects allocated to BANK0
   559                           psect cinit,class=CODE,delta=2
   560  1DB2  1383               	bcf	status, 7	;select IRP bank0
   561  1DB3  3020               	movlw	low(__pbssBANK0)
   562  1DB4  0084               	movwf	fsr
   563  1DB5  3052               	movlw	low((__pbssBANK0)+032h)
   564  1DB6  160A  158A  255B   	fcall	clear_ram
              160A  158A         
   565                           ; Clear objects allocated to BANK1
   566                           psect cinit,class=CODE,delta=2
   567  1DBB  30A0               	movlw	low(__pbssBANK1)
   568  1DBC  0084               	movwf	fsr
   569  1DBD  30B2               	movlw	low((__pbssBANK1)+012h)
   570  1DBE  160A  158A  255B   	fcall	clear_ram
              160A  158A         
   571                           psect cinit,class=CODE,delta=2
   572                           global end_of_initialization
   573                           
   574                           ;End of C runtime variable initialization code
   575                           
   576  1DC3                     end_of_initialization:
   577  1DC3  0183               clrf status
   578  1DC4  120A  118A  2DD5   ljmp _main	;jump to C main() function
   579                           psect	cstackCOMMON,class=COMMON,space=1
   580                           global __pcstackCOMMON
   581  0070                     __pcstackCOMMON:
   582                           	global	?_Init
   583  0070                     ?_Init:	; 0 bytes @ 0x0
   584                           	global	?_send_config
   585  0070                     ?_send_config:	; 0 bytes @ 0x0
   586                           	global	?_lcd_clr
   587  0070                     ?_lcd_clr:	; 0 bytes @ 0x0
   588                           	global	?_lcd_goto
   589  0070                     ?_lcd_goto:	; 0 bytes @ 0x0
   590                           	global	?_send_string
   591  0070                     ?_send_string:	; 0 bytes @ 0x0
   592                           	global	?_lcd_shift
   593  0070                     ?_lcd_shift:	; 0 bytes @ 0x0
   594                           	global	?_PIEZO_S
   595  0070                     ?_PIEZO_S:	; 0 bytes @ 0x0
   596                           	global	?_checkflag
   597  0070                     ?_checkflag:	; 0 bytes @ 0x0
   598                           	global	?_PIEZO
   599  0070                     ?_PIEZO:	; 0 bytes @ 0x0
   600                           	global	?_PIEZO_D
   601  0070                     ?_PIEZO_D:	; 0 bytes @ 0x0
   602                           	global	?_draw
   603  0070                     ?_draw:	; 0 bytes @ 0x0
   604                           	global	?_led_off
   605  0070                     ?_led_off:	; 0 bytes @ 0x0
   606                           	global	?_CapInit
   607  0070                     ?_CapInit:	; 0 bytes @ 0x0
   608                           	global	?_GetReading
   609  0070                     ?_GetReading:	; 0 bytes @ 0x0
   610                           	global	?_player_1
   611  0070                     ?_player_1:	; 0 bytes @ 0x0
   612                           	global	?_player_2
   613  0070                     ?_player_2:	; 0 bytes @ 0x0
   614                           	global	?_checkstatus
   615  0070                     ?_checkstatus:	; 0 bytes @ 0x0
   616                           	global	?_DisplayLEDs
   617  0070                     ?_DisplayLEDs:	; 0 bytes @ 0x0
   618                           	global	?_SetNextChannel
   619  0070                     ?_SetNextChannel:	; 0 bytes @ 0x0
   620                           	global	??_SetNextChannel
   621  0070                     ??_SetNextChannel:	; 0 bytes @ 0x0
   622                           	global	?_RestartTimer1
   623  0070                     ?_RestartTimer1:	; 0 bytes @ 0x0
   624                           	global	?_led_display1
   625  0070                     ?_led_display1:	; 0 bytes @ 0x0
   626                           	global	?_led_display2
   627  0070                     ?_led_display2:	; 0 bytes @ 0x0
   628                           	global	?_led_display3
   629  0070                     ?_led_display3:	; 0 bytes @ 0x0
   630                           	global	?_e_pulse
   631  0070                     ?_e_pulse:	; 0 bytes @ 0x0
   632                           	global	?_main
   633  0070                     ?_main:	; 0 bytes @ 0x0
   634                           	global	?_isr
   635  0070                     ?_isr:	; 0 bytes @ 0x0
   636                           	global	?_store
   637  0070                     ?_store:	; 0 bytes @ 0x0
   638                           	global	?_send_char
   639  0070                     ?_send_char:	; 0 bytes @ 0x0
   640                           	global	?i1_RestartTimer1
   641  0070                     ?i1_RestartTimer1:	; 0 bytes @ 0x0
   642                           	global	??i1_RestartTimer1
   643  0070                     ??i1_RestartTimer1:	; 0 bytes @ 0x0
   644                           	global	?_winlose
   645  0070                     ?_winlose:	; 1 bytes @ 0x0
   646  0070                     	ds	1
   647                           	global	??_GetReading
   648  0071                     ??_GetReading:	; 0 bytes @ 0x1
   649  0071                     	ds	7
   650                           	global	??_isr
   651  0078                     ??_isr:	; 0 bytes @ 0x8
   652  0078                     	ds	4
   653                           psect	cstackBANK0,class=BANK0,space=1
   654                           global __pcstackBANK0
   655  0052                     __pcstackBANK0:
   656                           	global	?_delay
   657  0052                     ?_delay:	; 0 bytes @ 0x0
   658                           	global	??_RestartTimer1
   659  0052                     ??_RestartTimer1:	; 0 bytes @ 0x0
   660                           	global	??_led_display1
   661  0052                     ??_led_display1:	; 0 bytes @ 0x0
   662                           	global	??_led_display2
   663  0052                     ??_led_display2:	; 0 bytes @ 0x0
   664                           	global	??_led_display3
   665  0052                     ??_led_display3:	; 0 bytes @ 0x0
   666                           	global	??_store
   667  0052                     ??_store:	; 0 bytes @ 0x0
   668                           	global	?___bmul
   669  0052                     ?___bmul:	; 1 bytes @ 0x0
   670                           	global	___bmul@multiplicand
   671  0052                     ___bmul@multiplicand:	; 1 bytes @ 0x0
   672                           	global	delay@data
   673  0052                     delay@data:	; 4 bytes @ 0x0
   674  0052                     	ds	1
   675                           	global	??___bmul
   676  0053                     ??___bmul:	; 0 bytes @ 0x1
   677                           	global	led_display1@value1
   678  0053                     led_display1@value1:	; 1 bytes @ 0x1
   679                           	global	led_display2@value2
   680  0053                     led_display2@value2:	; 1 bytes @ 0x1
   681                           	global	led_display3@value3
   682  0053                     led_display3@value3:	; 1 bytes @ 0x1
   683  0053                     	ds	1
   684                           	global	??_led_off
   685  0054                     ??_led_off:	; 0 bytes @ 0x2
   686                           	global	??_DisplayLEDs
   687  0054                     ??_DisplayLEDs:	; 0 bytes @ 0x2
   688                           	global	___bmul@product
   689  0054                     ___bmul@product:	; 1 bytes @ 0x2
   690  0054                     	ds	1
   691                           	global	___bmul@multiplier
   692  0055                     ___bmul@multiplier:	; 1 bytes @ 0x3
   693                           	global	DisplayLEDs@k
   694  0055                     DisplayLEDs@k:	; 2 bytes @ 0x3
   695  0055                     	ds	1
   696                           	global	??_delay
   697  0056                     ??_delay:	; 0 bytes @ 0x4
   698                           	global	??_winlose
   699  0056                     ??_winlose:	; 0 bytes @ 0x4
   700                           	global	??_CapInit
   701  0056                     ??_CapInit:	; 0 bytes @ 0x4
   702  0056                     	ds	1
   703                           	global	??_checkflag
   704  0057                     ??_checkflag:	; 0 bytes @ 0x5
   705                           	global	??_player_1
   706  0057                     ??_player_1:	; 0 bytes @ 0x5
   707                           	global	??_player_2
   708  0057                     ??_player_2:	; 0 bytes @ 0x5
   709                           	global	??_checkstatus
   710  0057                     ??_checkstatus:	; 0 bytes @ 0x5
   711  0057                     	ds	3
   712                           	global	??_send_config
   713  005A                     ??_send_config:	; 0 bytes @ 0x8
   714                           	global	??_PIEZO_S
   715  005A                     ??_PIEZO_S:	; 0 bytes @ 0x8
   716                           	global	??_PIEZO
   717  005A                     ??_PIEZO:	; 0 bytes @ 0x8
   718                           	global	??_PIEZO_D
   719  005A                     ??_PIEZO_D:	; 0 bytes @ 0x8
   720                           	global	??_draw
   721  005A                     ??_draw:	; 0 bytes @ 0x8
   722                           	global	??_e_pulse
   723  005A                     ??_e_pulse:	; 0 bytes @ 0x8
   724                           	global	??_send_char
   725  005A                     ??_send_char:	; 0 bytes @ 0x8
   726                           	global	send_config@data
   727  005A                     send_config@data:	; 1 bytes @ 0x8
   728                           	global	send_char@data
   729  005A                     send_char@data:	; 1 bytes @ 0x8
   730                           	global	winlose@status
   731  005A                     winlose@status:	; 2 bytes @ 0x8
   732  005A                     	ds	1
   733                           	global	??_lcd_clr
   734  005B                     ??_lcd_clr:	; 0 bytes @ 0x9
   735                           	global	??_lcd_goto
   736  005B                     ??_lcd_goto:	; 0 bytes @ 0x9
   737                           	global	??_send_string
   738  005B                     ??_send_string:	; 0 bytes @ 0x9
   739                           	global	??_lcd_shift
   740  005B                     ??_lcd_shift:	; 0 bytes @ 0x9
   741                           	global	CapInit@i
   742  005B                     CapInit@i:	; 2 bytes @ 0x9
   743  005B                     	ds	1
   744                           	global	lcd_goto@data
   745  005C                     lcd_goto@data:	; 1 bytes @ 0xA
   746                           	global	send_string@s
   747  005C                     send_string@s:	; 1 bytes @ 0xA
   748                           	global	winlose@flag_w
   749  005C                     winlose@flag_w:	; 1 bytes @ 0xA
   750  005C                     	ds	1
   751                           	global	CapInit@j
   752  005D                     CapInit@j:	; 2 bytes @ 0xB
   753                           	global	winlose@i_569
   754  005D                     winlose@i_569:	; 2 bytes @ 0xB
   755  005D                     	ds	2
   756                           	global	winlose@j_570
   757  005F                     winlose@j_570:	; 2 bytes @ 0xD
   758  005F                     	ds	2
   759                           	global	winlose@i_568
   760  0061                     winlose@i_568:	; 2 bytes @ 0xF
   761  0061                     	ds	2
   762                           	global	??_Init
   763  0063                     ??_Init:	; 0 bytes @ 0x11
   764  0063                     	ds	1
   765                           	global	??_main
   766  0064                     ??_main:	; 0 bytes @ 0x12
   767  0064                     	ds	1
   768                           	global	main@i
   769  0065                     main@i:	; 2 bytes @ 0x13
   770  0065                     	ds	2
   771 ;;Data sizes: Strings 211, constant 0, data 0, bss 70, persistent 0 stack 0
   772 ;;Auto spaces:   Size  Autos    Used
   773 ;; COMMON          14     12      14
   774 ;; BANK0           80     21      71
   775 ;; BANK1           80      0      18
   776 ;; BANK3           96      0       0
   777 ;; BANK2           96      0       0
   778                           
   779 ;;
   780 ;; Pointer list with targets:
   781                           
   782 ;; send_string@s	PTR const unsigned char  size(1) Largest target is 32
   783 ;;		 -> STR_14(CODE[11]), STR_13(CODE[17]), STR_12(CODE[17]), STR_11(CODE[17]), 
   784 ;;		 -> STR_10(CODE[17]), STR_9(CODE[17]), STR_8(CODE[16]), STR_7(CODE[16]), 
   785 ;;		 -> STR_6(CODE[6]), STR_5(CODE[16]), STR_4(CODE[17]), STR_3(CODE[15]), 
   786 ;;		 -> STR_2(CODE[32]), STR_1(CODE[31]), 
   787 ;;
   788                           
   789                           
   790 ;;
   791 ;; Critical Paths under _main in COMMON
   792 ;;
   793 ;;   None.
   794 ;;
   795 ;; Critical Paths under _isr in COMMON
   796 ;;
   797 ;;   _isr->_GetReading
   798 ;;   _GetReading->_SetNextChannel
   799 ;;
   800 ;; Critical Paths under _main in BANK0
   801 ;;
   802 ;;   _main->_Init
   803 ;;   _lcd_shift->_send_config
   804 ;;   _send_string->_send_char
   805 ;;   _lcd_goto->_send_config
   806 ;;   _lcd_clr->_send_config
   807 ;;   _send_char->_delay
   808 ;;   _checkstatus->_DisplayLEDs
   809 ;;   _draw->_delay
   810 ;;   _send_config->_delay
   811 ;;   _Init->_winlose
   812 ;;   _e_pulse->_delay
   813 ;;   _DisplayLEDs->_led_display1
   814 ;;   _DisplayLEDs->_led_display2
   815 ;;   _DisplayLEDs->_led_display3
   816 ;;   _CapInit->___bmul
   817 ;;   _led_off->_led_display1
   818 ;;   _led_off->_led_display2
   819 ;;   _led_off->_led_display3
   820 ;;   _PIEZO_D->_delay
   821 ;;   _PIEZO->_delay
   822 ;;   _winlose->___bmul
   823 ;;   _PIEZO_S->_delay
   824 ;;
   825 ;; Critical Paths under _isr in BANK0
   826 ;;
   827 ;;   None.
   828 ;;
   829 ;; Critical Paths under _main in BANK1
   830 ;;
   831 ;;   None.
   832 ;;
   833 ;; Critical Paths under _isr in BANK1
   834 ;;
   835 ;;   None.
   836 ;;
   837 ;; Critical Paths under _main in BANK3
   838 ;;
   839 ;;   None.
   840 ;;
   841 ;; Critical Paths under _isr in BANK3
   842 ;;
   843 ;;   None.
   844 ;;
   845 ;; Critical Paths under _main in BANK2
   846 ;;
   847 ;;   None.
   848 ;;
   849 ;; Critical Paths under _isr in BANK2
   850 ;;
   851 ;;   None.
   852                           
   853 ;;
   854 ;;Main: autosize = 0, tempsize = 1, incstack = 0, save=0
   855 ;;
   856                           
   857 ;;
   858 ;;Call Graph Tables:
   859 ;;
   860 ;; ---------------------------------------------------------------------------------
   861 ;; (Depth) Function   	        Calls       Base Space   Used Autos Params    Refs
   862 ;; ---------------------------------------------------------------------------------
   863 ;; (0) _main                                                 3     3      0   14949
   864 ;;                                             18 BANK0      3     3      0
   865 ;;                               _Init
   866 ;;                        _send_config
   867 ;;                            _lcd_clr
   868 ;;                           _lcd_goto
   869 ;;                        _send_string
   870 ;;                              _delay
   871 ;;                          _lcd_shift
   872 ;;                            _PIEZO_S
   873 ;;                          _checkflag
   874 ;;                            _winlose
   875 ;;                              _PIEZO
   876 ;;                            _PIEZO_D
   877 ;;                               _draw
   878 ;; ---------------------------------------------------------------------------------
   879 ;; (1) _checkflag                                            0     0      0   11004
   880 ;;                           _player_1
   881 ;;                           _player_2
   882 ;; ---------------------------------------------------------------------------------
   883 ;; (2) _player_2                                             0     0      0    5502
   884 ;;                        _checkstatus
   885 ;; ---------------------------------------------------------------------------------
   886 ;; (2) _player_1                                             0     0      0    5502
   887 ;;                        _checkstatus
   888 ;; ---------------------------------------------------------------------------------
   889 ;; (1) _lcd_shift                                            0     0      0     157
   890 ;;                        _send_config
   891 ;;                              _delay
   892 ;; ---------------------------------------------------------------------------------
   893 ;; (1) _send_string                                          2     2      0     179
   894 ;;                                              9 BANK0      2     2      0
   895 ;;                          _send_char
   896 ;; ---------------------------------------------------------------------------------
   897 ;; (1) _lcd_goto                                             2     2      0     201
   898 ;;                                              9 BANK0      2     2      0
   899 ;;                        _send_config
   900 ;; ---------------------------------------------------------------------------------
   901 ;; (1) _lcd_clr                                              0     0      0     157
   902 ;;                        _send_config
   903 ;;                              _delay
   904 ;; ---------------------------------------------------------------------------------
   905 ;; (2) _send_char                                            1     1      0     112
   906 ;;                                              8 BANK0      1     1      0
   907 ;;                              _delay
   908 ;;                            _e_pulse
   909 ;; ---------------------------------------------------------------------------------
   910 ;; (3) _checkstatus                                          0     0      0    5502
   911 ;;                              _store
   912 ;;                        _DisplayLEDs
   913 ;; ---------------------------------------------------------------------------------
   914 ;; (1) _draw                                                 1     1      0    1101
   915 ;;                                              8 BANK0      1     1      0
   916 ;;                       _led_display1
   917 ;;                       _led_display2
   918 ;;                       _led_display3
   919 ;;                              _delay
   920 ;;                            _led_off
   921 ;; ---------------------------------------------------------------------------------
   922 ;; (2) _send_config                                          1     1      0     112
   923 ;;                                              8 BANK0      1     1      0
   924 ;;                              _delay
   925 ;;                            _e_pulse
   926 ;; ---------------------------------------------------------------------------------
   927 ;; (1) _Init                                                 1     1      0    1272
   928 ;;                                             17 BANK0      1     1      0
   929 ;;                            _led_off
   930 ;;                            _CapInit
   931 ;;                            _winlose
   932 ;; ---------------------------------------------------------------------------------
   933 ;; (3) _e_pulse                                              0     0      0      45
   934 ;;                              _delay
   935 ;; ---------------------------------------------------------------------------------
   936 ;; (4) _DisplayLEDs                                          3     3      0    5502
   937 ;;                                              2 BANK0      3     3      0
   938 ;;                       _led_display1
   939 ;;                       _led_display2
   940 ;;                       _led_display3
   941 ;; ---------------------------------------------------------------------------------
   942 ;; (2) _CapInit                                              9     9      0     204
   943 ;;                                              4 BANK0      9     9      0
   944 ;;                             ___bmul
   945 ;; ---------------------------------------------------------------------------------
   946 ;; (2) _led_off                                              0     0      0     528
   947 ;;                       _led_display1
   948 ;;                       _led_display2
   949 ;;                       _led_display3
   950 ;; ---------------------------------------------------------------------------------
   951 ;; (1) _PIEZO_D                                              0     0      0      45
   952 ;;                              _delay
   953 ;;                      _RestartTimer1
   954 ;; ---------------------------------------------------------------------------------
   955 ;; (1) _PIEZO                                                0     0      0      45
   956 ;;                              _delay
   957 ;;                      _RestartTimer1
   958 ;; ---------------------------------------------------------------------------------
   959 ;; (1) _winlose                                             17    17      0     540
   960 ;;                                              4 BANK0     13    13      0
   961 ;;                             ___bmul
   962 ;; ---------------------------------------------------------------------------------
   963 ;; (1) _PIEZO_S                                              0     0      0      45
   964 ;;                              _delay
   965 ;;                      _RestartTimer1
   966 ;; ---------------------------------------------------------------------------------
   967 ;; (2) ___bmul                                               4     3      1      68
   968 ;;                                              0 BANK0      4     3      1
   969 ;; ---------------------------------------------------------------------------------
   970 ;; (3) _led_display3                                         2     2      0     176
   971 ;;                                              0 BANK0      2     2      0
   972 ;; ---------------------------------------------------------------------------------
   973 ;; (3) _led_display2                                         2     2      0     176
   974 ;;                                              0 BANK0      2     2      0
   975 ;; ---------------------------------------------------------------------------------
   976 ;; (3) _led_display1                                         2     2      0     176
   977 ;;                                              0 BANK0      2     2      0
   978 ;; ---------------------------------------------------------------------------------
   979 ;; (2) _RestartTimer1                                        0     0      0       0
   980 ;; ---------------------------------------------------------------------------------
   981 ;; (4) _store                                                1     1      0       0
   982 ;;                                              0 BANK0      1     1      0
   983 ;; ---------------------------------------------------------------------------------
   984 ;; (2) _delay                                                8     4      4      45
   985 ;;                                              0 BANK0      8     4      4
   986 ;; ---------------------------------------------------------------------------------
   987 ;; Estimated maximum stack depth 4
   988 ;; ---------------------------------------------------------------------------------
   989 ;; (Depth) Function   	        Calls       Base Space   Used Autos Params    Refs
   990 ;; ---------------------------------------------------------------------------------
   991 ;; (6) _isr                                                  4     4      0       0
   992 ;;                                              8 COMMON     4     4      0
   993 ;;                         _GetReading
   994 ;; ---------------------------------------------------------------------------------
   995 ;; (7) _GetReading                                           7     7      0       0
   996 ;;                                              1 COMMON     7     7      0
   997 ;;                     _SetNextChannel
   998 ;;                    i1_RestartTimer1
   999 ;; ---------------------------------------------------------------------------------
  1000 ;; (8) i1_RestartTimer1                                      0     0      0       0
  1001 ;; ---------------------------------------------------------------------------------
  1002 ;; (8) _SetNextChannel                                       1     1      0       0
  1003 ;;                                              0 COMMON     1     1      0
  1004 ;; ---------------------------------------------------------------------------------
  1005 ;; Estimated maximum stack depth 8
  1006 ;; ---------------------------------------------------------------------------------
  1007                           
  1008 ;; Call Graph Graphs:
  1009                           
  1010 ;; _main (ROOT)
  1011 ;;   _Init
  1012 ;;     _led_off
  1013 ;;       _led_display1
  1014 ;;       _led_display2
  1015 ;;       _led_display3
  1016 ;;     _CapInit
  1017 ;;       ___bmul
  1018 ;;     _winlose
  1019 ;;       ___bmul
  1020 ;;   _send_config
  1021 ;;     _delay
  1022 ;;     _e_pulse
  1023 ;;       _delay
  1024 ;;   _lcd_clr
  1025 ;;     _send_config
  1026 ;;       _delay
  1027 ;;       _e_pulse
  1028 ;;         _delay
  1029 ;;     _delay
  1030 ;;   _lcd_goto
  1031 ;;     _send_config
  1032 ;;       _delay
  1033 ;;       _e_pulse
  1034 ;;         _delay
  1035 ;;   _send_string
  1036 ;;     _send_char
  1037 ;;       _delay
  1038 ;;       _e_pulse
  1039 ;;         _delay
  1040 ;;   _delay
  1041 ;;   _lcd_shift
  1042 ;;     _send_config
  1043 ;;       _delay
  1044 ;;       _e_pulse
  1045 ;;         _delay
  1046 ;;     _delay
  1047 ;;   _PIEZO_S
  1048 ;;     _delay
  1049 ;;     _RestartTimer1
  1050 ;;   _checkflag
  1051 ;;     _player_1
  1052 ;;       _checkstatus
  1053 ;;         _store
  1054 ;;         _DisplayLEDs
  1055 ;;           _led_display1
  1056 ;;           _led_display2
  1057 ;;           _led_display3
  1058 ;;     _player_2
  1059 ;;       _checkstatus
  1060 ;;         _store
  1061 ;;         _DisplayLEDs
  1062 ;;           _led_display1
  1063 ;;           _led_display2
  1064 ;;           _led_display3
  1065 ;;   _winlose
  1066 ;;     ___bmul
  1067 ;;   _PIEZO
  1068 ;;     _delay
  1069 ;;     _RestartTimer1
  1070 ;;   _PIEZO_D
  1071 ;;     _delay
  1072 ;;     _RestartTimer1
  1073 ;;   _draw
  1074 ;;     _led_display1
  1075 ;;     _led_display2
  1076 ;;     _led_display3
  1077 ;;     _delay
  1078 ;;     _led_off
  1079 ;;       _led_display1
  1080 ;;       _led_display2
  1081 ;;       _led_display3
  1082 ;;
  1083 ;; _isr (ROOT)
  1084 ;;   _GetReading
  1085 ;;     _SetNextChannel
  1086 ;;     i1_RestartTimer1
  1087 ;;
  1088                           
  1089 ;; Address spaces:
  1090                           
  1091 ;;Name               Size   Autos  Total    Cost      Usage
  1092 ;;BITCOMMON            E      0       0       0        0.0%
  1093 ;;NULL                 0      0       0       0        0.0%
  1094 ;;CODE                 0      0       0       0        0.0%
  1095 ;;COMMON               E      C       E       1      100.0%
  1096 ;;BITSFR0              0      0       0       1        0.0%
  1097 ;;SFR0                 0      0       0       1        0.0%
  1098 ;;BITSFR1              0      0       0       2        0.0%
  1099 ;;SFR1                 0      0       0       2        0.0%
  1100 ;;STACK                0      0       B       2        0.0%
  1101 ;;ABS                  0      0      67       3        0.0%
  1102 ;;BITBANK0            50      0       0       4        0.0%
  1103 ;;BITSFR3              0      0       0       4        0.0%
  1104 ;;SFR3                 0      0       0       4        0.0%
  1105 ;;BANK0               50     15      47       5       88.8%
  1106 ;;BITSFR2              0      0       0       5        0.0%
  1107 ;;SFR2                 0      0       0       5        0.0%
  1108 ;;DATA                 0      0      72       6        0.0%
  1109 ;;BITBANK1            50      0       0       7        0.0%
  1110 ;;BANK1               50      0      12       8       22.5%
  1111 ;;BITBANK3            60      0       0       9        0.0%
  1112 ;;BANK3               60      0       0      10        0.0%
  1113 ;;BITBANK2            60      0       0      11        0.0%
  1114 ;;BANK2               60      0       0      12        0.0%
  1115                           
  1116                           	global	_main
  1117                           psect	maintext,global,class=CODE,delta=2
  1118                           global __pmaintext
  1119  05D5                     __pmaintext:
  1120                           
  1121 ;; *************** function _main *****************
  1122 ;; Defined at:
  1123 ;;		line 85 in file "C:\Users\Phang\Desktop\9.80\PR 28\PR28.c"
  1124 ;; Parameters:    Size  Location     Type
  1125 ;;		None
  1126 ;; Auto vars:     Size  Location     Type
  1127 ;;  i               2   19[BANK0 ] int 
  1128 ;; Return value:  Size  Location     Type
  1129 ;;		None               void
  1130 ;; Registers used:
  1131 ;;		wreg, fsr0l, fsr0h, status,2, status,0, btemp+1, pclath, cstack
  1132 ;; Tracked objects:
  1133 ;;		On entry : 17F/0
  1134 ;;		On exit  : 0/0
  1135 ;;		Unchanged: 0/0
  1136 ;; Data sizes:     COMMON   BANK0   BANK1   BANK3   BANK2
  1137 ;;      Params:         0       0       0       0       0
  1138 ;;      Locals:         0       2       0       0       0
  1139 ;;      Temps:          0       1       0       0       0
  1140 ;;      Totals:         0       3       0       0       0
  1141 ;;Total ram usage:        3 bytes
  1142 ;; Hardware stack levels required when called:    8
  1143 ;; This function calls:
  1144 ;;		_Init
  1145 ;;		_send_config
  1146 ;;		_lcd_clr
  1147 ;;		_lcd_goto
  1148 ;;		_send_string
  1149 ;;		_delay
  1150 ;;		_lcd_shift
  1151 ;;		_PIEZO_S
  1152 ;;		_checkflag
  1153 ;;		_winlose
  1154 ;;		_PIEZO
  1155 ;;		_PIEZO_D
  1156 ;;		_draw
  1157 ;; This function is called by:
  1158 ;;		Startup code after reset
  1159 ;; This function uses a non-reentrant model
  1160 ;;
  1161                           psect	maintext
  1162                           	file	"C:\Users\Phang\Desktop\9.80\PR 28\PR28.c"
  1163                           	line	85
  1164                           	global	__size_of_main
  1165  01D2                     	__size_of_main	equ	__end_of_main-_main
  1166                           	
  1167  05D5                     _main:	
  1168                           	opt	stack 0
  1169                           ; Regs used in _main: [wreg-fsr0h+status,2+status,0+btemp+1+pclath+cstack]
  1170                           	line	87
  1171                           	
  1172  05D5                     l5558:	
  1173                           ;PR28.c: 87: Init();
  1174  05D5  120A  118A  27A7   	fcall	_Init
              120A  118A         
  1175                           	line	90
  1176                           	
  1177  05DA                     l5560:	
  1178                           ;PR28.c: 90: send_config(0b00000001);
  1179  05DA  3001               	movlw	(01h)
  1180  05DB  160A  158A  25C7   	fcall	_send_config
              120A  118A         
  1181                           	line	91
  1182                           	
  1183  05E0                     l5562:	
  1184                           ;PR28.c: 91: send_config(0b00000010);
  1185  05E0  3002               	movlw	(02h)
  1186  05E1  160A  158A  25C7   	fcall	_send_config
              120A  118A         
  1187                           	line	92
  1188                           	
  1189  05E6                     l5564:	
  1190                           ;PR28.c: 92: send_config(0b00000110);
  1191  05E6  3006               	movlw	(06h)
  1192  05E7  160A  158A  25C7   	fcall	_send_config
              120A  118A         
  1193                           	line	93
  1194                           	
  1195  05EC                     l5566:	
  1196                           ;PR28.c: 93: send_config(0b00001100);
  1197  05EC  300C               	movlw	(0Ch)
  1198  05ED  160A  158A  25C7   	fcall	_send_config
              120A  118A         
  1199                           	line	94
  1200                           	
  1201  05F2                     l5568:	
  1202                           ;PR28.c: 94: send_config(0b00111000);
  1203  05F2  3038               	movlw	(038h)
  1204  05F3  160A  158A  25C7   	fcall	_send_config
              120A  118A         
  1205                           	line	95
  1206                           	
  1207  05F8                     l5570:	
  1208                           ;PR28.c: 95: lcd_clr();
  1209  05F8  160A  158A  2584   	fcall	_lcd_clr
              120A  118A         
  1210                           	line	96
  1211                           	
  1212  05FD                     l5572:	
  1213                           ;PR28.c: 96: lcd_goto(0);
  1214  05FD  3000               	movlw	(0)
  1215  05FE  160A  158A  266F   	fcall	_lcd_goto
              120A  118A         
  1216                           	line	97
  1217                           	
  1218  0603                     l5574:	
  1219                           ;PR28.c: 97: send_string("Cytron Technologies Sdn Bhd   ");
  1220  0603  3021               	movlw	((STR_1-__stringbase))&0ffh
  1221  0604  160A  158A  26B4   	fcall	_send_string
              120A  118A         
  1222                           	line	98
  1223                           	
  1224  0609                     l5576:	
  1225                           ;PR28.c: 98: lcd_goto(20);
  1226  0609  3014               	movlw	(014h)
  1227  060A  160A  158A  266F   	fcall	_lcd_goto
              120A  118A         
  1228                           	line	99
  1229                           	
  1230  060F                     l5578:	
  1231                           ;PR28.c: 99: send_string("PR 28 - mTouch with Tic Tac Toe");
  1232  060F  3001               	movlw	((STR_2-__stringbase))&0ffh
  1233  0610  160A  158A  26B4   	fcall	_send_string
              120A  118A         
  1234                           	line	100
  1235                           	
  1236  0615                     l5580:	
  1237                           ;PR28.c: 100: delay(10000);
  1238  0615  3000               	movlw	0
  1239  0616  1283               	bcf	status, 5	;RP0=0, select bank0
  1240  0617  1303               	bcf	status, 6	;RP1=0, select bank0
  1241  0618  00D5               	movwf	(?_delay+3)
  1242  0619  3000               	movlw	0
  1243  061A  00D4               	movwf	(?_delay+2)
  1244  061B  3027               	movlw	027h
  1245  061C  00D3               	movwf	(?_delay+1)
  1246  061D  3010               	movlw	010h
  1247  061E  00D2               	movwf	(?_delay)
  1248                           
  1249  061F  160A  158A  26DE   	fcall	_delay
              120A  118A         
  1250                           	line	101
  1251                           	
  1252  0624                     l5582:	
  1253                           ;PR28.c: 101: for (int i = 0; i <15 ; i++)
  1254  0624  3000               	movlw	low(0)
  1255  0625  1283               	bcf	status, 5	;RP0=0, select bank0
  1256  0626  1303               	bcf	status, 6	;RP1=0, select bank0
  1257  0627  00E5               	movwf	(main@i)
  1258  0628  3000               	movlw	high(0)
  1259  0629  00E6               	movwf	((main@i))+1
  1260                           	
  1261  062A                     l5584:	
  1262  062A  0866               	movf	(main@i+1),w
  1263  062B  3A80               	xorlw	80h
  1264  062C  00FF               	movwf	btemp+1
  1265  062D  3080               	movlw	(high(0Fh))^80h
  1266  062E  027F               	subwf	btemp+1,w
  1267  062F  1D03               	skipz
  1268  0630  2E33               	goto	u8935
  1269  0631  300F               	movlw	low(0Fh)
  1270  0632  0265               	subwf	(main@i),w
  1271  0633                     u8935:
  1272                           
  1273  0633  1C03               	skipc
  1274  0634  2E36               	goto	u8931
  1275  0635  2E37               	goto	u8930
  1276  0636                     u8931:
  1277  0636  2E39               	goto	l5588
  1278  0637                     u8930:
  1279  0637  2E54               	goto	l5594
  1280                           	
  1281  0638                     l5586:	
  1282  0638  2E54               	goto	l5594
  1283                           	line	102
  1284                           	
  1285  0639                     l761:	
  1286                           	line	103
  1287                           	
  1288  0639                     l5588:	
  1289                           ;PR28.c: 102: {
  1290                           ;PR28.c: 103: lcd_shift();
  1291  0639  160A  158A  259A   	fcall	_lcd_shift
              120A  118A         
  1292                           	line	101
  1293                           	
  1294  063E                     l5590:	
  1295  063E  3001               	movlw	low(01h)
  1296  063F  1283               	bcf	status, 5	;RP0=0, select bank0
  1297  0640  1303               	bcf	status, 6	;RP1=0, select bank0
  1298  0641  07E5               	addwf	(main@i),f
  1299  0642  1803               	skipnc
  1300  0643  0AE6               	incf	(main@i+1),f
  1301  0644  3000               	movlw	high(01h)
  1302  0645  07E6               	addwf	(main@i+1),f
  1303                           	
  1304  0646                     l5592:	
  1305  0646  0866               	movf	(main@i+1),w
  1306  0647  3A80               	xorlw	80h
  1307  0648  00FF               	movwf	btemp+1
  1308  0649  3080               	movlw	(high(0Fh))^80h
  1309  064A  027F               	subwf	btemp+1,w
  1310  064B  1D03               	skipz
  1311  064C  2E4F               	goto	u8945
  1312  064D  300F               	movlw	low(0Fh)
  1313  064E  0265               	subwf	(main@i),w
  1314  064F                     u8945:
  1315                           
  1316  064F  1C03               	skipc
  1317  0650  2E52               	goto	u8941
  1318  0651  2E53               	goto	u8940
  1319  0652                     u8941:
  1320  0652  2E39               	goto	l5588
  1321  0653                     u8940:
  1322  0653  2E54               	goto	l5594
  1323                           	
  1324  0654                     l762:	
  1325                           	line	105
  1326                           	
  1327  0654                     l5594:	
  1328                           ;PR28.c: 104: }
  1329                           ;PR28.c: 105: delay(30000);
  1330  0654  3000               	movlw	0
  1331  0655  1283               	bcf	status, 5	;RP0=0, select bank0
  1332  0656  1303               	bcf	status, 6	;RP1=0, select bank0
  1333  0657  00D5               	movwf	(?_delay+3)
  1334  0658  3000               	movlw	0
  1335  0659  00D4               	movwf	(?_delay+2)
  1336  065A  3075               	movlw	075h
  1337  065B  00D3               	movwf	(?_delay+1)
  1338  065C  3030               	movlw	030h
  1339  065D  00D2               	movwf	(?_delay)
  1340                           
  1341  065E  160A  158A  26DE   	fcall	_delay
              120A  118A         
  1342                           	line	106
  1343                           ;PR28.c: 106: lcd_clr();
  1344  0663  160A  158A  2584   	fcall	_lcd_clr
              120A  118A         
  1345                           	line	107
  1346                           ;PR28.c: 107: lcd_goto(0);
  1347  0668  3000               	movlw	(0)
  1348  0669  160A  158A  266F   	fcall	_lcd_goto
              120A  118A         
  1349                           	line	108
  1350                           	
  1351  066E                     l5596:	
  1352                           ;PR28.c: 108: send_string("Player 1 = red");
  1353  066E  30B4               	movlw	((STR_3-__stringbase))&0ffh
  1354  066F  160A  158A  26B4   	fcall	_send_string
              120A  118A         
  1355                           	line	109
  1356                           	
  1357  0674                     l5598:	
  1358                           ;PR28.c: 109: lcd_goto(20);
  1359  0674  3014               	movlw	(014h)
  1360  0675  160A  158A  266F   	fcall	_lcd_goto
              120A  118A         
  1361                           	line	110
  1362                           ;PR28.c: 110: send_string("Player 2 = green");
  1363  067A  3073               	movlw	((STR_4-__stringbase))&0ffh
  1364  067B  160A  158A  26B4   	fcall	_send_string
              120A  118A         
  1365                           	line	111
  1366                           	
  1367  0680                     l5600:	
  1368                           ;PR28.c: 111: delay(60000);
  1369  0680  3000               	movlw	0
  1370  0681  1283               	bcf	status, 5	;RP0=0, select bank0
  1371  0682  1303               	bcf	status, 6	;RP1=0, select bank0
  1372  0683  00D5               	movwf	(?_delay+3)
  1373  0684  3000               	movlw	0
  1374  0685  00D4               	movwf	(?_delay+2)
  1375  0686  30EA               	movlw	0EAh
  1376  0687  00D3               	movwf	(?_delay+1)
  1377  0688  3060               	movlw	060h
  1378  0689  00D2               	movwf	(?_delay)
  1379                           
  1380  068A  160A  158A  26DE   	fcall	_delay
              120A  118A         
  1381                           	line	112
  1382                           	
  1383  068F                     l5602:	
  1384                           ;PR28.c: 112: lcd_clr();
  1385  068F  160A  158A  2584   	fcall	_lcd_clr
              120A  118A         
  1386                           	line	113
  1387                           	
  1388  0694                     l5604:	
  1389                           ;PR28.c: 113: lcd_goto(0);
  1390  0694  3000               	movlw	(0)
  1391  0695  160A  158A  266F   	fcall	_lcd_goto
              120A  118A         
  1392                           	line	114
  1393                           	
  1394  069A                     l5606:	
  1395                           ;PR28.c: 114: send_string("Player 1 starts");
  1396  069A  30A4               	movlw	((STR_5-__stringbase))&0ffh
  1397  069B  160A  158A  26B4   	fcall	_send_string
              120A  118A         
  1398                           	line	115
  1399                           ;PR28.c: 115: lcd_goto(20);
  1400  06A0  3014               	movlw	(014h)
  1401  06A1  160A  158A  266F   	fcall	_lcd_goto
              120A  118A         
  1402                           	line	116
  1403                           	
  1404  06A6                     l5608:	
  1405                           ;PR28.c: 116: send_string("first");
  1406  06A6  30CE               	movlw	((STR_6-__stringbase))&0ffh
  1407  06A7  160A  158A  26B4   	fcall	_send_string
              120A  118A         
  1408                           	line	117
  1409                           	
  1410  06AC                     l5610:	
  1411                           ;PR28.c: 117: delay(30000);
  1412  06AC  3000               	movlw	0
  1413  06AD  1283               	bcf	status, 5	;RP0=0, select bank0
  1414  06AE  1303               	bcf	status, 6	;RP1=0, select bank0
  1415  06AF  00D5               	movwf	(?_delay+3)
  1416  06B0  3000               	movlw	0
  1417  06B1  00D4               	movwf	(?_delay+2)
  1418  06B2  3075               	movlw	075h
  1419  06B3  00D3               	movwf	(?_delay+1)
  1420  06B4  3030               	movlw	030h
  1421  06B5  00D2               	movwf	(?_delay)
  1422                           
  1423  06B6  160A  158A  26DE   	fcall	_delay
              120A  118A         
  1424                           	line	119
  1425                           	
  1426  06BB                     l5612:	
  1427                           ;PR28.c: 119: Buttons.BTN0 = Buttons.BTN1 = Buttons.BTN2 = Buttons.BTN3 = 0;
  1428  06BB  3000               	movlw	(0)
  1429  06BC  1283               	bcf	status, 5	;RP0=0, select bank0
  1430  06BD  1303               	bcf	status, 6	;RP1=0, select bank0
  1431  06BE  00B5               	movwf	0+(_Buttons)+03h
  1432  06BF  00B4               	movwf	0+(_Buttons)+02h
  1433  06C0  00B3               	movwf	0+(_Buttons)+01h
  1434  06C1  00E4               	movwf	(??_main+0)+0
  1435  06C2  0864               	movf	(??_main+0)+0,w
  1436  06C3  00B2               	movwf	(_Buttons)
  1437                           	line	120
  1438                           	
  1439  06C4                     l5614:	
  1440                           ;PR28.c: 120: Buttons.BTN4 = Buttons.BTN5 = Buttons.BTN6 = Buttons.BTN7 = 0;
  1441  06C4  3000               	movlw	(0)
  1442  06C5  00B9               	movwf	0+(_Buttons)+07h
  1443  06C6  00B8               	movwf	0+(_Buttons)+06h
  1444  06C7  00B7               	movwf	0+(_Buttons)+05h
  1445  06C8  00E4               	movwf	(??_main+0)+0
  1446  06C9  0864               	movf	(??_main+0)+0,w
  1447  06CA  00B6               	movwf	0+(_Buttons)+04h
  1448                           	line	121
  1449                           	
  1450  06CB                     l5616:	
  1451                           ;PR28.c: 121: Buttons.BTN8 = 0;
  1452  06CB  1003               	clrc
  1453  06CC  3000               	movlw	0
  1454  06CD  1803               	btfsc	status,0
  1455  06CE  3001               	movlw	1
  1456  06CF  00BA               	movwf	0+(_Buttons)+08h
  1457                           	line	124
  1458                           	
  1459  06D0                     l5618:	
  1460                           ;PR28.c: 124: PIEZO_S();
  1461  06D0  160A  118A  223F   	fcall	_PIEZO_S
              120A  118A         
  1462                           	line	125
  1463                           ;PR28.c: 125: while (data == ' ')
  1464  06D5  2F11               	goto	l5634
  1465                           	
  1466  06D6                     l764:	
  1467                           	line	127
  1468                           	
  1469  06D6                     l5620:	
  1470                           ;PR28.c: 126: {
  1471                           ;PR28.c: 127: if( flag == 0)
  1472  06D6  1283               	bcf	status, 5	;RP0=0, select bank0
  1473  06D7  1303               	bcf	status, 6	;RP1=0, select bank0
  1474  06D8  08CF               	movf	(_flag),f
  1475  06D9  1D03               	skipz
  1476  06DA  2EDC               	goto	u8951
  1477  06DB  2EDD               	goto	u8950
  1478  06DC                     u8951:
  1479  06DC  2EEF               	goto	l5626
  1480  06DD                     u8950:
  1481                           	line	129
  1482                           	
  1483  06DD                     l5622:	
  1484                           ;PR28.c: 128: {
  1485                           ;PR28.c: 129: lcd_clr();
  1486  06DD  160A  158A  2584   	fcall	_lcd_clr
              120A  118A         
  1487                           	line	130
  1488                           ;PR28.c: 130: lcd_goto(0);
  1489  06E2  3000               	movlw	(0)
  1490  06E3  160A  158A  266F   	fcall	_lcd_goto
              120A  118A         
  1491                           	line	131
  1492                           	
  1493  06E8                     l5624:	
  1494                           ;PR28.c: 131: send_string("Player 1's turn");
  1495  06E8  3084               	movlw	((STR_7-__stringbase))&0ffh
  1496  06E9  160A  158A  26B4   	fcall	_send_string
              120A  118A         
  1497                           	line	132
  1498                           ;PR28.c: 132: }else
  1499  06EE  2F01               	goto	l5630
  1500                           	
  1501  06EF                     l765:	
  1502                           	line	134
  1503                           	
  1504  06EF                     l5626:	
  1505                           ;PR28.c: 133: {
  1506                           ;PR28.c: 134: lcd_clr();
  1507  06EF  160A  158A  2584   	fcall	_lcd_clr
              120A  118A         
  1508                           	line	135
  1509                           ;PR28.c: 135: lcd_goto(0);
  1510  06F4  3000               	movlw	(0)
  1511  06F5  160A  158A  266F   	fcall	_lcd_goto
              120A  118A         
  1512                           	line	136
  1513                           	
  1514  06FA                     l5628:	
  1515                           ;PR28.c: 136: send_string("Player 2's turn");
  1516  06FA  3094               	movlw	((STR_8-__stringbase))&0ffh
  1517  06FB  160A  158A  26B4   	fcall	_send_string
              120A  118A         
  1518  0700  2F01               	goto	l5630
  1519                           	line	137
  1520                           	
  1521  0701                     l766:	
  1522                           	line	138
  1523                           	
  1524  0701                     l5630:	
  1525                           ;PR28.c: 137: }
  1526                           ;PR28.c: 138: checkflag();
  1527  0701  160A  158A  25F9   	fcall	_checkflag
              120A  118A         
  1528                           	line	139
  1529                           	
  1530  0706                     l5632:	
  1531                           ;PR28.c: 139: data = winlose();
  1532  0706  160A  118A  269F   	fcall	_winlose
              120A  118A         
  1533  070B  1283               	bcf	status, 5	;RP0=0, select bank0
  1534  070C  1303               	bcf	status, 6	;RP1=0, select bank0
  1535  070D  00E4               	movwf	(??_main+0)+0
  1536  070E  0864               	movf	(??_main+0)+0,w
  1537  070F  00CE               	movwf	(_data)
  1538  0710  2F11               	goto	l5634
  1539                           	line	140
  1540                           	
  1541  0711                     l763:	
  1542                           	line	125
  1543                           	
  1544  0711                     l5634:	
  1545  0711  1283               	bcf	status, 5	;RP0=0, select bank0
  1546  0712  1303               	bcf	status, 6	;RP1=0, select bank0
  1547  0713  084E               	movf	(_data),w
  1548  0714  3A20               	xorlw	020h
  1549  0715  1903               	skipnz
  1550  0716  2F18               	goto	u8961
  1551  0717  2F19               	goto	u8960
  1552  0718                     u8961:
  1553  0718  2ED6               	goto	l5620
  1554  0719                     u8960:
  1555  0719  2F1A               	goto	l5636
  1556                           	
  1557  071A                     l767:	
  1558                           	line	141
  1559                           	
  1560  071A                     l5636:	
  1561                           ;PR28.c: 140: }
  1562                           ;PR28.c: 141: if(data =='X'){
  1563  071A  084E               	movf	(_data),w
  1564  071B  3A58               	xorlw	058h
  1565  071C  1D03               	skipz
  1566  071D  2F1F               	goto	u8971
  1567  071E  2F20               	goto	u8970
  1568  071F                     u8971:
  1569  071F  2F43               	goto	l5644
  1570  0720                     u8970:
  1571                           	line	142
  1572                           	
  1573  0720                     l5638:	
  1574                           ;PR28.c: 142: PIEZO();
  1575  0720  160A  118A  2423   	fcall	_PIEZO
              120A  118A         
  1576                           	line	143
  1577                           ;PR28.c: 143: lcd_clr();
  1578  0725  160A  158A  2584   	fcall	_lcd_clr
              120A  118A         
  1579                           	line	144
  1580                           ;PR28.c: 144: lcd_goto(0);
  1581  072A  3000               	movlw	(0)
  1582  072B  160A  158A  266F   	fcall	_lcd_goto
              120A  118A         
  1583                           	line	145
  1584                           	
  1585  0730                     l5640:	
  1586                           ;PR28.c: 145: send_string("congratulation! ");
  1587  0730  3040               	movlw	((STR_9-__stringbase))&0ffh
  1588  0731  160A  158A  26B4   	fcall	_send_string
              120A  118A         
  1589                           	line	146
  1590                           	
  1591  0736                     l5642:	
  1592                           ;PR28.c: 146: lcd_goto(20);
  1593  0736  3014               	movlw	(014h)
  1594  0737  160A  158A  266F   	fcall	_lcd_goto
              120A  118A         
  1595                           	line	147
  1596                           ;PR28.c: 147: send_string("**player1 wins**");
  1597  073C  3051               	movlw	((STR_10-__stringbase))&0ffh
  1598  073D  160A  158A  26B4   	fcall	_send_string
              120A  118A         
  1599  0742  2F43               	goto	l5644
  1600                           	line	148
  1601                           	
  1602  0743                     l768:	
  1603                           	line	149
  1604                           	
  1605  0743                     l5644:	
  1606                           ;PR28.c: 148: }
  1607                           ;PR28.c: 149: if(data == 'O'){
  1608  0743  1283               	bcf	status, 5	;RP0=0, select bank0
  1609  0744  1303               	bcf	status, 6	;RP1=0, select bank0
  1610  0745  084E               	movf	(_data),w
  1611  0746  3A4F               	xorlw	04Fh
  1612  0747  1D03               	skipz
  1613  0748  2F4A               	goto	u8981
  1614  0749  2F4B               	goto	u8980
  1615  074A                     u8981:
  1616  074A  2F99               	goto	l5658
  1617  074B                     u8980:
  1618                           	line	150
  1619                           	
  1620  074B                     l5646:	
  1621                           ;PR28.c: 150: PIEZO();
  1622  074B  160A  118A  2423   	fcall	_PIEZO
              120A  118A         
  1623                           	line	151
  1624                           ;PR28.c: 151: lcd_clr();
  1625  0750  160A  158A  2584   	fcall	_lcd_clr
              120A  118A         
  1626                           	line	152
  1627                           ;PR28.c: 152: lcd_goto(0);
  1628  0755  3000               	movlw	(0)
  1629  0756  160A  158A  266F   	fcall	_lcd_goto
              120A  118A         
  1630                           	line	153
  1631                           	
  1632  075B                     l5648:	
  1633                           ;PR28.c: 153: send_string("congratulation! ");
  1634  075B  3040               	movlw	((STR_11-__stringbase))&0ffh
  1635  075C  160A  158A  26B4   	fcall	_send_string
              120A  118A         
  1636                           	line	154
  1637                           	
  1638  0761                     l5650:	
  1639                           ;PR28.c: 154: lcd_goto(20);
  1640  0761  3014               	movlw	(014h)
  1641  0762  160A  158A  266F   	fcall	_lcd_goto
              120A  118A         
  1642                           	line	155
  1643                           ;PR28.c: 155: send_string("**player2 wins**");
  1644  0767  3062               	movlw	((STR_12-__stringbase))&0ffh
  1645  0768  160A  158A  26B4   	fcall	_send_string
              120A  118A         
  1646  076D  2F99               	goto	l5658
  1647                           	line	156
  1648                           	
  1649  076E                     l769:	
  1650                           ;PR28.c: 156: }while(data == 'd'){
  1651  076E  2F99               	goto	l5658
  1652                           	
  1653  076F                     l771:	
  1654                           	line	157
  1655                           	
  1656  076F                     l5652:	
  1657                           ;PR28.c: 157: PIEZO_D();
  1658  076F  120A  118A  20EE   	fcall	_PIEZO_D
              120A  118A         
  1659                           	line	158
  1660                           ;PR28.c: 158: while(1){
  1661                           	
  1662  0774                     l772:	
  1663                           	line	159
  1664                           ;PR28.c: 159: draw();
  1665  0774  160A  158A  2710   	fcall	_draw
              120A  118A         
  1666                           	line	160
  1667                           ;PR28.c: 160: lcd_clr();
  1668  0779  160A  158A  2584   	fcall	_lcd_clr
              120A  118A         
  1669                           	line	161
  1670                           ;PR28.c: 161: lcd_goto(0);
  1671  077E  3000               	movlw	(0)
  1672  077F  160A  158A  266F   	fcall	_lcd_goto
              120A  118A         
  1673                           	line	162
  1674                           	
  1675  0784                     l5654:	
  1676                           ;PR28.c: 162: send_string("congratulation! ");
  1677  0784  3040               	movlw	((STR_13-__stringbase))&0ffh
  1678  0785  160A  158A  26B4   	fcall	_send_string
              120A  118A         
  1679                           	line	163
  1680                           	
  1681  078A                     l5656:	
  1682                           ;PR28.c: 163: lcd_goto(20);
  1683  078A  3014               	movlw	(014h)
  1684  078B  160A  158A  266F   	fcall	_lcd_goto
              120A  118A         
  1685                           	line	164
  1686                           ;PR28.c: 164: send_string("***draw***");
  1687  0790  30C3               	movlw	((STR_14-__stringbase))&0ffh
  1688  0791  160A  158A  26B4   	fcall	_send_string
              120A  118A         
  1689  0796  2F74               	goto	l772
  1690                           	line	165
  1691                           	
  1692  0797                     l773:	
  1693                           	line	158
  1694  0797  2F74               	goto	l772
  1695                           	
  1696  0798                     l774:	
  1697  0798  2F99               	goto	l5658
  1698                           	line	166
  1699                           	
  1700  0799                     l770:	
  1701                           	line	156
  1702                           	
  1703  0799                     l5658:	
  1704  0799  1283               	bcf	status, 5	;RP0=0, select bank0
  1705  079A  1303               	bcf	status, 6	;RP1=0, select bank0
  1706  079B  084E               	movf	(_data),w
  1707  079C  3A64               	xorlw	064h
  1708  079D  1903               	skipnz
  1709  079E  2FA0               	goto	u8991
  1710  079F  2FA1               	goto	u8990
  1711  07A0                     u8991:
  1712  07A0  2F6F               	goto	l5652
  1713  07A1                     u8990:
  1714  07A1  2FA3               	goto	l777
  1715                           	
  1716  07A2                     l775:	
  1717  07A2  2FA3               	goto	l777
  1718                           	line	167
  1719                           ;PR28.c: 165: }
  1720                           ;PR28.c: 166: }
  1721                           ;PR28.c: 167: while(1){}
  1722                           	
  1723  07A3                     l776:	
  1724                           	
  1725  07A3                     l777:	
  1726  07A3  2FA3               	goto	l777
  1727                           	
  1728  07A4                     l778:	
  1729                           	line	168
  1730                           	
  1731  07A4                     l779:	
  1732                           	global	start
  1733  07A4  120A  118A  2812   	ljmp	start
  1734                           	opt stack 0
  1735                           GLOBAL	__end_of_main
  1736  07A7                     	__end_of_main:
  1737 ;; =============== function _main ends ============
  1738                           
  1739                           	signat	_main,88
  1740                           	global	_checkflag
  1741                           psect	text693,local,class=CODE,delta=2
  1742                           global __ptext693
  1743  1DF9                     __ptext693:
  1744                           
  1745 ;; *************** function _checkflag *****************
  1746 ;; Defined at:
  1747 ;;		line 291 in file "C:\Users\Phang\Desktop\9.80\PR 28\PR28.c"
  1748 ;; Parameters:    Size  Location     Type
  1749 ;;		None
  1750 ;; Auto vars:     Size  Location     Type
  1751 ;;		None
  1752 ;; Return value:  Size  Location     Type
  1753 ;;		None               void
  1754 ;; Registers used:
  1755 ;;		wreg, fsr0l, fsr0h, status,2, status,0, btemp+1, pclath, cstack
  1756 ;; Tracked objects:
  1757 ;;		On entry : 0/0
  1758 ;;		On exit  : 0/0
  1759 ;;		Unchanged: 0/0
  1760 ;; Data sizes:     COMMON   BANK0   BANK1   BANK3   BANK2
  1761 ;;      Params:         0       0       0       0       0
  1762 ;;      Locals:         0       0       0       0       0
  1763 ;;      Temps:          0       0       0       0       0
  1764 ;;      Totals:         0       0       0       0       0
  1765 ;;Total ram usage:        0 bytes
  1766 ;; Hardware stack levels used:    1
  1767 ;; Hardware stack levels required when called:    7
  1768 ;; This function calls:
  1769 ;;		_player_1
  1770 ;;		_player_2
  1771 ;; This function is called by:
  1772 ;;		_main
  1773 ;; This function uses a non-reentrant model
  1774 ;;
  1775                           psect	text693
  1776                           	file	"C:\Users\Phang\Desktop\9.80\PR 28\PR28.c"
  1777                           	line	291
  1778                           	global	__size_of_checkflag
  1779  001A                     	__size_of_checkflag	equ	__end_of_checkflag-_checkflag
  1780                           	
  1781  1DF9                     _checkflag:	
  1782                           	opt	stack 0
  1783                           ; Regs used in _checkflag: [wreg-fsr0h+status,2+status,0+btemp+1+pclath+cstack]
  1784                           	line	292
  1785                           	
  1786  1DF9                     l5548:	
  1787                           ;PR28.c: 292: switch(flag){
  1788  1DF9  2E08               	goto	l5556
  1789                           	line	293
  1790                           ;PR28.c: 293: case 0: player_1(); break;
  1791                           	
  1792  1DFA                     l801:	
  1793                           	
  1794  1DFA                     l5550:	
  1795  1DFA  160A  158A  2575   	fcall	_player_1
              160A  158A         
  1796  1DFF  2E12               	goto	l805
  1797                           	line	294
  1798                           ;PR28.c: 294: case 1: player_2(); break;
  1799                           	
  1800  1E00                     l803:	
  1801                           	
  1802  1E00                     l5552:	
  1803  1E00  120A  118A  27EE   	fcall	_player_2
              160A  158A         
  1804  1E05  2E12               	goto	l805
  1805                           	line	295
  1806                           ;PR28.c: 295: default: break;
  1807                           	
  1808  1E06                     l804:	
  1809  1E06  2E12               	goto	l805
  1810                           	line	296
  1811                           	
  1812  1E07                     l5554:	
  1813                           ;PR28.c: 296: }
  1814  1E07  2E12               	goto	l805
  1815                           	line	292
  1816                           	
  1817  1E08                     l800:	
  1818                           	
  1819  1E08                     l5556:	
  1820  1E08  1283               	bcf	status, 5	;RP0=0, select bank0
  1821  1E09  1303               	bcf	status, 6	;RP1=0, select bank0
  1822  1E0A  084F               	movf	(_flag),w
  1823                           	; Switch size 1, requested type "space"
  1824                           ; Number of cases is 2, Range of values is 0 to 1
  1825                           ; switch strategies available:
  1826                           ; Name         Bytes Cycles
  1827                           ; simple_byte     7     4 (average)
  1828                           ; direct_byte    25    19 (fixed)
  1829                           ;	Chosen strategy is simple_byte
  1830                           
  1831  1E0B  3A00               	xorlw	0^0	; case 0
  1832  1E0C  1903               	skipnz
  1833  1E0D  2DFA               	goto	l5550
  1834  1E0E  3A01               	xorlw	1^0	; case 1
  1835  1E0F  1903               	skipnz
  1836  1E10  2E00               	goto	l5552
  1837  1E11  2E12               	goto	l805
  1838                           
  1839                           	line	296
  1840                           	
  1841  1E12                     l802:	
  1842                           	line	297
  1843                           	
  1844  1E12                     l805:	
  1845  1E12  0008               	return
  1846                           	opt stack 0
  1847                           GLOBAL	__end_of_checkflag
  1848  1E13                     	__end_of_checkflag:
  1849 ;; =============== function _checkflag ends ============
  1850                           
  1851                           	signat	_checkflag,88
  1852                           	global	_player_2
  1853                           psect	text694,local,class=CODE,delta=2
  1854                           global __ptext694
  1855  07EE                     __ptext694:
  1856                           
  1857 ;; *************** function _player_2 *****************
  1858 ;; Defined at:
  1859 ;;		line 318 in file "C:\Users\Phang\Desktop\9.80\PR 28\PR28.c"
  1860 ;; Parameters:    Size  Location     Type
  1861 ;;		None
  1862 ;; Auto vars:     Size  Location     Type
  1863 ;;		None
  1864 ;; Return value:  Size  Location     Type
  1865 ;;		None               void
  1866 ;; Registers used:
  1867 ;;		wreg, fsr0l, fsr0h, status,2, status,0, btemp+1, pclath, cstack
  1868 ;; Tracked objects:
  1869 ;;		On entry : 0/0
  1870 ;;		On exit  : 0/0
  1871 ;;		Unchanged: 0/0
  1872 ;; Data sizes:     COMMON   BANK0   BANK1   BANK3   BANK2
  1873 ;;      Params:         0       0       0       0       0
  1874 ;;      Locals:         0       0       0       0       0
  1875 ;;      Temps:          0       0       0       0       0
  1876 ;;      Totals:         0       0       0       0       0
  1877 ;;Total ram usage:        0 bytes
  1878 ;; Hardware stack levels used:    1
  1879 ;; Hardware stack levels required when called:    6
  1880 ;; This function calls:
  1881 ;;		_checkstatus
  1882 ;; This function is called by:
  1883 ;;		_checkflag
  1884 ;; This function uses a non-reentrant model
  1885 ;;
  1886                           psect	text694
  1887                           	file	"C:\Users\Phang\Desktop\9.80\PR 28\PR28.c"
  1888                           	line	318
  1889                           	global	__size_of_player_2
  1890  0011                     	__size_of_player_2	equ	__end_of_player_2-_player_2
  1891                           	
  1892  07EE                     _player_2:	
  1893                           	opt	stack 0
  1894                           ; Regs used in _player_2: [wreg-fsr0h+status,2+status,0+btemp+1+pclath+cstack]
  1895                           	line	319
  1896                           	
  1897  07EE                     l5542:	
  1898                           ;PR28.c: 319: while (flag == 1){
  1899  07EE  2FF5               	goto	l5546
  1900                           	
  1901  07EF                     l815:	
  1902                           	line	320
  1903                           	
  1904  07EF                     l5544:	
  1905                           ;PR28.c: 320: checkstatus();
  1906  07EF  120A  118A  2392   	fcall	_checkstatus
              120A  118A         
  1907  07F4  2FF5               	goto	l5546
  1908                           	line	321
  1909                           	
  1910  07F5                     l814:	
  1911                           	line	319
  1912                           	
  1913  07F5                     l5546:	
  1914  07F5  1283               	bcf	status, 5	;RP0=0, select bank0
  1915  07F6  1303               	bcf	status, 6	;RP1=0, select bank0
  1916  07F7  084F               	movf	(_flag),w
  1917  07F8  3A01               	xorlw	01h
  1918  07F9  1903               	skipnz
  1919  07FA  2FFC               	goto	u8921
  1920  07FB  2FFD               	goto	u8920
  1921  07FC                     u8921:
  1922  07FC  2FEF               	goto	l5544
  1923  07FD                     u8920:
  1924  07FD  2FFE               	goto	l817
  1925                           	
  1926  07FE                     l816:	
  1927                           	line	322
  1928                           	
  1929  07FE                     l817:	
  1930  07FE  0008               	return
  1931                           	opt stack 0
  1932                           GLOBAL	__end_of_player_2
  1933  07FF                     	__end_of_player_2:
  1934 ;; =============== function _player_2 ends ============
  1935                           
  1936                           	signat	_player_2,88
  1937                           	global	_player_1
  1938                           psect	text695,local,class=CODE,delta=2
  1939                           global __ptext695
  1940  1D75                     __ptext695:
  1941                           
  1942 ;; *************** function _player_1 *****************
  1943 ;; Defined at:
  1944 ;;		line 305 in file "C:\Users\Phang\Desktop\9.80\PR 28\PR28.c"
  1945 ;; Parameters:    Size  Location     Type
  1946 ;;		None
  1947 ;; Auto vars:     Size  Location     Type
  1948 ;;		None
  1949 ;; Return value:  Size  Location     Type
  1950 ;;		None               void
  1951 ;; Registers used:
  1952 ;;		wreg, fsr0l, fsr0h, status,2, status,0, btemp+1, pclath, cstack
  1953 ;; Tracked objects:
  1954 ;;		On entry : 0/0
  1955 ;;		On exit  : 0/0
  1956 ;;		Unchanged: 0/0
  1957 ;; Data sizes:     COMMON   BANK0   BANK1   BANK3   BANK2
  1958 ;;      Params:         0       0       0       0       0
  1959 ;;      Locals:         0       0       0       0       0
  1960 ;;      Temps:          0       0       0       0       0
  1961 ;;      Totals:         0       0       0       0       0
  1962 ;;Total ram usage:        0 bytes
  1963 ;; Hardware stack levels used:    1
  1964 ;; Hardware stack levels required when called:    6
  1965 ;; This function calls:
  1966 ;;		_checkstatus
  1967 ;; This function is called by:
  1968 ;;		_checkflag
  1969 ;; This function uses a non-reentrant model
  1970 ;;
  1971                           psect	text695
  1972                           	file	"C:\Users\Phang\Desktop\9.80\PR 28\PR28.c"
  1973                           	line	305
  1974                           	global	__size_of_player_1
  1975  000F                     	__size_of_player_1	equ	__end_of_player_1-_player_1
  1976                           	
  1977  1D75                     _player_1:	
  1978                           	opt	stack 0
  1979                           ; Regs used in _player_1: [wreg-fsr0h+status,2+status,0+btemp+1+pclath+cstack]
  1980                           	line	306
  1981                           	
  1982  1D75                     l5536:	
  1983                           ;PR28.c: 306: while(flag == 0){
  1984  1D75  2D7C               	goto	l5540
  1985                           	
  1986  1D76                     l809:	
  1987                           	line	307
  1988                           	
  1989  1D76                     l5538:	
  1990                           ;PR28.c: 307: checkstatus();
  1991  1D76  120A  118A  2392   	fcall	_checkstatus
              160A  158A         
  1992  1D7B  2D7C               	goto	l5540
  1993                           	line	308
  1994                           	
  1995  1D7C                     l808:	
  1996                           	line	306
  1997                           	
  1998  1D7C                     l5540:	
  1999  1D7C  1283               	bcf	status, 5	;RP0=0, select bank0
  2000  1D7D  1303               	bcf	status, 6	;RP1=0, select bank0
  2001  1D7E  084F               	movf	(_flag),w
  2002  1D7F  1D03               	skipz
  2003  1D80  2D82               	goto	u8910
  2004  1D81  2D76               	goto	l5538
  2005  1D82                     u8910:
  2006  1D82  2D83               	goto	l811
  2007                           	
  2008  1D83                     l810:	
  2009                           	line	310
  2010                           	
  2011  1D83                     l811:	
  2012  1D83  0008               	return
  2013                           	opt stack 0
  2014                           GLOBAL	__end_of_player_1
  2015  1D84                     	__end_of_player_1:
  2016 ;; =============== function _player_1 ends ============
  2017                           
  2018                           	signat	_player_1,88
  2019                           	global	_lcd_shift
  2020                           psect	text696,local,class=CODE,delta=2
  2021                           global __ptext696
  2022  1D9A                     __ptext696:
  2023                           
  2024 ;; *************** function _lcd_shift *****************
  2025 ;; Defined at:
  2026 ;;		line 884 in file "C:\Users\Phang\Desktop\9.80\PR 28\PR28.c"
  2027 ;; Parameters:    Size  Location     Type
  2028 ;;		None
  2029 ;; Auto vars:     Size  Location     Type
  2030 ;;		None
  2031 ;; Return value:  Size  Location     Type
  2032 ;;		None               void
  2033 ;; Registers used:
  2034 ;;		wreg, status,2, status,0, pclath, cstack
  2035 ;; Tracked objects:
  2036 ;;		On entry : 0/0
  2037 ;;		On exit  : 0/0
  2038 ;;		Unchanged: 0/0
  2039 ;; Data sizes:     COMMON   BANK0   BANK1   BANK3   BANK2
  2040 ;;      Params:         0       0       0       0       0
  2041 ;;      Locals:         0       0       0       0       0
  2042 ;;      Temps:          0       0       0       0       0
  2043 ;;      Totals:         0       0       0       0       0
  2044 ;;Total ram usage:        0 bytes
  2045 ;; Hardware stack levels used:    1
  2046 ;; Hardware stack levels required when called:    6
  2047 ;; This function calls:
  2048 ;;		_send_config
  2049 ;;		_delay
  2050 ;; This function is called by:
  2051 ;;		_main
  2052 ;; This function uses a non-reentrant model
  2053 ;;
  2054                           psect	text696
  2055                           	file	"C:\Users\Phang\Desktop\9.80\PR 28\PR28.c"
  2056                           	line	884
  2057                           	global	__size_of_lcd_shift
  2058  0016                     	__size_of_lcd_shift	equ	__end_of_lcd_shift-_lcd_shift
  2059                           	
  2060  1D9A                     _lcd_shift:	
  2061                           	opt	stack 1
  2062                           ; Regs used in _lcd_shift: [wreg+status,2+status,0+pclath+cstack]
  2063                           	line	885
  2064                           	
  2065  1D9A                     l5534:	
  2066                           ;PR28.c: 885: send_config(0x18);
  2067  1D9A  3018               	movlw	(018h)
  2068  1D9B  160A  158A  25C7   	fcall	_send_config
              160A  158A         
  2069                           	line	886
  2070                           ;PR28.c: 886: delay(6000);
  2071  1DA0  3000               	movlw	0
  2072  1DA1  1283               	bcf	status, 5	;RP0=0, select bank0
  2073  1DA2  1303               	bcf	status, 6	;RP1=0, select bank0
  2074  1DA3  00D5               	movwf	(?_delay+3)
  2075  1DA4  3000               	movlw	0
  2076  1DA5  00D4               	movwf	(?_delay+2)
  2077  1DA6  3017               	movlw	017h
  2078  1DA7  00D3               	movwf	(?_delay+1)
  2079  1DA8  3070               	movlw	070h
  2080  1DA9  00D2               	movwf	(?_delay)
  2081                           
  2082  1DAA  160A  158A  26DE   	fcall	_delay
              160A  158A         
  2083                           	line	887
  2084                           	
  2085  1DAF                     l1166:	
  2086  1DAF  0008               	return
  2087                           	opt stack 0
  2088                           GLOBAL	__end_of_lcd_shift
  2089  1DB0                     	__end_of_lcd_shift:
  2090 ;; =============== function _lcd_shift ends ============
  2091                           
  2092                           	signat	_lcd_shift,88
  2093                           	global	_send_string
  2094                           psect	text697,local,class=CODE,delta=2
  2095                           global __ptext697
  2096  1EB4                     __ptext697:
  2097                           
  2098 ;; *************** function _send_string *****************
  2099 ;; Defined at:
  2100 ;;		line 904 in file "C:\Users\Phang\Desktop\9.80\PR 28\PR28.c"
  2101 ;; Parameters:    Size  Location     Type
  2102 ;;  s               1    wreg     PTR const unsigned char 
  2103 ;;		 -> STR_14(11), STR_13(17), STR_12(17), STR_11(17), 
  2104 ;;		 -> STR_10(17), STR_9(17), STR_8(16), STR_7(16), 
  2105 ;;		 -> STR_6(6), STR_5(16), STR_4(17), STR_3(15), 
  2106 ;;		 -> STR_2(32), STR_1(31), 
  2107 ;; Auto vars:     Size  Location     Type
  2108 ;;  s               1   10[BANK0 ] PTR const unsigned char 
  2109 ;;		 -> STR_14(11), STR_13(17), STR_12(17), STR_11(17), 
  2110 ;;		 -> STR_10(17), STR_9(17), STR_8(16), STR_7(16), 
  2111 ;;		 -> STR_6(6), STR_5(16), STR_4(17), STR_3(15), 
  2112 ;;		 -> STR_2(32), STR_1(31), 
  2113 ;; Return value:  Size  Location     Type
  2114 ;;		None               void
  2115 ;; Registers used:
  2116 ;;		wreg, fsr0l, fsr0h, status,2, status,0, pclath, cstack
  2117 ;; Tracked objects:
  2118 ;;		On entry : 0/0
  2119 ;;		On exit  : 0/0
  2120 ;;		Unchanged: 0/0
  2121 ;; Data sizes:     COMMON   BANK0   BANK1   BANK3   BANK2
  2122 ;;      Params:         0       0       0       0       0
  2123 ;;      Locals:         0       1       0       0       0
  2124 ;;      Temps:          0       1       0       0       0
  2125 ;;      Totals:         0       2       0       0       0
  2126 ;;Total ram usage:        2 bytes
  2127 ;; Hardware stack levels used:    1
  2128 ;; Hardware stack levels required when called:    6
  2129 ;; This function calls:
  2130 ;;		_send_char
  2131 ;; This function is called by:
  2132 ;;		_main
  2133 ;; This function uses a non-reentrant model
  2134 ;;
  2135                           psect	text697
  2136                           	file	"C:\Users\Phang\Desktop\9.80\PR 28\PR28.c"
  2137                           	line	904
  2138                           	global	__size_of_send_string
  2139  002A                     	__size_of_send_string	equ	__end_of_send_string-_send_string
  2140                           	
  2141  1EB4                     _send_string:	
  2142                           	opt	stack 1
  2143                           ; Regs used in _send_string: [wreg-fsr0h+status,2+status,0+pclath+cstack]
  2144                           ;send_string@s stored from wreg
  2145  1EB4  1283               	bcf	status, 5	;RP0=0, select bank0
  2146  1EB5  1303               	bcf	status, 6	;RP1=0, select bank0
  2147  1EB6  00DC               	movwf	(send_string@s)
  2148                           	line	906
  2149                           	
  2150  1EB7                     l5524:	
  2151                           ;PR28.c: 906: while (s && *s)send_char (*s++);
  2152  1EB7  2ECB               	goto	l5530
  2153                           	
  2154  1EB8                     l1173:	
  2155                           	
  2156  1EB8                     l5526:	
  2157  1EB8  085C               	movf	(send_string@s),w
  2158  1EB9  0084               	movwf	fsr0
  2159  1EBA  120A  118A  2015   	fcall	stringdir
              160A  158A         
  2160  1EBF  160A  158A  25E0   	fcall	_send_char
              160A  158A         
  2161                           	
  2162  1EC4                     l5528:	
  2163  1EC4  3001               	movlw	(01h)
  2164  1EC5  1283               	bcf	status, 5	;RP0=0, select bank0
  2165  1EC6  1303               	bcf	status, 6	;RP1=0, select bank0
  2166  1EC7  00DB               	movwf	(??_send_string+0)+0
  2167  1EC8  085B               	movf	(??_send_string+0)+0,w
  2168  1EC9  07DC               	addwf	(send_string@s),f
  2169  1ECA  2ECB               	goto	l5530
  2170                           	
  2171  1ECB                     l1172:	
  2172                           	
  2173  1ECB                     l5530:	
  2174  1ECB  085C               	movf	(send_string@s),w
  2175  1ECC  1D03               	skipz
  2176  1ECD  2ECF               	goto	u8890
  2177  1ECE  2EDD               	goto	l1177
  2178  1ECF                     u8890:
  2179                           	
  2180  1ECF                     l5532:	
  2181  1ECF  085C               	movf	(send_string@s),w
  2182  1ED0  0084               	movwf	fsr0
  2183  1ED1  120A  118A  2015   	fcall	stringdir
              160A  158A         
  2184  1ED6  3800               	iorlw	0
  2185  1ED7  1D03               	skipz
  2186  1ED8  2EDA               	goto	u8901
  2187  1ED9  2EDB               	goto	u8900
  2188  1EDA                     u8901:
  2189  1EDA  2EB8               	goto	l5526
  2190  1EDB                     u8900:
  2191  1EDB  2EDD               	goto	l1177
  2192                           	
  2193  1EDC                     l1175:	
  2194  1EDC  2EDD               	goto	l1177
  2195                           	
  2196  1EDD                     l1176:	
  2197                           	line	908
  2198                           	
  2199  1EDD                     l1177:	
  2200  1EDD  0008               	return
  2201                           	opt stack 0
  2202                           GLOBAL	__end_of_send_string
  2203  1EDE                     	__end_of_send_string:
  2204 ;; =============== function _send_string ends ============
  2205                           
  2206                           	signat	_send_string,4216
  2207                           	global	_lcd_goto
  2208                           psect	text698,local,class=CODE,delta=2
  2209                           global __ptext698
  2210  1E6F                     __ptext698:
  2211                           
  2212 ;; *************** function _lcd_goto *****************
  2213 ;; Defined at:
  2214 ;;		line 867 in file "C:\Users\Phang\Desktop\9.80\PR 28\PR28.c"
  2215 ;; Parameters:    Size  Location     Type
  2216 ;;  data            1    wreg     unsigned char 
  2217 ;; Auto vars:     Size  Location     Type
  2218 ;;  data            1   10[BANK0 ] unsigned char 
  2219 ;; Return value:  Size  Location     Type
  2220 ;;		None               void
  2221 ;; Registers used:
  2222 ;;		wreg, status,2, status,0, pclath, cstack
  2223 ;; Tracked objects:
  2224 ;;		On entry : 0/0
  2225 ;;		On exit  : 0/0
  2226 ;;		Unchanged: 0/0
  2227 ;; Data sizes:     COMMON   BANK0   BANK1   BANK3   BANK2
  2228 ;;      Params:         0       0       0       0       0
  2229 ;;      Locals:         0       1       0       0       0
  2230 ;;      Temps:          0       1       0       0       0
  2231 ;;      Totals:         0       2       0       0       0
  2232 ;;Total ram usage:        2 bytes
  2233 ;; Hardware stack levels used:    1
  2234 ;; Hardware stack levels required when called:    6
  2235 ;; This function calls:
  2236 ;;		_send_config
  2237 ;; This function is called by:
  2238 ;;		_main
  2239 ;; This function uses a non-reentrant model
  2240 ;;
  2241                           psect	text698
  2242                           	file	"C:\Users\Phang\Desktop\9.80\PR 28\PR28.c"
  2243                           	line	867
  2244                           	global	__size_of_lcd_goto
  2245  0021                     	__size_of_lcd_goto	equ	__end_of_lcd_goto-_lcd_goto
  2246                           	
  2247  1E6F                     _lcd_goto:	
  2248                           	opt	stack 1
  2249                           ; Regs used in _lcd_goto: [wreg+status,2+status,0+pclath+cstack]
  2250                           ;lcd_goto@data stored from wreg
  2251  1E6F  1283               	bcf	status, 5	;RP0=0, select bank0
  2252  1E70  1303               	bcf	status, 6	;RP1=0, select bank0
  2253  1E71  00DC               	movwf	(lcd_goto@data)
  2254                           	line	868
  2255                           	
  2256  1E72                     l5516:	
  2257                           ;PR28.c: 868: if(data<16)
  2258  1E72  3010               	movlw	(010h)
  2259  1E73  025C               	subwf	(lcd_goto@data),w
  2260  1E74  1803               	skipnc
  2261  1E75  2E77               	goto	u8881
  2262  1E76  2E78               	goto	u8880
  2263  1E77                     u8881:
  2264  1E77  2E80               	goto	l5520
  2265  1E78                     u8880:
  2266                           	line	870
  2267                           	
  2268  1E78                     l5518:	
  2269                           ;PR28.c: 869: {
  2270                           ;PR28.c: 870: send_config(0x80+data);
  2271  1E78  085C               	movf	(lcd_goto@data),w
  2272  1E79  3E80               	addlw	080h
  2273  1E7A  160A  158A  25C7   	fcall	_send_config
              160A  158A         
  2274                           	line	871
  2275                           ;PR28.c: 871: }
  2276  1E7F  2E8F               	goto	l1163
  2277                           	line	872
  2278                           	
  2279  1E80                     l1161:	
  2280                           	line	874
  2281                           	
  2282  1E80                     l5520:	
  2283                           ;PR28.c: 872: else
  2284                           ;PR28.c: 873: {
  2285                           ;PR28.c: 874: data=data-20;
  2286  1E80  1283               	bcf	status, 5	;RP0=0, select bank0
  2287  1E81  1303               	bcf	status, 6	;RP1=0, select bank0
  2288  1E82  085C               	movf	(lcd_goto@data),w
  2289  1E83  3EEC               	addlw	0ECh
  2290  1E84  00DB               	movwf	(??_lcd_goto+0)+0
  2291  1E85  085B               	movf	(??_lcd_goto+0)+0,w
  2292  1E86  00DC               	movwf	(lcd_goto@data)
  2293                           	line	875
  2294                           	
  2295  1E87                     l5522:	
  2296                           ;PR28.c: 875: send_config(0xc0+data);
  2297  1E87  085C               	movf	(lcd_goto@data),w
  2298  1E88  3EC0               	addlw	0C0h
  2299  1E89  160A  158A  25C7   	fcall	_send_config
              160A  158A         
  2300  1E8E  2E8F               	goto	l1163
  2301                           	line	876
  2302                           	
  2303  1E8F                     l1162:	
  2304                           	line	877
  2305                           	
  2306  1E8F                     l1163:	
  2307  1E8F  0008               	return
  2308                           	opt stack 0
  2309                           GLOBAL	__end_of_lcd_goto
  2310  1E90                     	__end_of_lcd_goto:
  2311 ;; =============== function _lcd_goto ends ============
  2312                           
  2313                           	signat	_lcd_goto,4216
  2314                           	global	_lcd_clr
  2315                           psect	text699,local,class=CODE,delta=2
  2316                           global __ptext699
  2317  1D84                     __ptext699:
  2318                           
  2319 ;; *************** function _lcd_clr *****************
  2320 ;; Defined at:
  2321 ;;		line 894 in file "C:\Users\Phang\Desktop\9.80\PR 28\PR28.c"
  2322 ;; Parameters:    Size  Location     Type
  2323 ;;		None
  2324 ;; Auto vars:     Size  Location     Type
  2325 ;;		None
  2326 ;; Return value:  Size  Location     Type
  2327 ;;		None               void
  2328 ;; Registers used:
  2329 ;;		wreg, status,2, status,0, pclath, cstack
  2330 ;; Tracked objects:
  2331 ;;		On entry : 0/0
  2332 ;;		On exit  : 0/0
  2333 ;;		Unchanged: 0/0
  2334 ;; Data sizes:     COMMON   BANK0   BANK1   BANK3   BANK2
  2335 ;;      Params:         0       0       0       0       0
  2336 ;;      Locals:         0       0       0       0       0
  2337 ;;      Temps:          0       0       0       0       0
  2338 ;;      Totals:         0       0       0       0       0
  2339 ;;Total ram usage:        0 bytes
  2340 ;; Hardware stack levels used:    1
  2341 ;; Hardware stack levels required when called:    6
  2342 ;; This function calls:
  2343 ;;		_send_config
  2344 ;;		_delay
  2345 ;; This function is called by:
  2346 ;;		_main
  2347 ;; This function uses a non-reentrant model
  2348 ;;
  2349                           psect	text699
  2350                           	file	"C:\Users\Phang\Desktop\9.80\PR 28\PR28.c"
  2351                           	line	894
  2352                           	global	__size_of_lcd_clr
  2353  0016                     	__size_of_lcd_clr	equ	__end_of_lcd_clr-_lcd_clr
  2354                           	
  2355  1D84                     _lcd_clr:	
  2356                           	opt	stack 1
  2357                           ; Regs used in _lcd_clr: [wreg+status,2+status,0+pclath+cstack]
  2358                           	line	895
  2359                           	
  2360  1D84                     l5514:	
  2361                           ;PR28.c: 895: send_config(0x01);
  2362  1D84  3001               	movlw	(01h)
  2363  1D85  160A  158A  25C7   	fcall	_send_config
              160A  158A         
  2364                           	line	896
  2365                           ;PR28.c: 896: delay(50);
  2366  1D8A  3000               	movlw	0
  2367  1D8B  1283               	bcf	status, 5	;RP0=0, select bank0
  2368  1D8C  1303               	bcf	status, 6	;RP1=0, select bank0
  2369  1D8D  00D5               	movwf	(?_delay+3)
  2370  1D8E  3000               	movlw	0
  2371  1D8F  00D4               	movwf	(?_delay+2)
  2372  1D90  3000               	movlw	0
  2373  1D91  00D3               	movwf	(?_delay+1)
  2374  1D92  3032               	movlw	032h
  2375  1D93  00D2               	movwf	(?_delay)
  2376                           
  2377  1D94  160A  158A  26DE   	fcall	_delay
              160A  158A         
  2378                           	line	897
  2379                           	
  2380  1D99                     l1169:	
  2381  1D99  0008               	return
  2382                           	opt stack 0
  2383                           GLOBAL	__end_of_lcd_clr
  2384  1D9A                     	__end_of_lcd_clr:
  2385 ;; =============== function _lcd_clr ends ============
  2386                           
  2387                           	signat	_lcd_clr,88
  2388                           	global	_send_char
  2389                           psect	text700,local,class=CODE,delta=2
  2390                           global __ptext700
  2391  1DE0                     __ptext700:
  2392                           
  2393 ;; *************** function _send_char *****************
  2394 ;; Defined at:
  2395 ;;		line 843 in file "C:\Users\Phang\Desktop\9.80\PR 28\PR28.c"
  2396 ;; Parameters:    Size  Location     Type
  2397 ;;  data            1    wreg     unsigned char 
  2398 ;; Auto vars:     Size  Location     Type
  2399 ;;  data            1    8[BANK0 ] unsigned char 
  2400 ;; Return value:  Size  Location     Type
  2401 ;;		None               void
  2402 ;; Registers used:
  2403 ;;		wreg, status,2, status,0, pclath, cstack
  2404 ;; Tracked objects:
  2405 ;;		On entry : 0/0
  2406 ;;		On exit  : 0/0
  2407 ;;		Unchanged: 0/0
  2408 ;; Data sizes:     COMMON   BANK0   BANK1   BANK3   BANK2
  2409 ;;      Params:         0       0       0       0       0
  2410 ;;      Locals:         0       1       0       0       0
  2411 ;;      Temps:          0       0       0       0       0
  2412 ;;      Totals:         0       1       0       0       0
  2413 ;;Total ram usage:        1 bytes
  2414 ;; Hardware stack levels used:    1
  2415 ;; Hardware stack levels required when called:    5
  2416 ;; This function calls:
  2417 ;;		_delay
  2418 ;;		_e_pulse
  2419 ;; This function is called by:
  2420 ;;		_send_string
  2421 ;; This function uses a non-reentrant model
  2422 ;;
  2423                           psect	text700
  2424                           	file	"C:\Users\Phang\Desktop\9.80\PR 28\PR28.c"
  2425                           	line	843
  2426                           	global	__size_of_send_char
  2427  0019                     	__size_of_send_char	equ	__end_of_send_char-_send_char
  2428                           	
  2429  1DE0                     _send_char:	
  2430                           	opt	stack 1
  2431                           ; Regs used in _send_char: [wreg+status,2+status,0+pclath+cstack]
  2432                           ;send_char@data stored from wreg
  2433  1DE0  1283               	bcf	status, 5	;RP0=0, select bank0
  2434  1DE1  1303               	bcf	status, 6	;RP1=0, select bank0
  2435  1DE2  00DA               	movwf	(send_char@data)
  2436                           	line	844
  2437                           	
  2438  1DE3                     l5506:	
  2439                           ;PR28.c: 844: RE0=1;
  2440  1DE3  1409               	bsf	(72/8),(72)&7
  2441                           	line	845
  2442                           	
  2443  1DE4                     l5508:	
  2444                           ;PR28.c: 845: PORTB=data;
  2445  1DE4  085A               	movf	(send_char@data),w
  2446  1DE5  0086               	movwf	(6)	;volatile
  2447                           	line	846
  2448                           	
  2449  1DE6                     l5510:	
  2450                           ;PR28.c: 846: delay(50);
  2451  1DE6  3000               	movlw	0
  2452  1DE7  00D5               	movwf	(?_delay+3)
  2453  1DE8  3000               	movlw	0
  2454  1DE9  00D4               	movwf	(?_delay+2)
  2455  1DEA  3000               	movlw	0
  2456  1DEB  00D3               	movwf	(?_delay+1)
  2457  1DEC  3032               	movlw	032h
  2458  1DED  00D2               	movwf	(?_delay)
  2459                           
  2460  1DEE  160A  158A  26DE   	fcall	_delay
              160A  158A         
  2461                           	line	847
  2462                           	
  2463  1DF3                     l5512:	
  2464                           ;PR28.c: 847: e_pulse();
  2465  1DF3  160A  158A  264E   	fcall	_e_pulse
              160A  158A         
  2466                           	line	848
  2467                           	
  2468  1DF8                     l1155:	
  2469  1DF8  0008               	return
  2470                           	opt stack 0
  2471                           GLOBAL	__end_of_send_char
  2472  1DF9                     	__end_of_send_char:
  2473 ;; =============== function _send_char ends ============
  2474                           
  2475                           	signat	_send_char,4216
  2476                           	global	_checkstatus
  2477                           psect	text701,local,class=CODE,delta=2
  2478                           global __ptext701
  2479  0392                     __ptext701:
  2480                           
  2481 ;; *************** function _checkstatus *****************
  2482 ;; Defined at:
  2483 ;;		line 362 in file "C:\Users\Phang\Desktop\9.80\PR 28\PR28.c"
  2484 ;; Parameters:    Size  Location     Type
  2485 ;;		None
  2486 ;; Auto vars:     Size  Location     Type
  2487 ;;		None
  2488 ;; Return value:  Size  Location     Type
  2489 ;;		None               void
  2490 ;; Registers used:
  2491 ;;		wreg, fsr0l, fsr0h, status,2, status,0, btemp+1, pclath, cstack
  2492 ;; Tracked objects:
  2493 ;;		On entry : 0/0
  2494 ;;		On exit  : 0/0
  2495 ;;		Unchanged: 0/0
  2496 ;; Data sizes:     COMMON   BANK0   BANK1   BANK3   BANK2
  2497 ;;      Params:         0       0       0       0       0
  2498 ;;      Locals:         0       0       0       0       0
  2499 ;;      Temps:          0       0       0       0       0
  2500 ;;      Totals:         0       0       0       0       0
  2501 ;;Total ram usage:        0 bytes
  2502 ;; Hardware stack levels used:    1
  2503 ;; Hardware stack levels required when called:    5
  2504 ;; This function calls:
  2505 ;;		_store
  2506 ;;		_DisplayLEDs
  2507 ;; This function is called by:
  2508 ;;		_player_1
  2509 ;;		_player_2
  2510 ;; This function uses a non-reentrant model
  2511 ;;
  2512                           psect	text701
  2513                           	file	"C:\Users\Phang\Desktop\9.80\PR 28\PR28.c"
  2514                           	line	362
  2515                           	global	__size_of_checkstatus
  2516  0243                     	__size_of_checkstatus	equ	__end_of_checkstatus-_checkstatus
  2517                           	
  2518  0392                     _checkstatus:	
  2519                           	opt	stack 0
  2520                           ; Regs used in _checkstatus: [wreg-fsr0h+status,2+status,0+btemp+1+pclath+cstack]
  2521                           	line	363
  2522                           	
  2523  0392                     l5308:	
  2524                           ;PR28.c: 363: if(Buttons.BTN0 ==1){
  2525  0392  1283               	bcf	status, 5	;RP0=0, select bank0
  2526  0393  1303               	bcf	status, 6	;RP1=0, select bank0
  2527  0394  0832               	movf	(_Buttons),w
  2528  0395  3A01               	xorlw	01h
  2529  0396  1D03               	skipz
  2530  0397  2B99               	goto	u8431
  2531  0398  2B9A               	goto	u8430
  2532  0399                     u8431:
  2533  0399  2BD4               	goto	l5330
  2534  039A                     u8430:
  2535                           	line	364
  2536                           	
  2537  039A                     l5310:	
  2538                           ;PR28.c: 364: if (matrix[0][0] =='X' | matrix[0][0] == 'O')
  2539  039A  083B               	movf	(_matrix),w
  2540  039B  3A58               	xorlw	058h
  2541  039C  1903               	skipnz
  2542  039D  2B9F               	goto	u8441
  2543  039E  2BA0               	goto	u8440
  2544  039F                     u8441:
  2545  039F  2BA7               	goto	l5314
  2546  03A0                     u8440:
  2547                           	
  2548  03A0                     l5312:	
  2549  03A0  083B               	movf	(_matrix),w
  2550  03A1  3A4F               	xorlw	04Fh
  2551  03A2  1D03               	skipz
  2552  03A3  2BA5               	goto	u8451
  2553  03A4  2BA6               	goto	u8450
  2554  03A5                     u8451:
  2555  03A5  2BB7               	goto	l5320
  2556  03A6                     u8450:
  2557  03A6  2BA7               	goto	l5314
  2558                           	
  2559  03A7                     l847:	
  2560                           	line	365
  2561                           	
  2562  03A7                     l5314:	
  2563                           ;PR28.c: 365: { if(flag==0){flag = 0;}
  2564  03A7  08CF               	movf	(_flag),f
  2565  03A8  1D03               	skipz
  2566  03A9  2BAB               	goto	u8461
  2567  03AA  2BAC               	goto	u8460
  2568  03AB                     u8461:
  2569  03AB  2BB2               	goto	l5318
  2570  03AC                     u8460:
  2571                           	
  2572  03AC                     l5316:	
  2573  03AC  1003               	clrc
  2574  03AD  3000               	movlw	0
  2575  03AE  1803               	btfsc	status,0
  2576  03AF  3001               	movlw	1
  2577  03B0  00CF               	movwf	(_flag)
  2578  03B1  2BD4               	goto	l5330
  2579                           	line	366
  2580                           	
  2581  03B2                     l848:	
  2582                           	line	367
  2583                           	
  2584  03B2                     l5318:	
  2585                           ;PR28.c: 366: else
  2586                           ;PR28.c: 367: flag = 1;
  2587  03B2  01CF               	clrf	(_flag)
  2588  03B3  1403               	bsf	status,0
  2589  03B4  0DCF               	rlf	(_flag),f
  2590  03B5  2BD4               	goto	l5330
  2591                           	
  2592  03B6                     l849:	
  2593                           	line	368
  2594                           ;PR28.c: 368: }else {
  2595  03B6  2BD4               	goto	l5330
  2596                           	
  2597  03B7                     l845:	
  2598                           	line	369
  2599                           	
  2600  03B7                     l5320:	
  2601                           ;PR28.c: 369: store();
  2602  03B7  120A  158A  2001   	fcall	_store
              120A  118A         
  2603                           	line	370
  2604                           	
  2605  03BC                     l5322:	
  2606                           ;PR28.c: 370: DisplayLEDs();
  2607  03BC  160A  118A  2315   	fcall	_DisplayLEDs
              120A  118A         
  2608                           	line	371
  2609                           	
  2610  03C1                     l5324:	
  2611                           ;PR28.c: 371: if(flag ==0){flag = 1;}
  2612  03C1  1283               	bcf	status, 5	;RP0=0, select bank0
  2613  03C2  1303               	bcf	status, 6	;RP1=0, select bank0
  2614  03C3  08CF               	movf	(_flag),f
  2615  03C4  1D03               	skipz
  2616  03C5  2BC7               	goto	u8471
  2617  03C6  2BC8               	goto	u8470
  2618  03C7                     u8471:
  2619  03C7  2BCC               	goto	l5328
  2620  03C8                     u8470:
  2621                           	
  2622  03C8                     l5326:	
  2623  03C8  01CF               	clrf	(_flag)
  2624  03C9  1403               	bsf	status,0
  2625  03CA  0DCF               	rlf	(_flag),f
  2626  03CB  2BD4               	goto	l5330
  2627                           	line	372
  2628                           	
  2629  03CC                     l851:	
  2630                           	line	373
  2631                           	
  2632  03CC                     l5328:	
  2633                           ;PR28.c: 372: else
  2634                           ;PR28.c: 373: flag = 0;
  2635  03CC  1003               	clrc
  2636  03CD  3000               	movlw	0
  2637  03CE  1803               	btfsc	status,0
  2638  03CF  3001               	movlw	1
  2639  03D0  00CF               	movwf	(_flag)
  2640  03D1  2BD4               	goto	l5330
  2641                           	
  2642  03D2                     l852:	
  2643  03D2  2BD4               	goto	l5330
  2644                           	line	374
  2645                           	
  2646  03D3                     l850:	
  2647  03D3  2BD4               	goto	l5330
  2648                           	line	375
  2649                           	
  2650  03D4                     l844:	
  2651                           	line	376
  2652                           	
  2653  03D4                     l5330:	
  2654                           ;PR28.c: 374: }
  2655                           ;PR28.c: 375: }
  2656                           ;PR28.c: 376: if(Buttons.BTN1 ==1){
  2657  03D4  0833               	movf	0+(_Buttons)+01h,w
  2658  03D5  3A01               	xorlw	01h
  2659  03D6  1D03               	skipz
  2660  03D7  2BD9               	goto	u8481
  2661  03D8  2BDA               	goto	u8480
  2662  03D9                     u8481:
  2663  03D9  2C14               	goto	l5352
  2664  03DA                     u8480:
  2665                           	line	377
  2666                           	
  2667  03DA                     l5332:	
  2668                           ;PR28.c: 377: if (matrix[0][1] =='X' | matrix[0][1] == 'O')
  2669  03DA  083C               	movf	0+(_matrix)+01h,w
  2670  03DB  3A58               	xorlw	058h
  2671  03DC  1903               	skipnz
  2672  03DD  2BDF               	goto	u8491
  2673  03DE  2BE0               	goto	u8490
  2674  03DF                     u8491:
  2675  03DF  2BE7               	goto	l5336
  2676  03E0                     u8490:
  2677                           	
  2678  03E0                     l5334:	
  2679  03E0  083C               	movf	0+(_matrix)+01h,w
  2680  03E1  3A4F               	xorlw	04Fh
  2681  03E2  1D03               	skipz
  2682  03E3  2BE5               	goto	u8501
  2683  03E4  2BE6               	goto	u8500
  2684  03E5                     u8501:
  2685  03E5  2BF7               	goto	l5342
  2686  03E6                     u8500:
  2687  03E6  2BE7               	goto	l5336
  2688                           	
  2689  03E7                     l856:	
  2690                           	line	378
  2691                           	
  2692  03E7                     l5336:	
  2693                           ;PR28.c: 378: { if(flag==0){flag = 0;}
  2694  03E7  08CF               	movf	(_flag),f
  2695  03E8  1D03               	skipz
  2696  03E9  2BEB               	goto	u8511
  2697  03EA  2BEC               	goto	u8510
  2698  03EB                     u8511:
  2699  03EB  2BF2               	goto	l5340
  2700  03EC                     u8510:
  2701                           	
  2702  03EC                     l5338:	
  2703  03EC  1003               	clrc
  2704  03ED  3000               	movlw	0
  2705  03EE  1803               	btfsc	status,0
  2706  03EF  3001               	movlw	1
  2707  03F0  00CF               	movwf	(_flag)
  2708  03F1  2C14               	goto	l5352
  2709                           	line	379
  2710                           	
  2711  03F2                     l857:	
  2712                           	line	380
  2713                           	
  2714  03F2                     l5340:	
  2715                           ;PR28.c: 379: else
  2716                           ;PR28.c: 380: flag = 1;
  2717  03F2  01CF               	clrf	(_flag)
  2718  03F3  1403               	bsf	status,0
  2719  03F4  0DCF               	rlf	(_flag),f
  2720  03F5  2C14               	goto	l5352
  2721                           	
  2722  03F6                     l858:	
  2723                           	line	381
  2724                           ;PR28.c: 381: }else {
  2725  03F6  2C14               	goto	l5352
  2726                           	
  2727  03F7                     l854:	
  2728                           	line	382
  2729                           	
  2730  03F7                     l5342:	
  2731                           ;PR28.c: 382: store();
  2732  03F7  120A  158A  2001   	fcall	_store
              120A  118A         
  2733                           	line	383
  2734                           	
  2735  03FC                     l5344:	
  2736                           ;PR28.c: 383: DisplayLEDs();
  2737  03FC  160A  118A  2315   	fcall	_DisplayLEDs
              120A  118A         
  2738                           	line	384
  2739                           	
  2740  0401                     l5346:	
  2741                           ;PR28.c: 384: if(flag ==0){flag = 1;}
  2742  0401  1283               	bcf	status, 5	;RP0=0, select bank0
  2743  0402  1303               	bcf	status, 6	;RP1=0, select bank0
  2744  0403  08CF               	movf	(_flag),f
  2745  0404  1D03               	skipz
  2746  0405  2C07               	goto	u8521
  2747  0406  2C08               	goto	u8520
  2748  0407                     u8521:
  2749  0407  2C0C               	goto	l5350
  2750  0408                     u8520:
  2751                           	
  2752  0408                     l5348:	
  2753  0408  01CF               	clrf	(_flag)
  2754  0409  1403               	bsf	status,0
  2755  040A  0DCF               	rlf	(_flag),f
  2756  040B  2C14               	goto	l5352
  2757                           	line	385
  2758                           	
  2759  040C                     l860:	
  2760                           	line	386
  2761                           	
  2762  040C                     l5350:	
  2763                           ;PR28.c: 385: else
  2764                           ;PR28.c: 386: flag = 0;
  2765  040C  1003               	clrc
  2766  040D  3000               	movlw	0
  2767  040E  1803               	btfsc	status,0
  2768  040F  3001               	movlw	1
  2769  0410  00CF               	movwf	(_flag)
  2770  0411  2C14               	goto	l5352
  2771                           	
  2772  0412                     l861:	
  2773  0412  2C14               	goto	l5352
  2774                           	line	387
  2775                           	
  2776  0413                     l859:	
  2777  0413  2C14               	goto	l5352
  2778                           	line	388
  2779                           	
  2780  0414                     l853:	
  2781                           	line	389
  2782                           	
  2783  0414                     l5352:	
  2784                           ;PR28.c: 387: }
  2785                           ;PR28.c: 388: }
  2786                           ;PR28.c: 389: if(Buttons.BTN2 ==1){
  2787  0414  0834               	movf	0+(_Buttons)+02h,w
  2788  0415  3A01               	xorlw	01h
  2789  0416  1D03               	skipz
  2790  0417  2C19               	goto	u8531
  2791  0418  2C1A               	goto	u8530
  2792  0419                     u8531:
  2793  0419  2C54               	goto	l5374
  2794  041A                     u8530:
  2795                           	line	390
  2796                           	
  2797  041A                     l5354:	
  2798                           ;PR28.c: 390: if (matrix[0][2] =='X' | matrix[0][2] == 'O')
  2799  041A  083D               	movf	0+(_matrix)+02h,w
  2800  041B  3A58               	xorlw	058h
  2801  041C  1903               	skipnz
  2802  041D  2C1F               	goto	u8541
  2803  041E  2C20               	goto	u8540
  2804  041F                     u8541:
  2805  041F  2C27               	goto	l5358
  2806  0420                     u8540:
  2807                           	
  2808  0420                     l5356:	
  2809  0420  083D               	movf	0+(_matrix)+02h,w
  2810  0421  3A4F               	xorlw	04Fh
  2811  0422  1D03               	skipz
  2812  0423  2C25               	goto	u8551
  2813  0424  2C26               	goto	u8550
  2814  0425                     u8551:
  2815  0425  2C37               	goto	l5364
  2816  0426                     u8550:
  2817  0426  2C27               	goto	l5358
  2818                           	
  2819  0427                     l865:	
  2820                           	line	391
  2821                           	
  2822  0427                     l5358:	
  2823                           ;PR28.c: 391: { if(flag==0){flag = 0;}
  2824  0427  08CF               	movf	(_flag),f
  2825  0428  1D03               	skipz
  2826  0429  2C2B               	goto	u8561
  2827  042A  2C2C               	goto	u8560
  2828  042B                     u8561:
  2829  042B  2C32               	goto	l5362
  2830  042C                     u8560:
  2831                           	
  2832  042C                     l5360:	
  2833  042C  1003               	clrc
  2834  042D  3000               	movlw	0
  2835  042E  1803               	btfsc	status,0
  2836  042F  3001               	movlw	1
  2837  0430  00CF               	movwf	(_flag)
  2838  0431  2C54               	goto	l5374
  2839                           	line	392
  2840                           	
  2841  0432                     l866:	
  2842                           	line	393
  2843                           	
  2844  0432                     l5362:	
  2845                           ;PR28.c: 392: else
  2846                           ;PR28.c: 393: flag = 1;
  2847  0432  01CF               	clrf	(_flag)
  2848  0433  1403               	bsf	status,0
  2849  0434  0DCF               	rlf	(_flag),f
  2850  0435  2C54               	goto	l5374
  2851                           	
  2852  0436                     l867:	
  2853                           	line	394
  2854                           ;PR28.c: 394: }else {
  2855  0436  2C54               	goto	l5374
  2856                           	
  2857  0437                     l863:	
  2858                           	line	395
  2859                           	
  2860  0437                     l5364:	
  2861                           ;PR28.c: 395: store();
  2862  0437  120A  158A  2001   	fcall	_store
              120A  118A         
  2863                           	line	396
  2864                           	
  2865  043C                     l5366:	
  2866                           ;PR28.c: 396: DisplayLEDs();
  2867  043C  160A  118A  2315   	fcall	_DisplayLEDs
              120A  118A         
  2868                           	line	397
  2869                           	
  2870  0441                     l5368:	
  2871                           ;PR28.c: 397: if(flag ==0){flag = 1;}
  2872  0441  1283               	bcf	status, 5	;RP0=0, select bank0
  2873  0442  1303               	bcf	status, 6	;RP1=0, select bank0
  2874  0443  08CF               	movf	(_flag),f
  2875  0444  1D03               	skipz
  2876  0445  2C47               	goto	u8571
  2877  0446  2C48               	goto	u8570
  2878  0447                     u8571:
  2879  0447  2C4C               	goto	l5372
  2880  0448                     u8570:
  2881                           	
  2882  0448                     l5370:	
  2883  0448  01CF               	clrf	(_flag)
  2884  0449  1403               	bsf	status,0
  2885  044A  0DCF               	rlf	(_flag),f
  2886  044B  2C54               	goto	l5374
  2887                           	line	398
  2888                           	
  2889  044C                     l869:	
  2890                           	line	399
  2891                           	
  2892  044C                     l5372:	
  2893                           ;PR28.c: 398: else
  2894                           ;PR28.c: 399: flag = 0;
  2895  044C  1003               	clrc
  2896  044D  3000               	movlw	0
  2897  044E  1803               	btfsc	status,0
  2898  044F  3001               	movlw	1
  2899  0450  00CF               	movwf	(_flag)
  2900  0451  2C54               	goto	l5374
  2901                           	
  2902  0452                     l870:	
  2903  0452  2C54               	goto	l5374
  2904                           	line	400
  2905                           	
  2906  0453                     l868:	
  2907  0453  2C54               	goto	l5374
  2908                           	line	401
  2909                           	
  2910  0454                     l862:	
  2911                           	line	402
  2912                           	
  2913  0454                     l5374:	
  2914                           ;PR28.c: 400: }
  2915                           ;PR28.c: 401: }
  2916                           ;PR28.c: 402: if(Buttons.BTN3 ==1){
  2917  0454  0835               	movf	0+(_Buttons)+03h,w
  2918  0455  3A01               	xorlw	01h
  2919  0456  1D03               	skipz
  2920  0457  2C59               	goto	u8581
  2921  0458  2C5A               	goto	u8580
  2922  0459                     u8581:
  2923  0459  2C94               	goto	l5396
  2924  045A                     u8580:
  2925                           	line	403
  2926                           	
  2927  045A                     l5376:	
  2928                           ;PR28.c: 403: if (matrix[1][0] =='X' | matrix[1][0] == 'O')
  2929  045A  083E               	movf	0+(_matrix)+03h,w
  2930  045B  3A58               	xorlw	058h
  2931  045C  1903               	skipnz
  2932  045D  2C5F               	goto	u8591
  2933  045E  2C60               	goto	u8590
  2934  045F                     u8591:
  2935  045F  2C67               	goto	l5380
  2936  0460                     u8590:
  2937                           	
  2938  0460                     l5378:	
  2939  0460  083E               	movf	0+(_matrix)+03h,w
  2940  0461  3A4F               	xorlw	04Fh
  2941  0462  1D03               	skipz
  2942  0463  2C65               	goto	u8601
  2943  0464  2C66               	goto	u8600
  2944  0465                     u8601:
  2945  0465  2C77               	goto	l5386
  2946  0466                     u8600:
  2947  0466  2C67               	goto	l5380
  2948                           	
  2949  0467                     l874:	
  2950                           	line	404
  2951                           	
  2952  0467                     l5380:	
  2953                           ;PR28.c: 404: { if(flag==0){flag = 0;}
  2954  0467  08CF               	movf	(_flag),f
  2955  0468  1D03               	skipz
  2956  0469  2C6B               	goto	u8611
  2957  046A  2C6C               	goto	u8610
  2958  046B                     u8611:
  2959  046B  2C72               	goto	l5384
  2960  046C                     u8610:
  2961                           	
  2962  046C                     l5382:	
  2963  046C  1003               	clrc
  2964  046D  3000               	movlw	0
  2965  046E  1803               	btfsc	status,0
  2966  046F  3001               	movlw	1
  2967  0470  00CF               	movwf	(_flag)
  2968  0471  2C94               	goto	l5396
  2969                           	line	405
  2970                           	
  2971  0472                     l875:	
  2972                           	line	406
  2973                           	
  2974  0472                     l5384:	
  2975                           ;PR28.c: 405: else
  2976                           ;PR28.c: 406: flag = 1;
  2977  0472  01CF               	clrf	(_flag)
  2978  0473  1403               	bsf	status,0
  2979  0474  0DCF               	rlf	(_flag),f
  2980  0475  2C94               	goto	l5396
  2981                           	
  2982  0476                     l876:	
  2983                           	line	407
  2984                           ;PR28.c: 407: }else {
  2985  0476  2C94               	goto	l5396
  2986                           	
  2987  0477                     l872:	
  2988                           	line	408
  2989                           	
  2990  0477                     l5386:	
  2991                           ;PR28.c: 408: store();
  2992  0477  120A  158A  2001   	fcall	_store
              120A  118A         
  2993                           	line	409
  2994                           	
  2995  047C                     l5388:	
  2996                           ;PR28.c: 409: DisplayLEDs();
  2997  047C  160A  118A  2315   	fcall	_DisplayLEDs
              120A  118A         
  2998                           	line	410
  2999                           	
  3000  0481                     l5390:	
  3001                           ;PR28.c: 410: if(flag ==0){flag = 1;}
  3002  0481  1283               	bcf	status, 5	;RP0=0, select bank0
  3003  0482  1303               	bcf	status, 6	;RP1=0, select bank0
  3004  0483  08CF               	movf	(_flag),f
  3005  0484  1D03               	skipz
  3006  0485  2C87               	goto	u8621
  3007  0486  2C88               	goto	u8620
  3008  0487                     u8621:
  3009  0487  2C8C               	goto	l5394
  3010  0488                     u8620:
  3011                           	
  3012  0488                     l5392:	
  3013  0488  01CF               	clrf	(_flag)
  3014  0489  1403               	bsf	status,0
  3015  048A  0DCF               	rlf	(_flag),f
  3016  048B  2C94               	goto	l5396
  3017                           	line	411
  3018                           	
  3019  048C                     l878:	
  3020                           	line	412
  3021                           	
  3022  048C                     l5394:	
  3023                           ;PR28.c: 411: else
  3024                           ;PR28.c: 412: flag = 0;
  3025  048C  1003               	clrc
  3026  048D  3000               	movlw	0
  3027  048E  1803               	btfsc	status,0
  3028  048F  3001               	movlw	1
  3029  0490  00CF               	movwf	(_flag)
  3030  0491  2C94               	goto	l5396
  3031                           	
  3032  0492                     l879:	
  3033  0492  2C94               	goto	l5396
  3034                           	line	413
  3035                           	
  3036  0493                     l877:	
  3037  0493  2C94               	goto	l5396
  3038                           	line	414
  3039                           	
  3040  0494                     l871:	
  3041                           	line	415
  3042                           	
  3043  0494                     l5396:	
  3044                           ;PR28.c: 413: }
  3045                           ;PR28.c: 414: }
  3046                           ;PR28.c: 415: if(Buttons.BTN4 ==1){
  3047  0494  0836               	movf	0+(_Buttons)+04h,w
  3048  0495  3A01               	xorlw	01h
  3049  0496  1D03               	skipz
  3050  0497  2C99               	goto	u8631
  3051  0498  2C9A               	goto	u8630
  3052  0499                     u8631:
  3053  0499  2CD4               	goto	l5418
  3054  049A                     u8630:
  3055                           	line	416
  3056                           	
  3057  049A                     l5398:	
  3058                           ;PR28.c: 416: if (matrix[1][1] =='X' | matrix[1][1] == 'O')
  3059  049A  083F               	movf	0+(_matrix)+04h,w
  3060  049B  3A58               	xorlw	058h
  3061  049C  1903               	skipnz
  3062  049D  2C9F               	goto	u8641
  3063  049E  2CA0               	goto	u8640
  3064  049F                     u8641:
  3065  049F  2CA7               	goto	l5402
  3066  04A0                     u8640:
  3067                           	
  3068  04A0                     l5400:	
  3069  04A0  083F               	movf	0+(_matrix)+04h,w
  3070  04A1  3A4F               	xorlw	04Fh
  3071  04A2  1D03               	skipz
  3072  04A3  2CA5               	goto	u8651
  3073  04A4  2CA6               	goto	u8650
  3074  04A5                     u8651:
  3075  04A5  2CB7               	goto	l5408
  3076  04A6                     u8650:
  3077  04A6  2CA7               	goto	l5402
  3078                           	
  3079  04A7                     l883:	
  3080                           	line	417
  3081                           	
  3082  04A7                     l5402:	
  3083                           ;PR28.c: 417: { if(flag==0){flag = 0;}
  3084  04A7  08CF               	movf	(_flag),f
  3085  04A8  1D03               	skipz
  3086  04A9  2CAB               	goto	u8661
  3087  04AA  2CAC               	goto	u8660
  3088  04AB                     u8661:
  3089  04AB  2CB2               	goto	l5406
  3090  04AC                     u8660:
  3091                           	
  3092  04AC                     l5404:	
  3093  04AC  1003               	clrc
  3094  04AD  3000               	movlw	0
  3095  04AE  1803               	btfsc	status,0
  3096  04AF  3001               	movlw	1
  3097  04B0  00CF               	movwf	(_flag)
  3098  04B1  2CD4               	goto	l5418
  3099                           	line	418
  3100                           	
  3101  04B2                     l884:	
  3102                           	line	419
  3103                           	
  3104  04B2                     l5406:	
  3105                           ;PR28.c: 418: else
  3106                           ;PR28.c: 419: flag = 1;
  3107  04B2  01CF               	clrf	(_flag)
  3108  04B3  1403               	bsf	status,0
  3109  04B4  0DCF               	rlf	(_flag),f
  3110  04B5  2CD4               	goto	l5418
  3111                           	
  3112  04B6                     l885:	
  3113                           	line	420
  3114                           ;PR28.c: 420: }else {
  3115  04B6  2CD4               	goto	l5418
  3116                           	
  3117  04B7                     l881:	
  3118                           	line	421
  3119                           	
  3120  04B7                     l5408:	
  3121                           ;PR28.c: 421: store();
  3122  04B7  120A  158A  2001   	fcall	_store
              120A  118A         
  3123                           	line	422
  3124                           	
  3125  04BC                     l5410:	
  3126                           ;PR28.c: 422: DisplayLEDs();
  3127  04BC  160A  118A  2315   	fcall	_DisplayLEDs
              120A  118A         
  3128                           	line	423
  3129                           	
  3130  04C1                     l5412:	
  3131                           ;PR28.c: 423: if(flag ==0){flag = 1;}
  3132  04C1  1283               	bcf	status, 5	;RP0=0, select bank0
  3133  04C2  1303               	bcf	status, 6	;RP1=0, select bank0
  3134  04C3  08CF               	movf	(_flag),f
  3135  04C4  1D03               	skipz
  3136  04C5  2CC7               	goto	u8671
  3137  04C6  2CC8               	goto	u8670
  3138  04C7                     u8671:
  3139  04C7  2CCC               	goto	l5416
  3140  04C8                     u8670:
  3141                           	
  3142  04C8                     l5414:	
  3143  04C8  01CF               	clrf	(_flag)
  3144  04C9  1403               	bsf	status,0
  3145  04CA  0DCF               	rlf	(_flag),f
  3146  04CB  2CD4               	goto	l5418
  3147                           	line	424
  3148                           	
  3149  04CC                     l887:	
  3150                           	line	425
  3151                           	
  3152  04CC                     l5416:	
  3153                           ;PR28.c: 424: else
  3154                           ;PR28.c: 425: flag = 0;
  3155  04CC  1003               	clrc
  3156  04CD  3000               	movlw	0
  3157  04CE  1803               	btfsc	status,0
  3158  04CF  3001               	movlw	1
  3159  04D0  00CF               	movwf	(_flag)
  3160  04D1  2CD4               	goto	l5418
  3161                           	
  3162  04D2                     l888:	
  3163  04D2  2CD4               	goto	l5418
  3164                           	line	426
  3165                           	
  3166  04D3                     l886:	
  3167  04D3  2CD4               	goto	l5418
  3168                           	line	427
  3169                           	
  3170  04D4                     l880:	
  3171                           	line	428
  3172                           	
  3173  04D4                     l5418:	
  3174                           ;PR28.c: 426: }
  3175                           ;PR28.c: 427: }
  3176                           ;PR28.c: 428: if(Buttons.BTN5 ==1){
  3177  04D4  0837               	movf	0+(_Buttons)+05h,w
  3178  04D5  3A01               	xorlw	01h
  3179  04D6  1D03               	skipz
  3180  04D7  2CD9               	goto	u8681
  3181  04D8  2CDA               	goto	u8680
  3182  04D9                     u8681:
  3183  04D9  2D14               	goto	l5440
  3184  04DA                     u8680:
  3185                           	line	429
  3186                           	
  3187  04DA                     l5420:	
  3188                           ;PR28.c: 429: if (matrix[1][2] =='X' | matrix[1][2] == 'O')
  3189  04DA  0840               	movf	0+(_matrix)+05h,w
  3190  04DB  3A58               	xorlw	058h
  3191  04DC  1903               	skipnz
  3192  04DD  2CDF               	goto	u8691
  3193  04DE  2CE0               	goto	u8690
  3194  04DF                     u8691:
  3195  04DF  2CE7               	goto	l5424
  3196  04E0                     u8690:
  3197                           	
  3198  04E0                     l5422:	
  3199  04E0  0840               	movf	0+(_matrix)+05h,w
  3200  04E1  3A4F               	xorlw	04Fh
  3201  04E2  1D03               	skipz
  3202  04E3  2CE5               	goto	u8701
  3203  04E4  2CE6               	goto	u8700
  3204  04E5                     u8701:
  3205  04E5  2CF7               	goto	l5430
  3206  04E6                     u8700:
  3207  04E6  2CE7               	goto	l5424
  3208                           	
  3209  04E7                     l892:	
  3210                           	line	430
  3211                           	
  3212  04E7                     l5424:	
  3213                           ;PR28.c: 430: { if(flag==0){flag = 0;}
  3214  04E7  08CF               	movf	(_flag),f
  3215  04E8  1D03               	skipz
  3216  04E9  2CEB               	goto	u8711
  3217  04EA  2CEC               	goto	u8710
  3218  04EB                     u8711:
  3219  04EB  2CF2               	goto	l5428
  3220  04EC                     u8710:
  3221                           	
  3222  04EC                     l5426:	
  3223  04EC  1003               	clrc
  3224  04ED  3000               	movlw	0
  3225  04EE  1803               	btfsc	status,0
  3226  04EF  3001               	movlw	1
  3227  04F0  00CF               	movwf	(_flag)
  3228  04F1  2D14               	goto	l5440
  3229                           	line	431
  3230                           	
  3231  04F2                     l893:	
  3232                           	line	432
  3233                           	
  3234  04F2                     l5428:	
  3235                           ;PR28.c: 431: else
  3236                           ;PR28.c: 432: flag = 1;
  3237  04F2  01CF               	clrf	(_flag)
  3238  04F3  1403               	bsf	status,0
  3239  04F4  0DCF               	rlf	(_flag),f
  3240  04F5  2D14               	goto	l5440
  3241                           	
  3242  04F6                     l894:	
  3243                           	line	433
  3244                           ;PR28.c: 433: }else {
  3245  04F6  2D14               	goto	l5440
  3246                           	
  3247  04F7                     l890:	
  3248                           	line	434
  3249                           	
  3250  04F7                     l5430:	
  3251                           ;PR28.c: 434: store();
  3252  04F7  120A  158A  2001   	fcall	_store
              120A  118A         
  3253                           	line	435
  3254                           	
  3255  04FC                     l5432:	
  3256                           ;PR28.c: 435: DisplayLEDs();
  3257  04FC  160A  118A  2315   	fcall	_DisplayLEDs
              120A  118A         
  3258                           	line	436
  3259                           	
  3260  0501                     l5434:	
  3261                           ;PR28.c: 436: if(flag ==0){flag = 1;}
  3262  0501  1283               	bcf	status, 5	;RP0=0, select bank0
  3263  0502  1303               	bcf	status, 6	;RP1=0, select bank0
  3264  0503  08CF               	movf	(_flag),f
  3265  0504  1D03               	skipz
  3266  0505  2D07               	goto	u8721
  3267  0506  2D08               	goto	u8720
  3268  0507                     u8721:
  3269  0507  2D0C               	goto	l5438
  3270  0508                     u8720:
  3271                           	
  3272  0508                     l5436:	
  3273  0508  01CF               	clrf	(_flag)
  3274  0509  1403               	bsf	status,0
  3275  050A  0DCF               	rlf	(_flag),f
  3276  050B  2D14               	goto	l5440
  3277                           	line	437
  3278                           	
  3279  050C                     l896:	
  3280                           	line	438
  3281                           	
  3282  050C                     l5438:	
  3283                           ;PR28.c: 437: else
  3284                           ;PR28.c: 438: flag = 0;
  3285  050C  1003               	clrc
  3286  050D  3000               	movlw	0
  3287  050E  1803               	btfsc	status,0
  3288  050F  3001               	movlw	1
  3289  0510  00CF               	movwf	(_flag)
  3290  0511  2D14               	goto	l5440
  3291                           	
  3292  0512                     l897:	
  3293  0512  2D14               	goto	l5440
  3294                           	line	439
  3295                           	
  3296  0513                     l895:	
  3297  0513  2D14               	goto	l5440
  3298                           	line	440
  3299                           	
  3300  0514                     l889:	
  3301                           	line	441
  3302                           	
  3303  0514                     l5440:	
  3304                           ;PR28.c: 439: }
  3305                           ;PR28.c: 440: }
  3306                           ;PR28.c: 441: if(Buttons.BTN6 ==1){
  3307  0514  0838               	movf	0+(_Buttons)+06h,w
  3308  0515  3A01               	xorlw	01h
  3309  0516  1D03               	skipz
  3310  0517  2D19               	goto	u8731
  3311  0518  2D1A               	goto	u8730
  3312  0519                     u8731:
  3313  0519  2D54               	goto	l5462
  3314  051A                     u8730:
  3315                           	line	442
  3316                           	
  3317  051A                     l5442:	
  3318                           ;PR28.c: 442: if (matrix[2][0] =='X' | matrix[2][0] == 'O')
  3319  051A  0841               	movf	0+(_matrix)+06h,w
  3320  051B  3A58               	xorlw	058h
  3321  051C  1903               	skipnz
  3322  051D  2D1F               	goto	u8741
  3323  051E  2D20               	goto	u8740
  3324  051F                     u8741:
  3325  051F  2D27               	goto	l5446
  3326  0520                     u8740:
  3327                           	
  3328  0520                     l5444:	
  3329  0520  0841               	movf	0+(_matrix)+06h,w
  3330  0521  3A4F               	xorlw	04Fh
  3331  0522  1D03               	skipz
  3332  0523  2D25               	goto	u8751
  3333  0524  2D26               	goto	u8750
  3334  0525                     u8751:
  3335  0525  2D37               	goto	l5452
  3336  0526                     u8750:
  3337  0526  2D27               	goto	l5446
  3338                           	
  3339  0527                     l901:	
  3340                           	line	443
  3341                           	
  3342  0527                     l5446:	
  3343                           ;PR28.c: 443: { if(flag==0){flag = 0;}
  3344  0527  08CF               	movf	(_flag),f
  3345  0528  1D03               	skipz
  3346  0529  2D2B               	goto	u8761
  3347  052A  2D2C               	goto	u8760
  3348  052B                     u8761:
  3349  052B  2D32               	goto	l5450
  3350  052C                     u8760:
  3351                           	
  3352  052C                     l5448:	
  3353  052C  1003               	clrc
  3354  052D  3000               	movlw	0
  3355  052E  1803               	btfsc	status,0
  3356  052F  3001               	movlw	1
  3357  0530  00CF               	movwf	(_flag)
  3358  0531  2D54               	goto	l5462
  3359                           	line	444
  3360                           	
  3361  0532                     l902:	
  3362                           	line	445
  3363                           	
  3364  0532                     l5450:	
  3365                           ;PR28.c: 444: else
  3366                           ;PR28.c: 445: flag = 1;
  3367  0532  01CF               	clrf	(_flag)
  3368  0533  1403               	bsf	status,0
  3369  0534  0DCF               	rlf	(_flag),f
  3370  0535  2D54               	goto	l5462
  3371                           	
  3372  0536                     l903:	
  3373                           	line	446
  3374                           ;PR28.c: 446: }else {
  3375  0536  2D54               	goto	l5462
  3376                           	
  3377  0537                     l899:	
  3378                           	line	447
  3379                           	
  3380  0537                     l5452:	
  3381                           ;PR28.c: 447: store();
  3382  0537  120A  158A  2001   	fcall	_store
              120A  118A         
  3383                           	line	448
  3384                           	
  3385  053C                     l5454:	
  3386                           ;PR28.c: 448: DisplayLEDs();
  3387  053C  160A  118A  2315   	fcall	_DisplayLEDs
              120A  118A         
  3388                           	line	449
  3389                           	
  3390  0541                     l5456:	
  3391                           ;PR28.c: 449: if(flag ==0){flag = 1;}
  3392  0541  1283               	bcf	status, 5	;RP0=0, select bank0
  3393  0542  1303               	bcf	status, 6	;RP1=0, select bank0
  3394  0543  08CF               	movf	(_flag),f
  3395  0544  1D03               	skipz
  3396  0545  2D47               	goto	u8771
  3397  0546  2D48               	goto	u8770
  3398  0547                     u8771:
  3399  0547  2D4C               	goto	l5460
  3400  0548                     u8770:
  3401                           	
  3402  0548                     l5458:	
  3403  0548  01CF               	clrf	(_flag)
  3404  0549  1403               	bsf	status,0
  3405  054A  0DCF               	rlf	(_flag),f
  3406  054B  2D54               	goto	l5462
  3407                           	line	450
  3408                           	
  3409  054C                     l905:	
  3410                           	line	451
  3411                           	
  3412  054C                     l5460:	
  3413                           ;PR28.c: 450: else
  3414                           ;PR28.c: 451: flag = 0;
  3415  054C  1003               	clrc
  3416  054D  3000               	movlw	0
  3417  054E  1803               	btfsc	status,0
  3418  054F  3001               	movlw	1
  3419  0550  00CF               	movwf	(_flag)
  3420  0551  2D54               	goto	l5462
  3421                           	
  3422  0552                     l906:	
  3423  0552  2D54               	goto	l5462
  3424                           	line	452
  3425                           	
  3426  0553                     l904:	
  3427  0553  2D54               	goto	l5462
  3428                           	line	453
  3429                           	
  3430  0554                     l898:	
  3431                           	line	454
  3432                           	
  3433  0554                     l5462:	
  3434                           ;PR28.c: 452: }
  3435                           ;PR28.c: 453: }
  3436                           ;PR28.c: 454: if(Buttons.BTN7 ==1){
  3437  0554  0839               	movf	0+(_Buttons)+07h,w
  3438  0555  3A01               	xorlw	01h
  3439  0556  1D03               	skipz
  3440  0557  2D59               	goto	u8781
  3441  0558  2D5A               	goto	u8780
  3442  0559                     u8781:
  3443  0559  2D94               	goto	l5484
  3444  055A                     u8780:
  3445                           	line	455
  3446                           	
  3447  055A                     l5464:	
  3448                           ;PR28.c: 455: if (matrix[2][1] =='X' | matrix[2][1] == 'O')
  3449  055A  0842               	movf	0+(_matrix)+07h,w
  3450  055B  3A58               	xorlw	058h
  3451  055C  1903               	skipnz
  3452  055D  2D5F               	goto	u8791
  3453  055E  2D60               	goto	u8790
  3454  055F                     u8791:
  3455  055F  2D67               	goto	l5468
  3456  0560                     u8790:
  3457                           	
  3458  0560                     l5466:	
  3459  0560  0842               	movf	0+(_matrix)+07h,w
  3460  0561  3A4F               	xorlw	04Fh
  3461  0562  1D03               	skipz
  3462  0563  2D65               	goto	u8801
  3463  0564  2D66               	goto	u8800
  3464  0565                     u8801:
  3465  0565  2D77               	goto	l5474
  3466  0566                     u8800:
  3467  0566  2D67               	goto	l5468
  3468                           	
  3469  0567                     l910:	
  3470                           	line	456
  3471                           	
  3472  0567                     l5468:	
  3473                           ;PR28.c: 456: { if(flag==0){flag = 0;}
  3474  0567  08CF               	movf	(_flag),f
  3475  0568  1D03               	skipz
  3476  0569  2D6B               	goto	u8811
  3477  056A  2D6C               	goto	u8810
  3478  056B                     u8811:
  3479  056B  2D72               	goto	l5472
  3480  056C                     u8810:
  3481                           	
  3482  056C                     l5470:	
  3483  056C  1003               	clrc
  3484  056D  3000               	movlw	0
  3485  056E  1803               	btfsc	status,0
  3486  056F  3001               	movlw	1
  3487  0570  00CF               	movwf	(_flag)
  3488  0571  2D94               	goto	l5484
  3489                           	line	457
  3490                           	
  3491  0572                     l911:	
  3492                           	line	458
  3493                           	
  3494  0572                     l5472:	
  3495                           ;PR28.c: 457: else
  3496                           ;PR28.c: 458: flag = 1;
  3497  0572  01CF               	clrf	(_flag)
  3498  0573  1403               	bsf	status,0
  3499  0574  0DCF               	rlf	(_flag),f
  3500  0575  2D94               	goto	l5484
  3501                           	
  3502  0576                     l912:	
  3503                           	line	459
  3504                           ;PR28.c: 459: }else {
  3505  0576  2D94               	goto	l5484
  3506                           	
  3507  0577                     l908:	
  3508                           	line	460
  3509                           	
  3510  0577                     l5474:	
  3511                           ;PR28.c: 460: store();
  3512  0577  120A  158A  2001   	fcall	_store
              120A  118A         
  3513                           	line	461
  3514                           	
  3515  057C                     l5476:	
  3516                           ;PR28.c: 461: DisplayLEDs();
  3517  057C  160A  118A  2315   	fcall	_DisplayLEDs
              120A  118A         
  3518                           	line	462
  3519                           	
  3520  0581                     l5478:	
  3521                           ;PR28.c: 462: if(flag ==0){flag = 1;}
  3522  0581  1283               	bcf	status, 5	;RP0=0, select bank0
  3523  0582  1303               	bcf	status, 6	;RP1=0, select bank0
  3524  0583  08CF               	movf	(_flag),f
  3525  0584  1D03               	skipz
  3526  0585  2D87               	goto	u8821
  3527  0586  2D88               	goto	u8820
  3528  0587                     u8821:
  3529  0587  2D8C               	goto	l5482
  3530  0588                     u8820:
  3531                           	
  3532  0588                     l5480:	
  3533  0588  01CF               	clrf	(_flag)
  3534  0589  1403               	bsf	status,0
  3535  058A  0DCF               	rlf	(_flag),f
  3536  058B  2D94               	goto	l5484
  3537                           	line	463
  3538                           	
  3539  058C                     l914:	
  3540                           	line	464
  3541                           	
  3542  058C                     l5482:	
  3543                           ;PR28.c: 463: else
  3544                           ;PR28.c: 464: flag = 0;
  3545  058C  1003               	clrc
  3546  058D  3000               	movlw	0
  3547  058E  1803               	btfsc	status,0
  3548  058F  3001               	movlw	1
  3549  0590  00CF               	movwf	(_flag)
  3550  0591  2D94               	goto	l5484
  3551                           	
  3552  0592                     l915:	
  3553  0592  2D94               	goto	l5484
  3554                           	line	465
  3555                           	
  3556  0593                     l913:	
  3557  0593  2D94               	goto	l5484
  3558                           	line	466
  3559                           	
  3560  0594                     l907:	
  3561                           	line	467
  3562                           	
  3563  0594                     l5484:	
  3564                           ;PR28.c: 465: }
  3565                           ;PR28.c: 466: }
  3566                           ;PR28.c: 467: if(Buttons.BTN8 ==1){
  3567  0594  083A               	movf	0+(_Buttons)+08h,w
  3568  0595  3A01               	xorlw	01h
  3569  0596  1D03               	skipz
  3570  0597  2D99               	goto	u8831
  3571  0598  2D9A               	goto	u8830
  3572  0599                     u8831:
  3573  0599  2DD4               	goto	l925
  3574  059A                     u8830:
  3575                           	line	468
  3576                           	
  3577  059A                     l5486:	
  3578                           ;PR28.c: 468: if (matrix[2][2] =='X' | matrix[2][2] == 'O')
  3579  059A  0843               	movf	0+(_matrix)+08h,w
  3580  059B  3A58               	xorlw	058h
  3581  059C  1903               	skipnz
  3582  059D  2D9F               	goto	u8841
  3583  059E  2DA0               	goto	u8840
  3584  059F                     u8841:
  3585  059F  2DA7               	goto	l5490
  3586  05A0                     u8840:
  3587                           	
  3588  05A0                     l5488:	
  3589  05A0  0843               	movf	0+(_matrix)+08h,w
  3590  05A1  3A4F               	xorlw	04Fh
  3591  05A2  1D03               	skipz
  3592  05A3  2DA5               	goto	u8851
  3593  05A4  2DA6               	goto	u8850
  3594  05A5                     u8851:
  3595  05A5  2DB7               	goto	l5496
  3596  05A6                     u8850:
  3597  05A6  2DA7               	goto	l5490
  3598                           	
  3599  05A7                     l919:	
  3600                           	line	469
  3601                           	
  3602  05A7                     l5490:	
  3603                           ;PR28.c: 469: { if(flag==0){flag = 0;}
  3604  05A7  08CF               	movf	(_flag),f
  3605  05A8  1D03               	skipz
  3606  05A9  2DAB               	goto	u8861
  3607  05AA  2DAC               	goto	u8860
  3608  05AB                     u8861:
  3609  05AB  2DB2               	goto	l5494
  3610  05AC                     u8860:
  3611                           	
  3612  05AC                     l5492:	
  3613  05AC  1003               	clrc
  3614  05AD  3000               	movlw	0
  3615  05AE  1803               	btfsc	status,0
  3616  05AF  3001               	movlw	1
  3617  05B0  00CF               	movwf	(_flag)
  3618  05B1  2DD4               	goto	l925
  3619                           	line	470
  3620                           	
  3621  05B2                     l920:	
  3622                           	line	471
  3623                           	
  3624  05B2                     l5494:	
  3625                           ;PR28.c: 470: else
  3626                           ;PR28.c: 471: flag = 1;
  3627  05B2  01CF               	clrf	(_flag)
  3628  05B3  1403               	bsf	status,0
  3629  05B4  0DCF               	rlf	(_flag),f
  3630  05B5  2DD4               	goto	l925
  3631                           	
  3632  05B6                     l921:	
  3633                           	line	472
  3634                           ;PR28.c: 472: }else {
  3635  05B6  2DD4               	goto	l925
  3636                           	
  3637  05B7                     l917:	
  3638                           	line	473
  3639                           	
  3640  05B7                     l5496:	
  3641                           ;PR28.c: 473: store();
  3642  05B7  120A  158A  2001   	fcall	_store
              120A  118A         
  3643                           	line	474
  3644                           	
  3645  05BC                     l5498:	
  3646                           ;PR28.c: 474: DisplayLEDs();
  3647  05BC  160A  118A  2315   	fcall	_DisplayLEDs
              120A  118A         
  3648                           	line	475
  3649                           	
  3650  05C1                     l5500:	
  3651                           ;PR28.c: 475: if(flag ==0){flag = 1;}
  3652  05C1  1283               	bcf	status, 5	;RP0=0, select bank0
  3653  05C2  1303               	bcf	status, 6	;RP1=0, select bank0
  3654  05C3  08CF               	movf	(_flag),f
  3655  05C4  1D03               	skipz
  3656  05C5  2DC7               	goto	u8871
  3657  05C6  2DC8               	goto	u8870
  3658  05C7                     u8871:
  3659  05C7  2DCC               	goto	l5504
  3660  05C8                     u8870:
  3661                           	
  3662  05C8                     l5502:	
  3663  05C8  01CF               	clrf	(_flag)
  3664  05C9  1403               	bsf	status,0
  3665  05CA  0DCF               	rlf	(_flag),f
  3666  05CB  2DD4               	goto	l925
  3667                           	line	476
  3668                           	
  3669  05CC                     l923:	
  3670                           	line	477
  3671                           	
  3672  05CC                     l5504:	
  3673                           ;PR28.c: 476: else
  3674                           ;PR28.c: 477: flag = 0;
  3675  05CC  1003               	clrc
  3676  05CD  3000               	movlw	0
  3677  05CE  1803               	btfsc	status,0
  3678  05CF  3001               	movlw	1
  3679  05D0  00CF               	movwf	(_flag)
  3680  05D1  2DD4               	goto	l925
  3681                           	
  3682  05D2                     l924:	
  3683  05D2  2DD4               	goto	l925
  3684                           	line	478
  3685                           	
  3686  05D3                     l922:	
  3687  05D3  2DD4               	goto	l925
  3688                           	line	479
  3689                           	
  3690  05D4                     l916:	
  3691                           	line	480
  3692                           	
  3693  05D4                     l925:	
  3694  05D4  0008               	return
  3695                           	opt stack 0
  3696                           GLOBAL	__end_of_checkstatus
  3697  05D5                     	__end_of_checkstatus:
  3698 ;; =============== function _checkstatus ends ============
  3699                           
  3700                           	signat	_checkstatus,88
  3701                           	global	_draw
  3702                           psect	text702,local,class=CODE,delta=2
  3703                           global __ptext702
  3704  1F10                     __ptext702:
  3705                           
  3706 ;; *************** function _draw *****************
  3707 ;; Defined at:
  3708 ;;		line 914 in file "C:\Users\Phang\Desktop\9.80\PR 28\PR28.c"
  3709 ;; Parameters:    Size  Location     Type
  3710 ;;		None
  3711 ;; Auto vars:     Size  Location     Type
  3712 ;;		None
  3713 ;; Return value:  Size  Location     Type
  3714 ;;		None               void
  3715 ;; Registers used:
  3716 ;;		wreg, status,2, status,0, pclath, cstack
  3717 ;; Tracked objects:
  3718 ;;		On entry : 0/0
  3719 ;;		On exit  : 0/0
  3720 ;;		Unchanged: 0/0
  3721 ;; Data sizes:     COMMON   BANK0   BANK1   BANK3   BANK2
  3722 ;;      Params:         0       0       0       0       0
  3723 ;;      Locals:         0       0       0       0       0
  3724 ;;      Temps:          0       1       0       0       0
  3725 ;;      Totals:         0       1       0       0       0
  3726 ;;Total ram usage:        1 bytes
  3727 ;; Hardware stack levels used:    1
  3728 ;; Hardware stack levels required when called:    5
  3729 ;; This function calls:
  3730 ;;		_led_display1
  3731 ;;		_led_display2
  3732 ;;		_led_display3
  3733 ;;		_delay
  3734 ;;		_led_off
  3735 ;; This function is called by:
  3736 ;;		_main
  3737 ;; This function uses a non-reentrant model
  3738 ;;
  3739                           psect	text702
  3740                           	file	"C:\Users\Phang\Desktop\9.80\PR 28\PR28.c"
  3741                           	line	914
  3742                           	global	__size_of_draw
  3743  006A                     	__size_of_draw	equ	__end_of_draw-_draw
  3744                           	
  3745  1F10                     _draw:	
  3746                           	opt	stack 2
  3747                           ; Regs used in _draw: [wreg+status,2+status,0+pclath+cstack]
  3748                           	line	916
  3749                           	
  3750  1F10                     l5290:	
  3751                           ;PR28.c: 916: RC5 = RC6 = RC7 = 1;
  3752  1F10  1283               	bcf	status, 5	;RP0=0, select bank0
  3753  1F11  1303               	bcf	status, 6	;RP1=0, select bank0
  3754  1F12  1787               	bsf	(63/8),(63)&7
  3755  1F13  1B87               	btfsc	(63/8),(63)&7
  3756  1F14  2F16               	goto	u8371
  3757  1F15  2F1A               	goto	u8370
  3758                           	
  3759  1F16                     u8371:
  3760  1F16  1283               	bcf	status, 5	;RP0=0, select bank0
  3761  1F17  1303               	bcf	status, 6	;RP1=0, select bank0
  3762  1F18  1707               	bsf	(62/8),(62)&7
  3763  1F19  2F1D               	goto	u8384
  3764  1F1A                     u8370:
  3765  1F1A  1283               	bcf	status, 5	;RP0=0, select bank0
  3766  1F1B  1303               	bcf	status, 6	;RP1=0, select bank0
  3767  1F1C  1307               	bcf	(62/8),(62)&7
  3768  1F1D                     u8384:
  3769  1F1D  1B07               	btfsc	(62/8),(62)&7
  3770  1F1E  2F20               	goto	u8381
  3771  1F1F  2F24               	goto	u8380
  3772                           	
  3773  1F20                     u8381:
  3774  1F20  1283               	bcf	status, 5	;RP0=0, select bank0
  3775  1F21  1303               	bcf	status, 6	;RP1=0, select bank0
  3776  1F22  1687               	bsf	(61/8),(61)&7
  3777  1F23  2F27               	goto	u8394
  3778  1F24                     u8380:
  3779  1F24  1283               	bcf	status, 5	;RP0=0, select bank0
  3780  1F25  1303               	bcf	status, 6	;RP1=0, select bank0
  3781  1F26  1287               	bcf	(61/8),(61)&7
  3782  1F27                     u8394:
  3783                           	line	917
  3784                           	
  3785  1F27                     l5292:	
  3786                           ;PR28.c: 917: result = 0b00100100;
  3787  1F27  3024               	movlw	(024h)
  3788  1F28  00DA               	movwf	(??_draw+0)+0
  3789  1F29  085A               	movf	(??_draw+0)+0,w
  3790  1F2A  00D1               	movwf	(_result)
  3791                           	line	918
  3792                           	
  3793  1F2B                     l5294:	
  3794                           ;PR28.c: 918: RA6 = RA7 = RA0 = 1;
  3795  1F2B  1405               	bsf	(40/8),(40)&7
  3796  1F2C  1805               	btfsc	(40/8),(40)&7
  3797  1F2D  2F2F               	goto	u8401
  3798  1F2E  2F33               	goto	u8400
  3799                           	
  3800  1F2F                     u8401:
  3801  1F2F  1283               	bcf	status, 5	;RP0=0, select bank0
  3802  1F30  1303               	bcf	status, 6	;RP1=0, select bank0
  3803  1F31  1785               	bsf	(47/8),(47)&7
  3804  1F32  2F36               	goto	u8414
  3805  1F33                     u8400:
  3806  1F33  1283               	bcf	status, 5	;RP0=0, select bank0
  3807  1F34  1303               	bcf	status, 6	;RP1=0, select bank0
  3808  1F35  1385               	bcf	(47/8),(47)&7
  3809  1F36                     u8414:
  3810  1F36  1B85               	btfsc	(47/8),(47)&7
  3811  1F37  2F39               	goto	u8411
  3812  1F38  2F3D               	goto	u8410
  3813                           	
  3814  1F39                     u8411:
  3815  1F39  1283               	bcf	status, 5	;RP0=0, select bank0
  3816  1F3A  1303               	bcf	status, 6	;RP1=0, select bank0
  3817  1F3B  1705               	bsf	(46/8),(46)&7
  3818  1F3C  2F40               	goto	u8424
  3819  1F3D                     u8410:
  3820  1F3D  1283               	bcf	status, 5	;RP0=0, select bank0
  3821  1F3E  1303               	bcf	status, 6	;RP1=0, select bank0
  3822  1F3F  1305               	bcf	(46/8),(46)&7
  3823  1F40                     u8424:
  3824                           	line	919
  3825                           	
  3826  1F40                     l5296:	
  3827                           ;PR28.c: 919: led_display1(result);
  3828  1F40  0851               	movf	(_result),w
  3829  1F41  160A  158A  277A   	fcall	_led_display1
              160A  158A         
  3830                           	line	920
  3831                           	
  3832  1F46                     l5298:	
  3833                           ;PR28.c: 920: led_display2(result);
  3834  1F46  1283               	bcf	status, 5	;RP0=0, select bank0
  3835  1F47  1303               	bcf	status, 6	;RP1=0, select bank0
  3836  1F48  0851               	movf	(_result),w
  3837  1F49  160A  118A  2079   	fcall	_led_display2
              160A  158A         
  3838                           	line	921
  3839                           	
  3840  1F4E                     l5300:	
  3841                           ;PR28.c: 921: led_display3(result);
  3842  1F4E  1283               	bcf	status, 5	;RP0=0, select bank0
  3843  1F4F  1303               	bcf	status, 6	;RP1=0, select bank0
  3844  1F50  0851               	movf	(_result),w
  3845  1F51  160A  118A  20FF   	fcall	_led_display3
              160A  158A         
  3846                           	line	922
  3847                           	
  3848  1F56                     l5302:	
  3849                           ;PR28.c: 922: delay(3500);
  3850  1F56  3000               	movlw	0
  3851  1F57  1283               	bcf	status, 5	;RP0=0, select bank0
  3852  1F58  1303               	bcf	status, 6	;RP1=0, select bank0
  3853  1F59  00D5               	movwf	(?_delay+3)
  3854  1F5A  3000               	movlw	0
  3855  1F5B  00D4               	movwf	(?_delay+2)
  3856  1F5C  300D               	movlw	0Dh
  3857  1F5D  00D3               	movwf	(?_delay+1)
  3858  1F5E  30AC               	movlw	0ACh
  3859  1F5F  00D2               	movwf	(?_delay)
  3860                           
  3861  1F60  160A  158A  26DE   	fcall	_delay
              160A  158A         
  3862                           	line	923
  3863                           	
  3864  1F65                     l5304:	
  3865                           ;PR28.c: 923: led_off();
  3866  1F65  160A  158A  2690   	fcall	_led_off
              160A  158A         
  3867                           	line	924
  3868                           	
  3869  1F6A                     l5306:	
  3870                           ;PR28.c: 924: delay(3500);
  3871  1F6A  3000               	movlw	0
  3872  1F6B  1283               	bcf	status, 5	;RP0=0, select bank0
  3873  1F6C  1303               	bcf	status, 6	;RP1=0, select bank0
  3874  1F6D  00D5               	movwf	(?_delay+3)
  3875  1F6E  3000               	movlw	0
  3876  1F6F  00D4               	movwf	(?_delay+2)
  3877  1F70  300D               	movlw	0Dh
  3878  1F71  00D3               	movwf	(?_delay+1)
  3879  1F72  30AC               	movlw	0ACh
  3880  1F73  00D2               	movwf	(?_delay)
  3881                           
  3882  1F74  160A  158A  26DE   	fcall	_delay
              160A  158A         
  3883                           	line	925
  3884                           	
  3885  1F79                     l1180:	
  3886  1F79  0008               	return
  3887                           	opt stack 0
  3888                           GLOBAL	__end_of_draw
  3889  1F7A                     	__end_of_draw:
  3890 ;; =============== function _draw ends ============
  3891                           
  3892                           	signat	_draw,88
  3893                           	global	_send_config
  3894                           psect	text703,local,class=CODE,delta=2
  3895                           global __ptext703
  3896  1DC7                     __ptext703:
  3897                           
  3898 ;; *************** function _send_config *****************
  3899 ;; Defined at:
  3900 ;;		line 831 in file "C:\Users\Phang\Desktop\9.80\PR 28\PR28.c"
  3901 ;; Parameters:    Size  Location     Type
  3902 ;;  data            1    wreg     unsigned char 
  3903 ;; Auto vars:     Size  Location     Type
  3904 ;;  data            1    8[BANK0 ] unsigned char 
  3905 ;; Return value:  Size  Location     Type
  3906 ;;		None               void
  3907 ;; Registers used:
  3908 ;;		wreg, status,2, status,0, pclath, cstack
  3909 ;; Tracked objects:
  3910 ;;		On entry : 0/0
  3911 ;;		On exit  : 0/0
  3912 ;;		Unchanged: 0/0
  3913 ;; Data sizes:     COMMON   BANK0   BANK1   BANK3   BANK2
  3914 ;;      Params:         0       0       0       0       0
  3915 ;;      Locals:         0       1       0       0       0
  3916 ;;      Temps:          0       0       0       0       0
  3917 ;;      Totals:         0       1       0       0       0
  3918 ;;Total ram usage:        1 bytes
  3919 ;; Hardware stack levels used:    1
  3920 ;; Hardware stack levels required when called:    5
  3921 ;; This function calls:
  3922 ;;		_delay
  3923 ;;		_e_pulse
  3924 ;; This function is called by:
  3925 ;;		_main
  3926 ;;		_lcd_goto
  3927 ;;		_lcd_shift
  3928 ;;		_lcd_clr
  3929 ;; This function uses a non-reentrant model
  3930 ;;
  3931                           psect	text703
  3932                           	file	"C:\Users\Phang\Desktop\9.80\PR 28\PR28.c"
  3933                           	line	831
  3934                           	global	__size_of_send_config
  3935  0019                     	__size_of_send_config	equ	__end_of_send_config-_send_config
  3936                           	
  3937  1DC7                     _send_config:	
  3938                           	opt	stack 1
  3939                           ; Regs used in _send_config: [wreg+status,2+status,0+pclath+cstack]
  3940                           ;send_config@data stored from wreg
  3941  1DC7  1283               	bcf	status, 5	;RP0=0, select bank0
  3942  1DC8  1303               	bcf	status, 6	;RP1=0, select bank0
  3943  1DC9  00DA               	movwf	(send_config@data)
  3944                           	line	832
  3945                           	
  3946  1DCA                     l5282:	
  3947                           ;PR28.c: 832: RE0=0;
  3948  1DCA  1009               	bcf	(72/8),(72)&7
  3949                           	line	833
  3950                           	
  3951  1DCB                     l5284:	
  3952                           ;PR28.c: 833: PORTB=data;
  3953  1DCB  085A               	movf	(send_config@data),w
  3954  1DCC  0086               	movwf	(6)	;volatile
  3955                           	line	834
  3956                           	
  3957  1DCD                     l5286:	
  3958                           ;PR28.c: 834: delay(50);
  3959  1DCD  3000               	movlw	0
  3960  1DCE  00D5               	movwf	(?_delay+3)
  3961  1DCF  3000               	movlw	0
  3962  1DD0  00D4               	movwf	(?_delay+2)
  3963  1DD1  3000               	movlw	0
  3964  1DD2  00D3               	movwf	(?_delay+1)
  3965  1DD3  3032               	movlw	032h
  3966  1DD4  00D2               	movwf	(?_delay)
  3967                           
  3968  1DD5  160A  158A  26DE   	fcall	_delay
              160A  158A         
  3969                           	line	835
  3970                           	
  3971  1DDA                     l5288:	
  3972                           ;PR28.c: 835: e_pulse();
  3973  1DDA  160A  158A  264E   	fcall	_e_pulse
              160A  158A         
  3974                           	line	836
  3975                           	
  3976  1DDF                     l1152:	
  3977  1DDF  0008               	return
  3978                           	opt stack 0
  3979                           GLOBAL	__end_of_send_config
  3980  1DE0                     	__end_of_send_config:
  3981 ;; =============== function _send_config ends ============
  3982                           
  3983                           	signat	_send_config,4216
  3984                           	global	_Init
  3985                           psect	text704,local,class=CODE,delta=2
  3986                           global __ptext704
  3987  07A7                     __ptext704:
  3988                           
  3989 ;; *************** function _Init *****************
  3990 ;; Defined at:
  3991 ;;		line 177 in file "C:\Users\Phang\Desktop\9.80\PR 28\PR28.c"
  3992 ;; Parameters:    Size  Location     Type
  3993 ;;		None
  3994 ;; Auto vars:     Size  Location     Type
  3995 ;;		None
  3996 ;; Return value:  Size  Location     Type
  3997 ;;		None               void
  3998 ;; Registers used:
  3999 ;;		wreg, fsr0l, fsr0h, status,2, status,0, btemp+1, pclath, cstack
  4000 ;; Tracked objects:
  4001 ;;		On entry : 0/0
  4002 ;;		On exit  : 0/0
  4003 ;;		Unchanged: 0/0
  4004 ;; Data sizes:     COMMON   BANK0   BANK1   BANK3   BANK2
  4005 ;;      Params:         0       0       0       0       0
  4006 ;;      Locals:         0       0       0       0       0
  4007 ;;      Temps:          0       1       0       0       0
  4008 ;;      Totals:         0       1       0       0       0
  4009 ;;Total ram usage:        1 bytes
  4010 ;; Hardware stack levels used:    1
  4011 ;; Hardware stack levels required when called:    5
  4012 ;; This function calls:
  4013 ;;		_led_off
  4014 ;;		_CapInit
  4015 ;;		_winlose
  4016 ;; This function is called by:
  4017 ;;		_main
  4018 ;; This function uses a non-reentrant model
  4019 ;;
  4020                           psect	text704
  4021                           	file	"C:\Users\Phang\Desktop\9.80\PR 28\PR28.c"
  4022                           	line	177
  4023                           	global	__size_of_Init
  4024  0047                     	__size_of_Init	equ	__end_of_Init-_Init
  4025                           	
  4026  07A7                     _Init:	
  4027                           	opt	stack 2
  4028                           ; Regs used in _Init: [wreg-fsr0h+status,2+status,0+btemp+1+pclath+cstack]
  4029                           	line	192
  4030                           	
  4031  07A7                     l5240:	
  4032                           ;PR28.c: 192: TRISA = 0b00010000;
  4033  07A7  3010               	movlw	(010h)
  4034  07A8  1683               	bsf	status, 5	;RP0=1, select bank1
  4035  07A9  1303               	bcf	status, 6	;RP1=0, select bank1
  4036  07AA  0085               	movwf	(133)^080h	;volatile
  4037                           	line	193
  4038                           	
  4039  07AB                     l5242:	
  4040                           ;PR28.c: 193: TRISB = 0b00000000;
  4041  07AB  0186               	clrf	(134)^080h	;volatile
  4042                           	line	194
  4043                           	
  4044  07AC                     l5244:	
  4045                           ;PR28.c: 194: TRISC = 0b00000000;
  4046  07AC  0187               	clrf	(135)^080h	;volatile
  4047                           	line	195
  4048                           ;PR28.c: 195: TRISD = 0b11111111;
  4049  07AD  30FF               	movlw	(0FFh)
  4050  07AE  0088               	movwf	(136)^080h	;volatile
  4051                           	line	196
  4052                           	
  4053  07AF                     l5246:	
  4054                           ;PR28.c: 196: TRISE = 0b00000000;
  4055  07AF  0189               	clrf	(137)^080h	;volatile
  4056                           	line	197
  4057                           	
  4058  07B0                     l5248:	
  4059                           ;PR28.c: 197: PORTB = 0;
  4060  07B0  1283               	bcf	status, 5	;RP0=0, select bank0
  4061  07B1  1303               	bcf	status, 6	;RP1=0, select bank0
  4062  07B2  0186               	clrf	(6)	;volatile
  4063                           	line	198
  4064                           	
  4065  07B3                     l5250:	
  4066                           ;PR28.c: 198: PORTE = 0;
  4067  07B3  0189               	clrf	(9)	;volatile
  4068                           	line	200
  4069                           	
  4070  07B4                     l5252:	
  4071                           ;PR28.c: 200: led_off();
  4072  07B4  160A  158A  2690   	fcall	_led_off
              120A  118A         
  4073                           	line	202
  4074                           	
  4075  07B9                     l5254:	
  4076                           ;PR28.c: 202: ANSELA = 0x10;
  4077  07B9  3010               	movlw	(010h)
  4078  07BA  1683               	bsf	status, 5	;RP0=1, select bank3
  4079  07BB  1703               	bsf	status, 6	;RP1=1, select bank3
  4080  07BC  0085               	movwf	(389)^0180h	;volatile
  4081                           	line	203
  4082                           	
  4083  07BD                     l5256:	
  4084                           ;PR28.c: 203: ANSELB = 0x00;
  4085  07BD  0186               	clrf	(390)^0180h	;volatile
  4086                           	line	204
  4087                           	
  4088  07BE                     l5258:	
  4089                           ;PR28.c: 204: ANSELE = 0x00;
  4090  07BE  0189               	clrf	(393)^0180h	;volatile
  4091                           	line	205
  4092                           	
  4093  07BF                     l5260:	
  4094                           ;PR28.c: 205: ANSELD = 0b11111111;
  4095  07BF  30FF               	movlw	(0FFh)
  4096  07C0  0088               	movwf	(392)^0180h	;volatile
  4097                           	line	207
  4098                           	
  4099  07C1                     l5262:	
  4100                           ;PR28.c: 207: result = 0;
  4101  07C1  1003               	clrc
  4102  07C2  3000               	movlw	0
  4103  07C3  1803               	btfsc	status,0
  4104  07C4  3001               	movlw	1
  4105  07C5  1283               	bcf	status, 5	;RP0=0, select bank0
  4106  07C6  1303               	bcf	status, 6	;RP1=0, select bank0
  4107  07C7  00D1               	movwf	(_result)
  4108                           	line	208
  4109                           	
  4110  07C8                     l5264:	
  4111                           ;PR28.c: 208: flag = 0;
  4112  07C8  1003               	clrc
  4113  07C9  3000               	movlw	0
  4114  07CA  1803               	btfsc	status,0
  4115  07CB  3001               	movlw	1
  4116  07CC  00CF               	movwf	(_flag)
  4117                           	line	209
  4118                           	
  4119  07CD                     l5266:	
  4120                           ;PR28.c: 209: index =0;
  4121  07CD  1003               	clrc
  4122  07CE  3000               	movlw	0
  4123  07CF  1803               	btfsc	status,0
  4124  07D0  3001               	movlw	1
  4125  07D1  00D0               	movwf	(_index)
  4126                           	line	210
  4127                           	
  4128  07D2                     l5268:	
  4129                           ;PR28.c: 210: OSCCON = 0x10;
  4130  07D2  3010               	movlw	(010h)
  4131  07D3  1683               	bsf	status, 5	;RP0=1, select bank1
  4132  07D4  1303               	bcf	status, 6	;RP1=0, select bank1
  4133  07D5  0090               	movwf	(144)^080h	;volatile
  4134                           	line	219
  4135                           	
  4136  07D6                     l5270:	
  4137                           ;PR28.c: 219: GIE = 1;
  4138  07D6  178B               	bsf	(95/8),(95)&7
  4139                           	line	220
  4140                           	
  4141  07D7                     l5272:	
  4142                           ;PR28.c: 220: CPSCON0 = 0b10001101;
  4143  07D7  308D               	movlw	(08Dh)
  4144  07D8  1283               	bcf	status, 5	;RP0=0, select bank2
  4145  07D9  1703               	bsf	status, 6	;RP1=1, select bank2
  4146  07DA  0088               	movwf	(264)^0100h	;volatile
  4147                           	line	221
  4148                           	
  4149  07DB                     l5274:	
  4150                           ;PR28.c: 221: CPSCON1 = 0b00001000;
  4151  07DB  3008               	movlw	(08h)
  4152  07DC  0089               	movwf	(265)^0100h	;volatile
  4153                           	line	222
  4154                           	
  4155  07DD                     l5276:	
  4156                           ;PR28.c: 222: CapInit();
  4157  07DD  160A  118A  2185   	fcall	_CapInit
              120A  118A         
  4158                           	line	223
  4159                           	
  4160  07E2                     l5278:	
  4161                           ;PR28.c: 223: data = winlose();
  4162  07E2  160A  118A  269F   	fcall	_winlose
              120A  118A         
  4163  07E7  1283               	bcf	status, 5	;RP0=0, select bank0
  4164  07E8  1303               	bcf	status, 6	;RP1=0, select bank0
  4165  07E9  00E3               	movwf	(??_Init+0)+0
  4166  07EA  0863               	movf	(??_Init+0)+0,w
  4167  07EB  00CE               	movwf	(_data)
  4168                           	line	224
  4169                           	
  4170  07EC                     l5280:	
  4171                           ;PR28.c: 224: PEIE = 1;
  4172  07EC  170B               	bsf	(94/8),(94)&7
  4173                           	line	225
  4174                           	
  4175  07ED                     l782:	
  4176  07ED  0008               	return
  4177                           	opt stack 0
  4178                           GLOBAL	__end_of_Init
  4179  07EE                     	__end_of_Init:
  4180 ;; =============== function _Init ends ============
  4181                           
  4182                           	signat	_Init,88
  4183                           	global	_e_pulse
  4184                           psect	text705,local,class=CODE,delta=2
  4185                           global __ptext705
  4186  1E4E                     __ptext705:
  4187                           
  4188 ;; *************** function _e_pulse *****************
  4189 ;; Defined at:
  4190 ;;		line 855 in file "C:\Users\Phang\Desktop\9.80\PR 28\PR28.c"
  4191 ;; Parameters:    Size  Location     Type
  4192 ;;		None
  4193 ;; Auto vars:     Size  Location     Type
  4194 ;;		None
  4195 ;; Return value:  Size  Location     Type
  4196 ;;		None               void
  4197 ;; Registers used:
  4198 ;;		wreg, status,2, status,0, pclath, cstack
  4199 ;; Tracked objects:
  4200 ;;		On entry : 0/0
  4201 ;;		On exit  : 0/0
  4202 ;;		Unchanged: 0/0
  4203 ;; Data sizes:     COMMON   BANK0   BANK1   BANK3   BANK2
  4204 ;;      Params:         0       0       0       0       0
  4205 ;;      Locals:         0       0       0       0       0
  4206 ;;      Temps:          0       0       0       0       0
  4207 ;;      Totals:         0       0       0       0       0
  4208 ;;Total ram usage:        0 bytes
  4209 ;; Hardware stack levels used:    1
  4210 ;; Hardware stack levels required when called:    4
  4211 ;; This function calls:
  4212 ;;		_delay
  4213 ;; This function is called by:
  4214 ;;		_send_config
  4215 ;;		_send_char
  4216 ;; This function uses a non-reentrant model
  4217 ;;
  4218                           psect	text705
  4219                           	file	"C:\Users\Phang\Desktop\9.80\PR 28\PR28.c"
  4220                           	line	855
  4221                           	global	__size_of_e_pulse
  4222  0021                     	__size_of_e_pulse	equ	__end_of_e_pulse-_e_pulse
  4223                           	
  4224  1E4E                     _e_pulse:	
  4225                           	opt	stack 1
  4226                           ; Regs used in _e_pulse: [wreg+status,2+status,0+pclath+cstack]
  4227                           	line	856
  4228                           	
  4229  1E4E                     l5234:	
  4230                           ;PR28.c: 856: RE1=1;
  4231  1E4E  1283               	bcf	status, 5	;RP0=0, select bank0
  4232  1E4F  1303               	bcf	status, 6	;RP1=0, select bank0
  4233  1E50  1489               	bsf	(73/8),(73)&7
  4234                           	line	857
  4235                           	
  4236  1E51                     l5236:	
  4237                           ;PR28.c: 857: delay(50);
  4238  1E51  3000               	movlw	0
  4239  1E52  00D5               	movwf	(?_delay+3)
  4240  1E53  3000               	movlw	0
  4241  1E54  00D4               	movwf	(?_delay+2)
  4242  1E55  3000               	movlw	0
  4243  1E56  00D3               	movwf	(?_delay+1)
  4244  1E57  3032               	movlw	032h
  4245  1E58  00D2               	movwf	(?_delay)
  4246                           
  4247  1E59  160A  158A  26DE   	fcall	_delay
              160A  158A         
  4248                           	line	858
  4249                           	
  4250  1E5E                     l5238:	
  4251                           ;PR28.c: 858: RE1=0;
  4252  1E5E  1283               	bcf	status, 5	;RP0=0, select bank0
  4253  1E5F  1303               	bcf	status, 6	;RP1=0, select bank0
  4254  1E60  1089               	bcf	(73/8),(73)&7
  4255                           	line	859
  4256                           ;PR28.c: 859: delay(50);
  4257  1E61  3000               	movlw	0
  4258  1E62  00D5               	movwf	(?_delay+3)
  4259  1E63  3000               	movlw	0
  4260  1E64  00D4               	movwf	(?_delay+2)
  4261  1E65  3000               	movlw	0
  4262  1E66  00D3               	movwf	(?_delay+1)
  4263  1E67  3032               	movlw	032h
  4264  1E68  00D2               	movwf	(?_delay)
  4265                           
  4266  1E69  160A  158A  26DE   	fcall	_delay
              160A  158A         
  4267                           	line	860
  4268                           	
  4269  1E6E                     l1158:	
  4270  1E6E  0008               	return
  4271                           	opt stack 0
  4272                           GLOBAL	__end_of_e_pulse
  4273  1E6F                     	__end_of_e_pulse:
  4274 ;; =============== function _e_pulse ends ============
  4275                           
  4276                           	signat	_e_pulse,88
  4277                           	global	_DisplayLEDs
  4278                           psect	text706,local,class=CODE,delta=2
  4279                           global __ptext706
  4280  1315                     __ptext706:
  4281                           
  4282 ;; *************** function _DisplayLEDs *****************
  4283 ;; Defined at:
  4284 ;;		line 591 in file "C:\Users\Phang\Desktop\9.80\PR 28\PR28.c"
  4285 ;; Parameters:    Size  Location     Type
  4286 ;;		None
  4287 ;; Auto vars:     Size  Location     Type
  4288 ;;  k               2    3[BANK0 ] int 
  4289 ;; Return value:  Size  Location     Type
  4290 ;;		None               void
  4291 ;; Registers used:
  4292 ;;		wreg, fsr0l, fsr0h, status,2, status,0, btemp+1, pclath, cstack
  4293 ;; Tracked objects:
  4294 ;;		On entry : 0/0
  4295 ;;		On exit  : 0/0
  4296 ;;		Unchanged: 0/0
  4297 ;; Data sizes:     COMMON   BANK0   BANK1   BANK3   BANK2
  4298 ;;      Params:         0       0       0       0       0
  4299 ;;      Locals:         0       2       0       0       0
  4300 ;;      Temps:          0       1       0       0       0
  4301 ;;      Totals:         0       3       0       0       0
  4302 ;;Total ram usage:        3 bytes
  4303 ;; Hardware stack levels used:    1
  4304 ;; Hardware stack levels required when called:    4
  4305 ;; This function calls:
  4306 ;;		_led_display1
  4307 ;;		_led_display2
  4308 ;;		_led_display3
  4309 ;; This function is called by:
  4310 ;;		_checkstatus
  4311 ;; This function uses a non-reentrant model
  4312 ;;
  4313                           psect	text706
  4314                           	file	"C:\Users\Phang\Desktop\9.80\PR 28\PR28.c"
  4315                           	line	591
  4316                           	global	__size_of_DisplayLEDs
  4317  FCEB                     	__size_of_DisplayLEDs	equ	__end_of_DisplayLEDs-_DisplayLEDs
  4318                           	
  4319  1315                     _DisplayLEDs:	
  4320                           	opt	stack 0
  4321                           ; Regs used in _DisplayLEDs: [wreg-fsr0h+status,2+status,0+btemp+1+pclath+cstack]
  4322                           	line	592
  4323                           	
  4324  1315                     l4766:	
  4325                           ;PR28.c: 592: RC5 = 1; RC6 =1; RC7 =1;
  4326  1315  1283               	bcf	status, 5	;RP0=0, select bank0
  4327  1316  1303               	bcf	status, 6	;RP1=0, select bank0
  4328  1317  1687               	bsf	(61/8),(61)&7
  4329  1318  1707               	bsf	(62/8),(62)&7
  4330  1319  1787               	bsf	(63/8),(63)&7
  4331                           	line	593
  4332                           ;PR28.c: 593: RA6 = RA7 = RA0 = 0;
  4333  131A  1005               	bcf	(40/8),(40)&7
  4334  131B  1385               	bcf	(47/8),(47)&7
  4335  131C  1305               	bcf	(46/8),(46)&7
  4336                           	line	596
  4337                           	
  4338  131D                     l4768:	
  4339                           ;PR28.c: 596: for(int k = 0; k< 3 ; k++)
  4340  131D  3000               	movlw	low(0)
  4341  131E  00D5               	movwf	(DisplayLEDs@k)
  4342  131F  3000               	movlw	high(0)
  4343  1320  00D6               	movwf	((DisplayLEDs@k))+1
  4344                           	
  4345  1321                     l4770:	
  4346  1321  0856               	movf	(DisplayLEDs@k+1),w
  4347  1322  3A80               	xorlw	80h
  4348  1323  00FF               	movwf	btemp+1
  4349  1324  3080               	movlw	(high(03h))^80h
  4350  1325  027F               	subwf	btemp+1,w
  4351  1326  1D03               	skipz
  4352  1327  2B2A               	goto	u6675
  4353  1328  3003               	movlw	low(03h)
  4354  1329  0255               	subwf	(DisplayLEDs@k),w
  4355  132A                     u6675:
  4356                           
  4357  132A  1C03               	skipc
  4358  132B  2B2D               	goto	u6671
  4359  132C  2B2E               	goto	u6670
  4360  132D                     u6671:
  4361  132D  2B32               	goto	l4774
  4362  132E                     u6670:
  4363  132E  120A  158A  2FFF   	goto	l1087
  4364                           	
  4365  1331                     l4772:	
  4366  1331  2B2E               	goto	l1087
  4367                           	line	597
  4368                           	
  4369  1332                     l974:	
  4370                           	line	598
  4371                           	
  4372  1332                     l4774:	
  4373                           ;PR28.c: 597: {
  4374                           ;PR28.c: 598: led_display1(result1[0]);led_display2(result1[1]);led_display3(result1[2])
                                 ;
  4375  1332  1283               	bcf	status, 5	;RP0=0, select bank0
  4376  1333  1303               	bcf	status, 6	;RP1=0, select bank0
  4377  1334  0844               	movf	(_result1),w
  4378  1335  160A  158A  277A   	fcall	_led_display1
              160A  118A         
  4379  133A  1283               	bcf	status, 5	;RP0=0, select bank0
  4380  133B  1303               	bcf	status, 6	;RP1=0, select bank0
  4381  133C  0845               	movf	0+(_result1)+01h,w
  4382  133D  160A  118A  2079   	fcall	_led_display2
              160A  118A         
  4383  1342  1283               	bcf	status, 5	;RP0=0, select bank0
  4384  1343  1303               	bcf	status, 6	;RP1=0, select bank0
  4385  1344  0846               	movf	0+(_result1)+02h,w
  4386  1345  160A  118A  20FF   	fcall	_led_display3
              160A  118A         
  4387                           	line	599
  4388                           	
  4389  134A                     l4776:	
  4390                           ;PR28.c: 599: if(matrix[0][k] == 'O' & matrix[1][k] == 'O' & matrix[2][k] == 'O'){result
                                 1[k] = 0b01001001;}
  4391  134A  1283               	bcf	status, 5	;RP0=0, select bank0
  4392  134B  1303               	bcf	status, 6	;RP1=0, select bank0
  4393  134C  0855               	movf	(DisplayLEDs@k),w
  4394  134D  3E3B               	addlw	_matrix&0ffh
  4395  134E  0084               	movwf	fsr0
  4396  134F  1383               	bcf	status, 7	;select IRP bank0
  4397  1350  0800               	movf	indf,w
  4398  1351  3A4F               	xorlw	04Fh
  4399  1352  1D03               	skipz
  4400  1353  2B55               	goto	u6681
  4401  1354  2B56               	goto	u6680
  4402  1355                     u6681:
  4403  1355  2B72               	goto	l4784
  4404  1356                     u6680:
  4405                           	
  4406  1356                     l4778:	
  4407  1356  0855               	movf	(DisplayLEDs@k),w
  4408  1357  3E3E               	addlw	_matrix+03h&0ffh
  4409  1358  0084               	movwf	fsr0
  4410  1359  0800               	movf	indf,w
  4411  135A  3A4F               	xorlw	04Fh
  4412  135B  1D03               	skipz
  4413  135C  2B5E               	goto	u6691
  4414  135D  2B5F               	goto	u6690
  4415  135E                     u6691:
  4416  135E  2B72               	goto	l4784
  4417  135F                     u6690:
  4418                           	
  4419  135F                     l4780:	
  4420  135F  0855               	movf	(DisplayLEDs@k),w
  4421  1360  3E41               	addlw	_matrix+06h&0ffh
  4422  1361  0084               	movwf	fsr0
  4423  1362  0800               	movf	indf,w
  4424  1363  3A4F               	xorlw	04Fh
  4425  1364  1D03               	skipz
  4426  1365  2B67               	goto	u6701
  4427  1366  2B68               	goto	u6700
  4428  1367                     u6701:
  4429  1367  2B72               	goto	l4784
  4430  1368                     u6700:
  4431                           	
  4432  1368                     l4782:	
  4433  1368  3049               	movlw	(049h)
  4434  1369  00D4               	movwf	(??_DisplayLEDs+0)+0
  4435  136A  0855               	movf	(DisplayLEDs@k),w
  4436  136B  3E44               	addlw	_result1&0ffh
  4437  136C  0084               	movwf	fsr0
  4438  136D  0854               	movf	(??_DisplayLEDs+0)+0,w
  4439  136E  0080               	movwf	indf
  4440  136F  120A  158A  2FD1   	goto	l5224
  4441                           	line	600
  4442                           	
  4443  1372                     l976:	
  4444                           	
  4445  1372                     l4784:	
  4446                           ;PR28.c: 600: else if(matrix[0][k] == 'O' & matrix[1][k] == 'O' & matrix[2][k] == ' '){r
                                 esult1[k] = 0b01001000;}
  4447  1372  0855               	movf	(DisplayLEDs@k),w
  4448  1373  3E3B               	addlw	_matrix&0ffh
  4449  1374  0084               	movwf	fsr0
  4450  1375  0800               	movf	indf,w
  4451  1376  3A4F               	xorlw	04Fh
  4452  1377  1D03               	skipz
  4453  1378  2B7A               	goto	u6711
  4454  1379  2B7B               	goto	u6710
  4455  137A                     u6711:
  4456  137A  2B95               	goto	l4792
  4457  137B                     u6710:
  4458                           	
  4459  137B                     l4786:	
  4460  137B  0855               	movf	(DisplayLEDs@k),w
  4461  137C  3E3E               	addlw	_matrix+03h&0ffh
  4462  137D  0084               	movwf	fsr0
  4463  137E  0800               	movf	indf,w
  4464  137F  3A4F               	xorlw	04Fh
  4465  1380  1D03               	skipz
  4466  1381  2B83               	goto	u6721
  4467  1382  2B84               	goto	u6720
  4468  1383                     u6721:
  4469  1383  2B95               	goto	l4792
  4470  1384                     u6720:
  4471                           	
  4472  1384                     l4788:	
  4473  1384  0855               	movf	(DisplayLEDs@k),w
  4474  1385  3E41               	addlw	_matrix+06h&0ffh
  4475  1386  0084               	movwf	fsr0
  4476  1387  0800               	movf	indf,w
  4477  1388  3A20               	xorlw	020h
  4478  1389  1D03               	skipz
  4479  138A  2B8C               	goto	u6731
  4480  138B  2B8D               	goto	u6730
  4481  138C                     u6731:
  4482  138C  2B95               	goto	l4792
  4483  138D                     u6730:
  4484                           	
  4485  138D                     l4790:	
  4486  138D  3048               	movlw	(048h)
  4487  138E  00D4               	movwf	(??_DisplayLEDs+0)+0
  4488  138F  0855               	movf	(DisplayLEDs@k),w
  4489  1390  3E44               	addlw	_result1&0ffh
  4490  1391  0084               	movwf	fsr0
  4491  1392  0854               	movf	(??_DisplayLEDs+0)+0,w
  4492  1393  0080               	movwf	indf
  4493  1394  2B6F               	goto	l5224
  4494                           	line	601
  4495                           	
  4496  1395                     l978:	
  4497                           	
  4498  1395                     l4792:	
  4499                           ;PR28.c: 601: else if(matrix[0][k] == 'O' & matrix[1][k] == ' ' & matrix[2][k] == 'O'){r
                                 esult1[k] = 0b01000001;}
  4500  1395  0855               	movf	(DisplayLEDs@k),w
  4501  1396  3E3B               	addlw	_matrix&0ffh
  4502  1397  0084               	movwf	fsr0
  4503  1398  0800               	movf	indf,w
  4504  1399  3A4F               	xorlw	04Fh
  4505  139A  1D03               	skipz
  4506  139B  2B9D               	goto	u6741
  4507  139C  2B9E               	goto	u6740
  4508  139D                     u6741:
  4509  139D  2BB8               	goto	l4800
  4510  139E                     u6740:
  4511                           	
  4512  139E                     l4794:	
  4513  139E  0855               	movf	(DisplayLEDs@k),w
  4514  139F  3E3E               	addlw	_matrix+03h&0ffh
  4515  13A0  0084               	movwf	fsr0
  4516  13A1  0800               	movf	indf,w
  4517  13A2  3A20               	xorlw	020h
  4518  13A3  1D03               	skipz
  4519  13A4  2BA6               	goto	u6751
  4520  13A5  2BA7               	goto	u6750
  4521  13A6                     u6751:
  4522  13A6  2BB8               	goto	l4800
  4523  13A7                     u6750:
  4524                           	
  4525  13A7                     l4796:	
  4526  13A7  0855               	movf	(DisplayLEDs@k),w
  4527  13A8  3E41               	addlw	_matrix+06h&0ffh
  4528  13A9  0084               	movwf	fsr0
  4529  13AA  0800               	movf	indf,w
  4530  13AB  3A4F               	xorlw	04Fh
  4531  13AC  1D03               	skipz
  4532  13AD  2BAF               	goto	u6761
  4533  13AE  2BB0               	goto	u6760
  4534  13AF                     u6761:
  4535  13AF  2BB8               	goto	l4800
  4536  13B0                     u6760:
  4537                           	
  4538  13B0                     l4798:	
  4539  13B0  3041               	movlw	(041h)
  4540  13B1  00D4               	movwf	(??_DisplayLEDs+0)+0
  4541  13B2  0855               	movf	(DisplayLEDs@k),w
  4542  13B3  3E44               	addlw	_result1&0ffh
  4543  13B4  0084               	movwf	fsr0
  4544  13B5  0854               	movf	(??_DisplayLEDs+0)+0,w
  4545  13B6  0080               	movwf	indf
  4546  13B7  2B6F               	goto	l5224
  4547                           	line	602
  4548                           	
  4549  13B8                     l980:	
  4550                           	
  4551  13B8                     l4800:	
  4552                           ;PR28.c: 602: else if(matrix[0][k] == 'O' & matrix[1][k] == ' ' & matrix[2][k] == ' '){r
                                 esult1[k] = 0b01000000;}
  4553  13B8  0855               	movf	(DisplayLEDs@k),w
  4554  13B9  3E3B               	addlw	_matrix&0ffh
  4555  13BA  0084               	movwf	fsr0
  4556  13BB  0800               	movf	indf,w
  4557  13BC  3A4F               	xorlw	04Fh
  4558  13BD  1D03               	skipz
  4559  13BE  2BC0               	goto	u6771
  4560  13BF  2BC1               	goto	u6770
  4561  13C0                     u6771:
  4562  13C0  2BDB               	goto	l4808
  4563  13C1                     u6770:
  4564                           	
  4565  13C1                     l4802:	
  4566  13C1  0855               	movf	(DisplayLEDs@k),w
  4567  13C2  3E3E               	addlw	_matrix+03h&0ffh
  4568  13C3  0084               	movwf	fsr0
  4569  13C4  0800               	movf	indf,w
  4570  13C5  3A20               	xorlw	020h
  4571  13C6  1D03               	skipz
  4572  13C7  2BC9               	goto	u6781
  4573  13C8  2BCA               	goto	u6780
  4574  13C9                     u6781:
  4575  13C9  2BDB               	goto	l4808
  4576  13CA                     u6780:
  4577                           	
  4578  13CA                     l4804:	
  4579  13CA  0855               	movf	(DisplayLEDs@k),w
  4580  13CB  3E41               	addlw	_matrix+06h&0ffh
  4581  13CC  0084               	movwf	fsr0
  4582  13CD  0800               	movf	indf,w
  4583  13CE  3A20               	xorlw	020h
  4584  13CF  1D03               	skipz
  4585  13D0  2BD2               	goto	u6791
  4586  13D1  2BD3               	goto	u6790
  4587  13D2                     u6791:
  4588  13D2  2BDB               	goto	l4808
  4589  13D3                     u6790:
  4590                           	
  4591  13D3                     l4806:	
  4592  13D3  3040               	movlw	(040h)
  4593  13D4  00D4               	movwf	(??_DisplayLEDs+0)+0
  4594  13D5  0855               	movf	(DisplayLEDs@k),w
  4595  13D6  3E44               	addlw	_result1&0ffh
  4596  13D7  0084               	movwf	fsr0
  4597  13D8  0854               	movf	(??_DisplayLEDs+0)+0,w
  4598  13D9  0080               	movwf	indf
  4599  13DA  2B6F               	goto	l5224
  4600                           	line	603
  4601                           	
  4602  13DB                     l982:	
  4603                           	
  4604  13DB                     l4808:	
  4605                           ;PR28.c: 603: else if(matrix[0][k] == ' ' & matrix[1][k] == 'O' & matrix[2][k] == 'O'){r
                                 esult1[k] = 0b00001001;}
  4606  13DB  0855               	movf	(DisplayLEDs@k),w
  4607  13DC  3E3B               	addlw	_matrix&0ffh
  4608  13DD  0084               	movwf	fsr0
  4609  13DE  0800               	movf	indf,w
  4610  13DF  3A20               	xorlw	020h
  4611  13E0  1D03               	skipz
  4612  13E1  2BE3               	goto	u6801
  4613  13E2  2BE4               	goto	u6800
  4614  13E3                     u6801:
  4615  13E3  2BFE               	goto	l4816
  4616  13E4                     u6800:
  4617                           	
  4618  13E4                     l4810:	
  4619  13E4  0855               	movf	(DisplayLEDs@k),w
  4620  13E5  3E3E               	addlw	_matrix+03h&0ffh
  4621  13E6  0084               	movwf	fsr0
  4622  13E7  0800               	movf	indf,w
  4623  13E8  3A4F               	xorlw	04Fh
  4624  13E9  1D03               	skipz
  4625  13EA  2BEC               	goto	u6811
  4626  13EB  2BED               	goto	u6810
  4627  13EC                     u6811:
  4628  13EC  2BFE               	goto	l4816
  4629  13ED                     u6810:
  4630                           	
  4631  13ED                     l4812:	
  4632  13ED  0855               	movf	(DisplayLEDs@k),w
  4633  13EE  3E41               	addlw	_matrix+06h&0ffh
  4634  13EF  0084               	movwf	fsr0
  4635  13F0  0800               	movf	indf,w
  4636  13F1  3A4F               	xorlw	04Fh
  4637  13F2  1D03               	skipz
  4638  13F3  2BF5               	goto	u6821
  4639  13F4  2BF6               	goto	u6820
  4640  13F5                     u6821:
  4641  13F5  2BFE               	goto	l4816
  4642  13F6                     u6820:
  4643                           	
  4644  13F6                     l4814:	
  4645  13F6  3009               	movlw	(09h)
  4646  13F7  00D4               	movwf	(??_DisplayLEDs+0)+0
  4647  13F8  0855               	movf	(DisplayLEDs@k),w
  4648  13F9  3E44               	addlw	_result1&0ffh
  4649  13FA  0084               	movwf	fsr0
  4650  13FB  0854               	movf	(??_DisplayLEDs+0)+0,w
  4651  13FC  0080               	movwf	indf
  4652  13FD  2B6F               	goto	l5224
  4653                           	line	604
  4654                           	
  4655  13FE                     l984:	
  4656                           	
  4657  13FE                     l4816:	
  4658                           ;PR28.c: 604: else if(matrix[0][k] == ' ' & matrix[1][k] == 'O' & matrix[2][k] == ' '){r
                                 esult1[k] = 0b00001000;}
  4659  13FE  0855               	movf	(DisplayLEDs@k),w
  4660  13FF  3E3B               	addlw	_matrix&0ffh
  4661  1400  0084               	movwf	fsr0
  4662  1401  0800               	movf	indf,w
  4663  1402  3A20               	xorlw	020h
  4664  1403  1D03               	skipz
  4665  1404  2C06               	goto	u6831
  4666  1405  2C09               	goto	u6830
  4667  1406                     u6831:
  4668  1406  120A  158A  28C8   	goto	l4824
  4669  1409                     u6830:
  4670                           	
  4671  1409                     l4818:	
  4672  1409  0855               	movf	(DisplayLEDs@k),w
  4673  140A  3E3E               	addlw	_matrix+03h&0ffh
  4674  140B  0084               	movwf	fsr0
  4675  140C  0800               	movf	indf,w
  4676  140D  3A4F               	xorlw	04Fh
  4677  140E  1D03               	skipz
  4678  140F  2C11               	goto	u6841
  4679  1410  2C12               	goto	u6840
  4680  1411                     u6841:
  4681  1411  2C06               	goto	l4824
  4682  1412                     u6840:
  4683                           	
  4684  1412                     l4820:	
  4685  1412  0855               	movf	(DisplayLEDs@k),w
  4686  1413  3E41               	addlw	_matrix+06h&0ffh
  4687  1414  0084               	movwf	fsr0
  4688  1415  0800               	movf	indf,w
  4689  1416  3A20               	xorlw	020h
  4690  1417  1D03               	skipz
  4691  1418  2C1A               	goto	u6851
  4692  1419  2C1B               	goto	u6850
  4693  141A                     u6851:
  4694  141A  2C06               	goto	l4824
  4695  141B                     u6850:
  4696                           	
  4697  141B                     l4822:	
  4698  141B  3008               	movlw	(08h)
  4699  141C  00D4               	movwf	(??_DisplayLEDs+0)+0
  4700  141D  0855               	movf	(DisplayLEDs@k),w
  4701  141E  3E44               	addlw	_result1&0ffh
  4702  141F  0084               	movwf	fsr0
  4703  1420  0854               	movf	(??_DisplayLEDs+0)+0,w
  4704  1421  0080               	movwf	indf
  4705  1422  2B6F               	goto	l5224
  4706                           	line	605
  4707                           	
  4708  08C8                     l986:	
  4709                           	
  4710  08C8                     l4824:	
  4711                           ;PR28.c: 605: else if(matrix[0][k] == ' ' & matrix[1][k] == ' ' & matrix[2][k] == 'O'){r
                                 esult1[k] = 0b00000001;}
  4712  08C8  0855               	movf	(DisplayLEDs@k),w
  4713  08C9  3E3B               	addlw	_matrix&0ffh
  4714  08CA  0084               	movwf	fsr0
  4715  08CB  0800               	movf	indf,w
  4716  08CC  3A20               	xorlw	020h
  4717  08CD  1D03               	skipz
  4718  08CE  28D0               	goto	u6861
  4719  08CF  28D1               	goto	u6860
  4720  08D0                     u6861:
  4721  08D0  28EA               	goto	l4832
  4722  08D1                     u6860:
  4723                           	
  4724  08D1                     l4826:	
  4725  08D1  0855               	movf	(DisplayLEDs@k),w
  4726  08D2  3E3E               	addlw	_matrix+03h&0ffh
  4727  08D3  0084               	movwf	fsr0
  4728  08D4  0800               	movf	indf,w
  4729  08D5  3A20               	xorlw	020h
  4730  08D6  1D03               	skipz
  4731  08D7  28D9               	goto	u6871
  4732  08D8  28DA               	goto	u6870
  4733  08D9                     u6871:
  4734  08D9  28EA               	goto	l4832
  4735  08DA                     u6870:
  4736                           	
  4737  08DA                     l4828:	
  4738  08DA  0855               	movf	(DisplayLEDs@k),w
  4739  08DB  3E41               	addlw	_matrix+06h&0ffh
  4740  08DC  0084               	movwf	fsr0
  4741  08DD  0800               	movf	indf,w
  4742  08DE  3A4F               	xorlw	04Fh
  4743  08DF  1D03               	skipz
  4744  08E0  28E2               	goto	u6881
  4745  08E1  28E3               	goto	u6880
  4746  08E2                     u6881:
  4747  08E2  28EA               	goto	l4832
  4748  08E3                     u6880:
  4749                           	
  4750  08E3                     l4830:	
  4751  08E3  0855               	movf	(DisplayLEDs@k),w
  4752  08E4  3E44               	addlw	_result1&0ffh
  4753  08E5  0084               	movwf	fsr0
  4754  08E6  0180               	clrf	indf
  4755  08E7  1403               	bsf	status,0
  4756  08E8  0D80               	rlf	indf,f
  4757  08E9  2FD1               	goto	l5224
  4758                           	line	607
  4759                           	
  4760  08EA                     l988:	
  4761                           	
  4762  08EA                     l4832:	
  4763                           ;PR28.c: 607: else if(matrix[0][k] == 'O' & matrix[1][k] == 'O' & matrix[2][k] == 'X'){r
                                 esult1[k] = 0b01001010;}
  4764  08EA  0855               	movf	(DisplayLEDs@k),w
  4765  08EB  3E3B               	addlw	_matrix&0ffh
  4766  08EC  0084               	movwf	fsr0
  4767  08ED  0800               	movf	indf,w
  4768  08EE  3A4F               	xorlw	04Fh
  4769  08EF  1D03               	skipz
  4770  08F0  28F2               	goto	u6891
  4771  08F1  28F3               	goto	u6890
  4772  08F2                     u6891:
  4773  08F2  290D               	goto	l4840
  4774  08F3                     u6890:
  4775                           	
  4776  08F3                     l4834:	
  4777  08F3  0855               	movf	(DisplayLEDs@k),w
  4778  08F4  3E3E               	addlw	_matrix+03h&0ffh
  4779  08F5  0084               	movwf	fsr0
  4780  08F6  0800               	movf	indf,w
  4781  08F7  3A4F               	xorlw	04Fh
  4782  08F8  1D03               	skipz
  4783  08F9  28FB               	goto	u6901
  4784  08FA  28FC               	goto	u6900
  4785  08FB                     u6901:
  4786  08FB  290D               	goto	l4840
  4787  08FC                     u6900:
  4788                           	
  4789  08FC                     l4836:	
  4790  08FC  0855               	movf	(DisplayLEDs@k),w
  4791  08FD  3E41               	addlw	_matrix+06h&0ffh
  4792  08FE  0084               	movwf	fsr0
  4793  08FF  0800               	movf	indf,w
  4794  0900  3A58               	xorlw	058h
  4795  0901  1D03               	skipz
  4796  0902  2904               	goto	u6911
  4797  0903  2905               	goto	u6910
  4798  0904                     u6911:
  4799  0904  290D               	goto	l4840
  4800  0905                     u6910:
  4801                           	
  4802  0905                     l4838:	
  4803  0905  304A               	movlw	(04Ah)
  4804  0906  00D4               	movwf	(??_DisplayLEDs+0)+0
  4805  0907  0855               	movf	(DisplayLEDs@k),w
  4806  0908  3E44               	addlw	_result1&0ffh
  4807  0909  0084               	movwf	fsr0
  4808  090A  0854               	movf	(??_DisplayLEDs+0)+0,w
  4809  090B  0080               	movwf	indf
  4810  090C  2FD1               	goto	l5224
  4811                           	line	608
  4812                           	
  4813  090D                     l990:	
  4814                           	
  4815  090D                     l4840:	
  4816                           ;PR28.c: 608: else if(matrix[0][k] == 'O' & matrix[1][k] == 'O' & matrix[2][k] == ' '){r
                                 esult1[k] = 0b01001000;}
  4817  090D  0855               	movf	(DisplayLEDs@k),w
  4818  090E  3E3B               	addlw	_matrix&0ffh
  4819  090F  0084               	movwf	fsr0
  4820  0910  0800               	movf	indf,w
  4821  0911  3A4F               	xorlw	04Fh
  4822  0912  1D03               	skipz
  4823  0913  2915               	goto	u6921
  4824  0914  2916               	goto	u6920
  4825  0915                     u6921:
  4826  0915  2930               	goto	l4848
  4827  0916                     u6920:
  4828                           	
  4829  0916                     l4842:	
  4830  0916  0855               	movf	(DisplayLEDs@k),w
  4831  0917  3E3E               	addlw	_matrix+03h&0ffh
  4832  0918  0084               	movwf	fsr0
  4833  0919  0800               	movf	indf,w
  4834  091A  3A4F               	xorlw	04Fh
  4835  091B  1D03               	skipz
  4836  091C  291E               	goto	u6931
  4837  091D  291F               	goto	u6930
  4838  091E                     u6931:
  4839  091E  2930               	goto	l4848
  4840  091F                     u6930:
  4841                           	
  4842  091F                     l4844:	
  4843  091F  0855               	movf	(DisplayLEDs@k),w
  4844  0920  3E41               	addlw	_matrix+06h&0ffh
  4845  0921  0084               	movwf	fsr0
  4846  0922  0800               	movf	indf,w
  4847  0923  3A20               	xorlw	020h
  4848  0924  1D03               	skipz
  4849  0925  2927               	goto	u6941
  4850  0926  2928               	goto	u6940
  4851  0927                     u6941:
  4852  0927  2930               	goto	l4848
  4853  0928                     u6940:
  4854                           	
  4855  0928                     l4846:	
  4856  0928  3048               	movlw	(048h)
  4857  0929  00D4               	movwf	(??_DisplayLEDs+0)+0
  4858  092A  0855               	movf	(DisplayLEDs@k),w
  4859  092B  3E44               	addlw	_result1&0ffh
  4860  092C  0084               	movwf	fsr0
  4861  092D  0854               	movf	(??_DisplayLEDs+0)+0,w
  4862  092E  0080               	movwf	indf
  4863  092F  2FD1               	goto	l5224
  4864                           	line	609
  4865                           	
  4866  0930                     l992:	
  4867                           	
  4868  0930                     l4848:	
  4869                           ;PR28.c: 609: else if(matrix[0][k] == 'O' & matrix[1][k] == ' ' & matrix[2][k] == 'X'){r
                                 esult1[k] = 0b01000010;}
  4870  0930  0855               	movf	(DisplayLEDs@k),w
  4871  0931  3E3B               	addlw	_matrix&0ffh
  4872  0932  0084               	movwf	fsr0
  4873  0933  0800               	movf	indf,w
  4874  0934  3A4F               	xorlw	04Fh
  4875  0935  1D03               	skipz
  4876  0936  2938               	goto	u6951
  4877  0937  2939               	goto	u6950
  4878  0938                     u6951:
  4879  0938  2953               	goto	l4856
  4880  0939                     u6950:
  4881                           	
  4882  0939                     l4850:	
  4883  0939  0855               	movf	(DisplayLEDs@k),w
  4884  093A  3E3E               	addlw	_matrix+03h&0ffh
  4885  093B  0084               	movwf	fsr0
  4886  093C  0800               	movf	indf,w
  4887  093D  3A20               	xorlw	020h
  4888  093E  1D03               	skipz
  4889  093F  2941               	goto	u6961
  4890  0940  2942               	goto	u6960
  4891  0941                     u6961:
  4892  0941  2953               	goto	l4856
  4893  0942                     u6960:
  4894                           	
  4895  0942                     l4852:	
  4896  0942  0855               	movf	(DisplayLEDs@k),w
  4897  0943  3E41               	addlw	_matrix+06h&0ffh
  4898  0944  0084               	movwf	fsr0
  4899  0945  0800               	movf	indf,w
  4900  0946  3A58               	xorlw	058h
  4901  0947  1D03               	skipz
  4902  0948  294A               	goto	u6971
  4903  0949  294B               	goto	u6970
  4904  094A                     u6971:
  4905  094A  2953               	goto	l4856
  4906  094B                     u6970:
  4907                           	
  4908  094B                     l4854:	
  4909  094B  3042               	movlw	(042h)
  4910  094C  00D4               	movwf	(??_DisplayLEDs+0)+0
  4911  094D  0855               	movf	(DisplayLEDs@k),w
  4912  094E  3E44               	addlw	_result1&0ffh
  4913  094F  0084               	movwf	fsr0
  4914  0950  0854               	movf	(??_DisplayLEDs+0)+0,w
  4915  0951  0080               	movwf	indf
  4916  0952  2FD1               	goto	l5224
  4917                           	line	610
  4918                           	
  4919  0953                     l994:	
  4920                           	
  4921  0953                     l4856:	
  4922                           ;PR28.c: 610: else if(matrix[0][k] == 'O' & matrix[1][k] == ' ' & matrix[2][k] == ' '){r
                                 esult1[k] = 0b01000000;}
  4923  0953  0855               	movf	(DisplayLEDs@k),w
  4924  0954  3E3B               	addlw	_matrix&0ffh
  4925  0955  0084               	movwf	fsr0
  4926  0956  0800               	movf	indf,w
  4927  0957  3A4F               	xorlw	04Fh
  4928  0958  1D03               	skipz
  4929  0959  295B               	goto	u6981
  4930  095A  295C               	goto	u6980
  4931  095B                     u6981:
  4932  095B  2976               	goto	l4864
  4933  095C                     u6980:
  4934                           	
  4935  095C                     l4858:	
  4936  095C  0855               	movf	(DisplayLEDs@k),w
  4937  095D  3E3E               	addlw	_matrix+03h&0ffh
  4938  095E  0084               	movwf	fsr0
  4939  095F  0800               	movf	indf,w
  4940  0960  3A20               	xorlw	020h
  4941  0961  1D03               	skipz
  4942  0962  2964               	goto	u6991
  4943  0963  2965               	goto	u6990
  4944  0964                     u6991:
  4945  0964  2976               	goto	l4864
  4946  0965                     u6990:
  4947                           	
  4948  0965                     l4860:	
  4949  0965  0855               	movf	(DisplayLEDs@k),w
  4950  0966  3E41               	addlw	_matrix+06h&0ffh
  4951  0967  0084               	movwf	fsr0
  4952  0968  0800               	movf	indf,w
  4953  0969  3A20               	xorlw	020h
  4954  096A  1D03               	skipz
  4955  096B  296D               	goto	u7001
  4956  096C  296E               	goto	u7000
  4957  096D                     u7001:
  4958  096D  2976               	goto	l4864
  4959  096E                     u7000:
  4960                           	
  4961  096E                     l4862:	
  4962  096E  3040               	movlw	(040h)
  4963  096F  00D4               	movwf	(??_DisplayLEDs+0)+0
  4964  0970  0855               	movf	(DisplayLEDs@k),w
  4965  0971  3E44               	addlw	_result1&0ffh
  4966  0972  0084               	movwf	fsr0
  4967  0973  0854               	movf	(??_DisplayLEDs+0)+0,w
  4968  0974  0080               	movwf	indf
  4969  0975  2FD1               	goto	l5224
  4970                           	line	611
  4971                           	
  4972  0976                     l996:	
  4973                           	
  4974  0976                     l4864:	
  4975                           ;PR28.c: 611: else if(matrix[0][k] == ' ' & matrix[1][k] == 'O' & matrix[2][k] == 'X'){r
                                 esult1[k] = 0b00001010;}
  4976  0976  0855               	movf	(DisplayLEDs@k),w
  4977  0977  3E3B               	addlw	_matrix&0ffh
  4978  0978  0084               	movwf	fsr0
  4979  0979  0800               	movf	indf,w
  4980  097A  3A20               	xorlw	020h
  4981  097B  1D03               	skipz
  4982  097C  297E               	goto	u7011
  4983  097D  297F               	goto	u7010
  4984  097E                     u7011:
  4985  097E  2999               	goto	l4872
  4986  097F                     u7010:
  4987                           	
  4988  097F                     l4866:	
  4989  097F  0855               	movf	(DisplayLEDs@k),w
  4990  0980  3E3E               	addlw	_matrix+03h&0ffh
  4991  0981  0084               	movwf	fsr0
  4992  0982  0800               	movf	indf,w
  4993  0983  3A4F               	xorlw	04Fh
  4994  0984  1D03               	skipz
  4995  0985  2987               	goto	u7021
  4996  0986  2988               	goto	u7020
  4997  0987                     u7021:
  4998  0987  2999               	goto	l4872
  4999  0988                     u7020:
  5000                           	
  5001  0988                     l4868:	
  5002  0988  0855               	movf	(DisplayLEDs@k),w
  5003  0989  3E41               	addlw	_matrix+06h&0ffh
  5004  098A  0084               	movwf	fsr0
  5005  098B  0800               	movf	indf,w
  5006  098C  3A58               	xorlw	058h
  5007  098D  1D03               	skipz
  5008  098E  2990               	goto	u7031
  5009  098F  2991               	goto	u7030
  5010  0990                     u7031:
  5011  0990  2999               	goto	l4872
  5012  0991                     u7030:
  5013                           	
  5014  0991                     l4870:	
  5015  0991  300A               	movlw	(0Ah)
  5016  0992  00D4               	movwf	(??_DisplayLEDs+0)+0
  5017  0993  0855               	movf	(DisplayLEDs@k),w
  5018  0994  3E44               	addlw	_result1&0ffh
  5019  0995  0084               	movwf	fsr0
  5020  0996  0854               	movf	(??_DisplayLEDs+0)+0,w
  5021  0997  0080               	movwf	indf
  5022  0998  2FD1               	goto	l5224
  5023                           	line	612
  5024                           	
  5025  0999                     l998:	
  5026                           	
  5027  0999                     l4872:	
  5028                           ;PR28.c: 612: else if(matrix[0][k] == ' ' & matrix[1][k] == 'O' & matrix[2][k] == ' '){r
                                 esult1[k] = 0b00001000;}
  5029  0999  0855               	movf	(DisplayLEDs@k),w
  5030  099A  3E3B               	addlw	_matrix&0ffh
  5031  099B  0084               	movwf	fsr0
  5032  099C  0800               	movf	indf,w
  5033  099D  3A20               	xorlw	020h
  5034  099E  1D03               	skipz
  5035  099F  29A1               	goto	u7041
  5036  09A0  29A2               	goto	u7040
  5037  09A1                     u7041:
  5038  09A1  29BC               	goto	l4880
  5039  09A2                     u7040:
  5040                           	
  5041  09A2                     l4874:	
  5042  09A2  0855               	movf	(DisplayLEDs@k),w
  5043  09A3  3E3E               	addlw	_matrix+03h&0ffh
  5044  09A4  0084               	movwf	fsr0
  5045  09A5  0800               	movf	indf,w
  5046  09A6  3A4F               	xorlw	04Fh
  5047  09A7  1D03               	skipz
  5048  09A8  29AA               	goto	u7051
  5049  09A9  29AB               	goto	u7050
  5050  09AA                     u7051:
  5051  09AA  29BC               	goto	l4880
  5052  09AB                     u7050:
  5053                           	
  5054  09AB                     l4876:	
  5055  09AB  0855               	movf	(DisplayLEDs@k),w
  5056  09AC  3E41               	addlw	_matrix+06h&0ffh
  5057  09AD  0084               	movwf	fsr0
  5058  09AE  0800               	movf	indf,w
  5059  09AF  3A20               	xorlw	020h
  5060  09B0  1D03               	skipz
  5061  09B1  29B3               	goto	u7061
  5062  09B2  29B4               	goto	u7060
  5063  09B3                     u7061:
  5064  09B3  29BC               	goto	l4880
  5065  09B4                     u7060:
  5066                           	
  5067  09B4                     l4878:	
  5068  09B4  3008               	movlw	(08h)
  5069  09B5  00D4               	movwf	(??_DisplayLEDs+0)+0
  5070  09B6  0855               	movf	(DisplayLEDs@k),w
  5071  09B7  3E44               	addlw	_result1&0ffh
  5072  09B8  0084               	movwf	fsr0
  5073  09B9  0854               	movf	(??_DisplayLEDs+0)+0,w
  5074  09BA  0080               	movwf	indf
  5075  09BB  2FD1               	goto	l5224
  5076                           	line	613
  5077                           	
  5078  09BC                     l1000:	
  5079                           	
  5080  09BC                     l4880:	
  5081                           ;PR28.c: 613: else if(matrix[0][k] == ' ' & matrix[1][k] == ' ' & matrix[2][k] == 'X'){r
                                 esult1[k] = 0b00000010;}
  5082  09BC  0855               	movf	(DisplayLEDs@k),w
  5083  09BD  3E3B               	addlw	_matrix&0ffh
  5084  09BE  0084               	movwf	fsr0
  5085  09BF  0800               	movf	indf,w
  5086  09C0  3A20               	xorlw	020h
  5087  09C1  1D03               	skipz
  5088  09C2  29C4               	goto	u7071
  5089  09C3  29C5               	goto	u7070
  5090  09C4                     u7071:
  5091  09C4  29DF               	goto	l4888
  5092  09C5                     u7070:
  5093                           	
  5094  09C5                     l4882:	
  5095  09C5  0855               	movf	(DisplayLEDs@k),w
  5096  09C6  3E3E               	addlw	_matrix+03h&0ffh
  5097  09C7  0084               	movwf	fsr0
  5098  09C8  0800               	movf	indf,w
  5099  09C9  3A20               	xorlw	020h
  5100  09CA  1D03               	skipz
  5101  09CB  29CD               	goto	u7081
  5102  09CC  29CE               	goto	u7080
  5103  09CD                     u7081:
  5104  09CD  29DF               	goto	l4888
  5105  09CE                     u7080:
  5106                           	
  5107  09CE                     l4884:	
  5108  09CE  0855               	movf	(DisplayLEDs@k),w
  5109  09CF  3E41               	addlw	_matrix+06h&0ffh
  5110  09D0  0084               	movwf	fsr0
  5111  09D1  0800               	movf	indf,w
  5112  09D2  3A58               	xorlw	058h
  5113  09D3  1D03               	skipz
  5114  09D4  29D6               	goto	u7091
  5115  09D5  29D7               	goto	u7090
  5116  09D6                     u7091:
  5117  09D6  29DF               	goto	l4888
  5118  09D7                     u7090:
  5119                           	
  5120  09D7                     l4886:	
  5121  09D7  3002               	movlw	(02h)
  5122  09D8  00D4               	movwf	(??_DisplayLEDs+0)+0
  5123  09D9  0855               	movf	(DisplayLEDs@k),w
  5124  09DA  3E44               	addlw	_result1&0ffh
  5125  09DB  0084               	movwf	fsr0
  5126  09DC  0854               	movf	(??_DisplayLEDs+0)+0,w
  5127  09DD  0080               	movwf	indf
  5128  09DE  2FD1               	goto	l5224
  5129                           	line	615
  5130                           	
  5131  09DF                     l1002:	
  5132                           	
  5133  09DF                     l4888:	
  5134                           ;PR28.c: 615: else if(matrix[0][k] == 'O' & matrix[1][k] == 'X' & matrix[2][k] == 'O'){r
                                 esult1[k] = 0b01010001;}
  5135  09DF  0855               	movf	(DisplayLEDs@k),w
  5136  09E0  3E3B               	addlw	_matrix&0ffh
  5137  09E1  0084               	movwf	fsr0
  5138  09E2  0800               	movf	indf,w
  5139  09E3  3A4F               	xorlw	04Fh
  5140  09E4  1D03               	skipz
  5141  09E5  29E7               	goto	u7101
  5142  09E6  29E8               	goto	u7100
  5143  09E7                     u7101:
  5144  09E7  2A02               	goto	l4896
  5145  09E8                     u7100:
  5146                           	
  5147  09E8                     l4890:	
  5148  09E8  0855               	movf	(DisplayLEDs@k),w
  5149  09E9  3E3E               	addlw	_matrix+03h&0ffh
  5150  09EA  0084               	movwf	fsr0
  5151  09EB  0800               	movf	indf,w
  5152  09EC  3A58               	xorlw	058h
  5153  09ED  1D03               	skipz
  5154  09EE  29F0               	goto	u7111
  5155  09EF  29F1               	goto	u7110
  5156  09F0                     u7111:
  5157  09F0  2A02               	goto	l4896
  5158  09F1                     u7110:
  5159                           	
  5160  09F1                     l4892:	
  5161  09F1  0855               	movf	(DisplayLEDs@k),w
  5162  09F2  3E41               	addlw	_matrix+06h&0ffh
  5163  09F3  0084               	movwf	fsr0
  5164  09F4  0800               	movf	indf,w
  5165  09F5  3A4F               	xorlw	04Fh
  5166  09F6  1D03               	skipz
  5167  09F7  29F9               	goto	u7121
  5168  09F8  29FA               	goto	u7120
  5169  09F9                     u7121:
  5170  09F9  2A02               	goto	l4896
  5171  09FA                     u7120:
  5172                           	
  5173  09FA                     l4894:	
  5174  09FA  3051               	movlw	(051h)
  5175  09FB  00D4               	movwf	(??_DisplayLEDs+0)+0
  5176  09FC  0855               	movf	(DisplayLEDs@k),w
  5177  09FD  3E44               	addlw	_result1&0ffh
  5178  09FE  0084               	movwf	fsr0
  5179  09FF  0854               	movf	(??_DisplayLEDs+0)+0,w
  5180  0A00  0080               	movwf	indf
  5181  0A01  2FD1               	goto	l5224
  5182                           	line	616
  5183                           	
  5184  0A02                     l1004:	
  5185                           	
  5186  0A02                     l4896:	
  5187                           ;PR28.c: 616: else if(matrix[0][k] == 'O' & matrix[1][k] == 'X' & matrix[2][k] == ' '){r
                                 esult1[k] = 0b01010000;}
  5188  0A02  0855               	movf	(DisplayLEDs@k),w
  5189  0A03  3E3B               	addlw	_matrix&0ffh
  5190  0A04  0084               	movwf	fsr0
  5191  0A05  0800               	movf	indf,w
  5192  0A06  3A4F               	xorlw	04Fh
  5193  0A07  1D03               	skipz
  5194  0A08  2A0A               	goto	u7131
  5195  0A09  2A0B               	goto	u7130
  5196  0A0A                     u7131:
  5197  0A0A  2A25               	goto	l4904
  5198  0A0B                     u7130:
  5199                           	
  5200  0A0B                     l4898:	
  5201  0A0B  0855               	movf	(DisplayLEDs@k),w
  5202  0A0C  3E3E               	addlw	_matrix+03h&0ffh
  5203  0A0D  0084               	movwf	fsr0
  5204  0A0E  0800               	movf	indf,w
  5205  0A0F  3A58               	xorlw	058h
  5206  0A10  1D03               	skipz
  5207  0A11  2A13               	goto	u7141
  5208  0A12  2A14               	goto	u7140
  5209  0A13                     u7141:
  5210  0A13  2A25               	goto	l4904
  5211  0A14                     u7140:
  5212                           	
  5213  0A14                     l4900:	
  5214  0A14  0855               	movf	(DisplayLEDs@k),w
  5215  0A15  3E41               	addlw	_matrix+06h&0ffh
  5216  0A16  0084               	movwf	fsr0
  5217  0A17  0800               	movf	indf,w
  5218  0A18  3A20               	xorlw	020h
  5219  0A19  1D03               	skipz
  5220  0A1A  2A1C               	goto	u7151
  5221  0A1B  2A1D               	goto	u7150
  5222  0A1C                     u7151:
  5223  0A1C  2A25               	goto	l4904
  5224  0A1D                     u7150:
  5225                           	
  5226  0A1D                     l4902:	
  5227  0A1D  3050               	movlw	(050h)
  5228  0A1E  00D4               	movwf	(??_DisplayLEDs+0)+0
  5229  0A1F  0855               	movf	(DisplayLEDs@k),w
  5230  0A20  3E44               	addlw	_result1&0ffh
  5231  0A21  0084               	movwf	fsr0
  5232  0A22  0854               	movf	(??_DisplayLEDs+0)+0,w
  5233  0A23  0080               	movwf	indf
  5234  0A24  2FD1               	goto	l5224
  5235                           	line	617
  5236                           	
  5237  0A25                     l1006:	
  5238                           	
  5239  0A25                     l4904:	
  5240                           ;PR28.c: 617: else if(matrix[0][k] == 'O' & matrix[1][k] == ' ' & matrix[2][k] == 'O'){r
                                 esult1[k] = 0b01000001;}
  5241  0A25  0855               	movf	(DisplayLEDs@k),w
  5242  0A26  3E3B               	addlw	_matrix&0ffh
  5243  0A27  0084               	movwf	fsr0
  5244  0A28  0800               	movf	indf,w
  5245  0A29  3A4F               	xorlw	04Fh
  5246  0A2A  1D03               	skipz
  5247  0A2B  2A2D               	goto	u7161
  5248  0A2C  2A2E               	goto	u7160
  5249  0A2D                     u7161:
  5250  0A2D  2A48               	goto	l4912
  5251  0A2E                     u7160:
  5252                           	
  5253  0A2E                     l4906:	
  5254  0A2E  0855               	movf	(DisplayLEDs@k),w
  5255  0A2F  3E3E               	addlw	_matrix+03h&0ffh
  5256  0A30  0084               	movwf	fsr0
  5257  0A31  0800               	movf	indf,w
  5258  0A32  3A20               	xorlw	020h
  5259  0A33  1D03               	skipz
  5260  0A34  2A36               	goto	u7171
  5261  0A35  2A37               	goto	u7170
  5262  0A36                     u7171:
  5263  0A36  2A48               	goto	l4912
  5264  0A37                     u7170:
  5265                           	
  5266  0A37                     l4908:	
  5267  0A37  0855               	movf	(DisplayLEDs@k),w
  5268  0A38  3E41               	addlw	_matrix+06h&0ffh
  5269  0A39  0084               	movwf	fsr0
  5270  0A3A  0800               	movf	indf,w
  5271  0A3B  3A4F               	xorlw	04Fh
  5272  0A3C  1D03               	skipz
  5273  0A3D  2A3F               	goto	u7181
  5274  0A3E  2A40               	goto	u7180
  5275  0A3F                     u7181:
  5276  0A3F  2A48               	goto	l4912
  5277  0A40                     u7180:
  5278                           	
  5279  0A40                     l4910:	
  5280  0A40  3041               	movlw	(041h)
  5281  0A41  00D4               	movwf	(??_DisplayLEDs+0)+0
  5282  0A42  0855               	movf	(DisplayLEDs@k),w
  5283  0A43  3E44               	addlw	_result1&0ffh
  5284  0A44  0084               	movwf	fsr0
  5285  0A45  0854               	movf	(??_DisplayLEDs+0)+0,w
  5286  0A46  0080               	movwf	indf
  5287  0A47  2FD1               	goto	l5224
  5288                           	line	618
  5289                           	
  5290  0A48                     l1008:	
  5291                           	
  5292  0A48                     l4912:	
  5293                           ;PR28.c: 618: else if(matrix[0][k] == 'O' & matrix[1][k] == ' ' & matrix[2][k] == ' '){r
                                 esult1[k] = 0b01000000;}
  5294  0A48  0855               	movf	(DisplayLEDs@k),w
  5295  0A49  3E3B               	addlw	_matrix&0ffh
  5296  0A4A  0084               	movwf	fsr0
  5297  0A4B  0800               	movf	indf,w
  5298  0A4C  3A4F               	xorlw	04Fh
  5299  0A4D  1D03               	skipz
  5300  0A4E  2A50               	goto	u7191
  5301  0A4F  2A51               	goto	u7190
  5302  0A50                     u7191:
  5303  0A50  2A6B               	goto	l4920
  5304  0A51                     u7190:
  5305                           	
  5306  0A51                     l4914:	
  5307  0A51  0855               	movf	(DisplayLEDs@k),w
  5308  0A52  3E3E               	addlw	_matrix+03h&0ffh
  5309  0A53  0084               	movwf	fsr0
  5310  0A54  0800               	movf	indf,w
  5311  0A55  3A20               	xorlw	020h
  5312  0A56  1D03               	skipz
  5313  0A57  2A59               	goto	u7201
  5314  0A58  2A5A               	goto	u7200
  5315  0A59                     u7201:
  5316  0A59  2A6B               	goto	l4920
  5317  0A5A                     u7200:
  5318                           	
  5319  0A5A                     l4916:	
  5320  0A5A  0855               	movf	(DisplayLEDs@k),w
  5321  0A5B  3E41               	addlw	_matrix+06h&0ffh
  5322  0A5C  0084               	movwf	fsr0
  5323  0A5D  0800               	movf	indf,w
  5324  0A5E  3A20               	xorlw	020h
  5325  0A5F  1D03               	skipz
  5326  0A60  2A62               	goto	u7211
  5327  0A61  2A63               	goto	u7210
  5328  0A62                     u7211:
  5329  0A62  2A6B               	goto	l4920
  5330  0A63                     u7210:
  5331                           	
  5332  0A63                     l4918:	
  5333  0A63  3040               	movlw	(040h)
  5334  0A64  00D4               	movwf	(??_DisplayLEDs+0)+0
  5335  0A65  0855               	movf	(DisplayLEDs@k),w
  5336  0A66  3E44               	addlw	_result1&0ffh
  5337  0A67  0084               	movwf	fsr0
  5338  0A68  0854               	movf	(??_DisplayLEDs+0)+0,w
  5339  0A69  0080               	movwf	indf
  5340  0A6A  2FD1               	goto	l5224
  5341                           	line	619
  5342                           	
  5343  0A6B                     l1010:	
  5344                           	
  5345  0A6B                     l4920:	
  5346                           ;PR28.c: 619: else if(matrix[0][k] == ' ' & matrix[1][k] == 'X' & matrix[2][k] == 'O'){r
                                 esult1[k] = 0b00010001;}
  5347  0A6B  0855               	movf	(DisplayLEDs@k),w
  5348  0A6C  3E3B               	addlw	_matrix&0ffh
  5349  0A6D  0084               	movwf	fsr0
  5350  0A6E  0800               	movf	indf,w
  5351  0A6F  3A20               	xorlw	020h
  5352  0A70  1D03               	skipz
  5353  0A71  2A73               	goto	u7221
  5354  0A72  2A74               	goto	u7220
  5355  0A73                     u7221:
  5356  0A73  2A8E               	goto	l4928
  5357  0A74                     u7220:
  5358                           	
  5359  0A74                     l4922:	
  5360  0A74  0855               	movf	(DisplayLEDs@k),w
  5361  0A75  3E3E               	addlw	_matrix+03h&0ffh
  5362  0A76  0084               	movwf	fsr0
  5363  0A77  0800               	movf	indf,w
  5364  0A78  3A58               	xorlw	058h
  5365  0A79  1D03               	skipz
  5366  0A7A  2A7C               	goto	u7231
  5367  0A7B  2A7D               	goto	u7230
  5368  0A7C                     u7231:
  5369  0A7C  2A8E               	goto	l4928
  5370  0A7D                     u7230:
  5371                           	
  5372  0A7D                     l4924:	
  5373  0A7D  0855               	movf	(DisplayLEDs@k),w
  5374  0A7E  3E41               	addlw	_matrix+06h&0ffh
  5375  0A7F  0084               	movwf	fsr0
  5376  0A80  0800               	movf	indf,w
  5377  0A81  3A4F               	xorlw	04Fh
  5378  0A82  1D03               	skipz
  5379  0A83  2A85               	goto	u7241
  5380  0A84  2A86               	goto	u7240
  5381  0A85                     u7241:
  5382  0A85  2A8E               	goto	l4928
  5383  0A86                     u7240:
  5384                           	
  5385  0A86                     l4926:	
  5386  0A86  3011               	movlw	(011h)
  5387  0A87  00D4               	movwf	(??_DisplayLEDs+0)+0
  5388  0A88  0855               	movf	(DisplayLEDs@k),w
  5389  0A89  3E44               	addlw	_result1&0ffh
  5390  0A8A  0084               	movwf	fsr0
  5391  0A8B  0854               	movf	(??_DisplayLEDs+0)+0,w
  5392  0A8C  0080               	movwf	indf
  5393  0A8D  2FD1               	goto	l5224
  5394                           	line	620
  5395                           	
  5396  0A8E                     l1012:	
  5397                           	
  5398  0A8E                     l4928:	
  5399                           ;PR28.c: 620: else if(matrix[0][k] == ' ' & matrix[1][k] == 'X' & matrix[2][k] == ' '){r
                                 esult1[k] = 0b00010000;}
  5400  0A8E  0855               	movf	(DisplayLEDs@k),w
  5401  0A8F  3E3B               	addlw	_matrix&0ffh
  5402  0A90  0084               	movwf	fsr0
  5403  0A91  0800               	movf	indf,w
  5404  0A92  3A20               	xorlw	020h
  5405  0A93  1D03               	skipz
  5406  0A94  2A96               	goto	u7251
  5407  0A95  2A97               	goto	u7250
  5408  0A96                     u7251:
  5409  0A96  2AB1               	goto	l4936
  5410  0A97                     u7250:
  5411                           	
  5412  0A97                     l4930:	
  5413  0A97  0855               	movf	(DisplayLEDs@k),w
  5414  0A98  3E3E               	addlw	_matrix+03h&0ffh
  5415  0A99  0084               	movwf	fsr0
  5416  0A9A  0800               	movf	indf,w
  5417  0A9B  3A58               	xorlw	058h
  5418  0A9C  1D03               	skipz
  5419  0A9D  2A9F               	goto	u7261
  5420  0A9E  2AA0               	goto	u7260
  5421  0A9F                     u7261:
  5422  0A9F  2AB1               	goto	l4936
  5423  0AA0                     u7260:
  5424                           	
  5425  0AA0                     l4932:	
  5426  0AA0  0855               	movf	(DisplayLEDs@k),w
  5427  0AA1  3E41               	addlw	_matrix+06h&0ffh
  5428  0AA2  0084               	movwf	fsr0
  5429  0AA3  0800               	movf	indf,w
  5430  0AA4  3A20               	xorlw	020h
  5431  0AA5  1D03               	skipz
  5432  0AA6  2AA8               	goto	u7271
  5433  0AA7  2AA9               	goto	u7270
  5434  0AA8                     u7271:
  5435  0AA8  2AB1               	goto	l4936
  5436  0AA9                     u7270:
  5437                           	
  5438  0AA9                     l4934:	
  5439  0AA9  3010               	movlw	(010h)
  5440  0AAA  00D4               	movwf	(??_DisplayLEDs+0)+0
  5441  0AAB  0855               	movf	(DisplayLEDs@k),w
  5442  0AAC  3E44               	addlw	_result1&0ffh
  5443  0AAD  0084               	movwf	fsr0
  5444  0AAE  0854               	movf	(??_DisplayLEDs+0)+0,w
  5445  0AAF  0080               	movwf	indf
  5446  0AB0  2FD1               	goto	l5224
  5447                           	line	621
  5448                           	
  5449  0AB1                     l1014:	
  5450                           	
  5451  0AB1                     l4936:	
  5452                           ;PR28.c: 621: else if(matrix[0][k] == ' ' & matrix[1][k] == ' ' & matrix[2][k] == 'O'){r
                                 esult1[k] = 0b00000001;}
  5453  0AB1  0855               	movf	(DisplayLEDs@k),w
  5454  0AB2  3E3B               	addlw	_matrix&0ffh
  5455  0AB3  0084               	movwf	fsr0
  5456  0AB4  0800               	movf	indf,w
  5457  0AB5  3A20               	xorlw	020h
  5458  0AB6  1D03               	skipz
  5459  0AB7  2AB9               	goto	u7281
  5460  0AB8  2ABA               	goto	u7280
  5461  0AB9                     u7281:
  5462  0AB9  2AD3               	goto	l4944
  5463  0ABA                     u7280:
  5464                           	
  5465  0ABA                     l4938:	
  5466  0ABA  0855               	movf	(DisplayLEDs@k),w
  5467  0ABB  3E3E               	addlw	_matrix+03h&0ffh
  5468  0ABC  0084               	movwf	fsr0
  5469  0ABD  0800               	movf	indf,w
  5470  0ABE  3A20               	xorlw	020h
  5471  0ABF  1D03               	skipz
  5472  0AC0  2AC2               	goto	u7291
  5473  0AC1  2AC3               	goto	u7290
  5474  0AC2                     u7291:
  5475  0AC2  2AD3               	goto	l4944
  5476  0AC3                     u7290:
  5477                           	
  5478  0AC3                     l4940:	
  5479  0AC3  0855               	movf	(DisplayLEDs@k),w
  5480  0AC4  3E41               	addlw	_matrix+06h&0ffh
  5481  0AC5  0084               	movwf	fsr0
  5482  0AC6  0800               	movf	indf,w
  5483  0AC7  3A4F               	xorlw	04Fh
  5484  0AC8  1D03               	skipz
  5485  0AC9  2ACB               	goto	u7301
  5486  0ACA  2ACC               	goto	u7300
  5487  0ACB                     u7301:
  5488  0ACB  2AD3               	goto	l4944
  5489  0ACC                     u7300:
  5490                           	
  5491  0ACC                     l4942:	
  5492  0ACC  0855               	movf	(DisplayLEDs@k),w
  5493  0ACD  3E44               	addlw	_result1&0ffh
  5494  0ACE  0084               	movwf	fsr0
  5495  0ACF  0180               	clrf	indf
  5496  0AD0  1403               	bsf	status,0
  5497  0AD1  0D80               	rlf	indf,f
  5498  0AD2  2FD1               	goto	l5224
  5499                           	line	623
  5500                           	
  5501  0AD3                     l1016:	
  5502                           	
  5503  0AD3                     l4944:	
  5504                           ;PR28.c: 623: else if(matrix[0][k] == 'O' & matrix[1][k] == 'X' & matrix[2][k] == 'X'){r
                                 esult1[k] = 0b01010010;}
  5505  0AD3  0855               	movf	(DisplayLEDs@k),w
  5506  0AD4  3E3B               	addlw	_matrix&0ffh
  5507  0AD5  0084               	movwf	fsr0
  5508  0AD6  0800               	movf	indf,w
  5509  0AD7  3A4F               	xorlw	04Fh
  5510  0AD8  1D03               	skipz
  5511  0AD9  2ADB               	goto	u7311
  5512  0ADA  2ADC               	goto	u7310
  5513  0ADB                     u7311:
  5514  0ADB  2AF6               	goto	l4952
  5515  0ADC                     u7310:
  5516                           	
  5517  0ADC                     l4946:	
  5518  0ADC  0855               	movf	(DisplayLEDs@k),w
  5519  0ADD  3E3E               	addlw	_matrix+03h&0ffh
  5520  0ADE  0084               	movwf	fsr0
  5521  0ADF  0800               	movf	indf,w
  5522  0AE0  3A58               	xorlw	058h
  5523  0AE1  1D03               	skipz
  5524  0AE2  2AE4               	goto	u7321
  5525  0AE3  2AE5               	goto	u7320
  5526  0AE4                     u7321:
  5527  0AE4  2AF6               	goto	l4952
  5528  0AE5                     u7320:
  5529                           	
  5530  0AE5                     l4948:	
  5531  0AE5  0855               	movf	(DisplayLEDs@k),w
  5532  0AE6  3E41               	addlw	_matrix+06h&0ffh
  5533  0AE7  0084               	movwf	fsr0
  5534  0AE8  0800               	movf	indf,w
  5535  0AE9  3A58               	xorlw	058h
  5536  0AEA  1D03               	skipz
  5537  0AEB  2AED               	goto	u7331
  5538  0AEC  2AEE               	goto	u7330
  5539  0AED                     u7331:
  5540  0AED  2AF6               	goto	l4952
  5541  0AEE                     u7330:
  5542                           	
  5543  0AEE                     l4950:	
  5544  0AEE  3052               	movlw	(052h)
  5545  0AEF  00D4               	movwf	(??_DisplayLEDs+0)+0
  5546  0AF0  0855               	movf	(DisplayLEDs@k),w
  5547  0AF1  3E44               	addlw	_result1&0ffh
  5548  0AF2  0084               	movwf	fsr0
  5549  0AF3  0854               	movf	(??_DisplayLEDs+0)+0,w
  5550  0AF4  0080               	movwf	indf
  5551  0AF5  2FD1               	goto	l5224
  5552                           	line	624
  5553                           	
  5554  0AF6                     l1018:	
  5555                           	
  5556  0AF6                     l4952:	
  5557                           ;PR28.c: 624: else if(matrix[0][k] == 'O' & matrix[1][k] == 'X' & matrix[2][k] == ' '){r
                                 esult1[k] = 0b01010000;}
  5558  0AF6  0855               	movf	(DisplayLEDs@k),w
  5559  0AF7  3E3B               	addlw	_matrix&0ffh
  5560  0AF8  0084               	movwf	fsr0
  5561  0AF9  0800               	movf	indf,w
  5562  0AFA  3A4F               	xorlw	04Fh
  5563  0AFB  1D03               	skipz
  5564  0AFC  2AFE               	goto	u7341
  5565  0AFD  2AFF               	goto	u7340
  5566  0AFE                     u7341:
  5567  0AFE  2B19               	goto	l4960
  5568  0AFF                     u7340:
  5569                           	
  5570  0AFF                     l4954:	
  5571  0AFF  0855               	movf	(DisplayLEDs@k),w
  5572  0B00  3E3E               	addlw	_matrix+03h&0ffh
  5573  0B01  0084               	movwf	fsr0
  5574  0B02  0800               	movf	indf,w
  5575  0B03  3A58               	xorlw	058h
  5576  0B04  1D03               	skipz
  5577  0B05  2B07               	goto	u7351
  5578  0B06  2B08               	goto	u7350
  5579  0B07                     u7351:
  5580  0B07  2B19               	goto	l4960
  5581  0B08                     u7350:
  5582                           	
  5583  0B08                     l4956:	
  5584  0B08  0855               	movf	(DisplayLEDs@k),w
  5585  0B09  3E41               	addlw	_matrix+06h&0ffh
  5586  0B0A  0084               	movwf	fsr0
  5587  0B0B  0800               	movf	indf,w
  5588  0B0C  3A20               	xorlw	020h
  5589  0B0D  1D03               	skipz
  5590  0B0E  2B10               	goto	u7361
  5591  0B0F  2B11               	goto	u7360
  5592  0B10                     u7361:
  5593  0B10  2B19               	goto	l4960
  5594  0B11                     u7360:
  5595                           	
  5596  0B11                     l4958:	
  5597  0B11  3050               	movlw	(050h)
  5598  0B12  00D4               	movwf	(??_DisplayLEDs+0)+0
  5599  0B13  0855               	movf	(DisplayLEDs@k),w
  5600  0B14  3E44               	addlw	_result1&0ffh
  5601  0B15  0084               	movwf	fsr0
  5602  0B16  0854               	movf	(??_DisplayLEDs+0)+0,w
  5603  0B17  0080               	movwf	indf
  5604  0B18  2FD1               	goto	l5224
  5605                           	line	625
  5606                           	
  5607  0B19                     l1020:	
  5608                           	
  5609  0B19                     l4960:	
  5610                           ;PR28.c: 625: else if(matrix[0][k] == 'O' & matrix[1][k] == ' ' & matrix[2][k] == 'X'){r
                                 esult1[k] = 0b01000010;}
  5611  0B19  0855               	movf	(DisplayLEDs@k),w
  5612  0B1A  3E3B               	addlw	_matrix&0ffh
  5613  0B1B  0084               	movwf	fsr0
  5614  0B1C  0800               	movf	indf,w
  5615  0B1D  3A4F               	xorlw	04Fh
  5616  0B1E  1D03               	skipz
  5617  0B1F  2B21               	goto	u7371
  5618  0B20  2B22               	goto	u7370
  5619  0B21                     u7371:
  5620  0B21  2B3C               	goto	l4968
  5621  0B22                     u7370:
  5622                           	
  5623  0B22                     l4962:	
  5624  0B22  0855               	movf	(DisplayLEDs@k),w
  5625  0B23  3E3E               	addlw	_matrix+03h&0ffh
  5626  0B24  0084               	movwf	fsr0
  5627  0B25  0800               	movf	indf,w
  5628  0B26  3A20               	xorlw	020h
  5629  0B27  1D03               	skipz
  5630  0B28  2B2A               	goto	u7381
  5631  0B29  2B2B               	goto	u7380
  5632  0B2A                     u7381:
  5633  0B2A  2B3C               	goto	l4968
  5634  0B2B                     u7380:
  5635                           	
  5636  0B2B                     l4964:	
  5637  0B2B  0855               	movf	(DisplayLEDs@k),w
  5638  0B2C  3E41               	addlw	_matrix+06h&0ffh
  5639  0B2D  0084               	movwf	fsr0
  5640  0B2E  0800               	movf	indf,w
  5641  0B2F  3A58               	xorlw	058h
  5642  0B30  1D03               	skipz
  5643  0B31  2B33               	goto	u7391
  5644  0B32  2B34               	goto	u7390
  5645  0B33                     u7391:
  5646  0B33  2B3C               	goto	l4968
  5647  0B34                     u7390:
  5648                           	
  5649  0B34                     l4966:	
  5650  0B34  3042               	movlw	(042h)
  5651  0B35  00D4               	movwf	(??_DisplayLEDs+0)+0
  5652  0B36  0855               	movf	(DisplayLEDs@k),w
  5653  0B37  3E44               	addlw	_result1&0ffh
  5654  0B38  0084               	movwf	fsr0
  5655  0B39  0854               	movf	(??_DisplayLEDs+0)+0,w
  5656  0B3A  0080               	movwf	indf
  5657  0B3B  2FD1               	goto	l5224
  5658                           	line	626
  5659                           	
  5660  0B3C                     l1022:	
  5661                           	
  5662  0B3C                     l4968:	
  5663                           ;PR28.c: 626: else if(matrix[0][k] == 'O' & matrix[1][k] == ' ' & matrix[2][k] == ' '){r
                                 esult1[k] = 0b01000000;}
  5664  0B3C  0855               	movf	(DisplayLEDs@k),w
  5665  0B3D  3E3B               	addlw	_matrix&0ffh
  5666  0B3E  0084               	movwf	fsr0
  5667  0B3F  0800               	movf	indf,w
  5668  0B40  3A4F               	xorlw	04Fh
  5669  0B41  1D03               	skipz
  5670  0B42  2B44               	goto	u7401
  5671  0B43  2B45               	goto	u7400
  5672  0B44                     u7401:
  5673  0B44  2B5F               	goto	l4976
  5674  0B45                     u7400:
  5675                           	
  5676  0B45                     l4970:	
  5677  0B45  0855               	movf	(DisplayLEDs@k),w
  5678  0B46  3E3E               	addlw	_matrix+03h&0ffh
  5679  0B47  0084               	movwf	fsr0
  5680  0B48  0800               	movf	indf,w
  5681  0B49  3A20               	xorlw	020h
  5682  0B4A  1D03               	skipz
  5683  0B4B  2B4D               	goto	u7411
  5684  0B4C  2B4E               	goto	u7410
  5685  0B4D                     u7411:
  5686  0B4D  2B5F               	goto	l4976
  5687  0B4E                     u7410:
  5688                           	
  5689  0B4E                     l4972:	
  5690  0B4E  0855               	movf	(DisplayLEDs@k),w
  5691  0B4F  3E41               	addlw	_matrix+06h&0ffh
  5692  0B50  0084               	movwf	fsr0
  5693  0B51  0800               	movf	indf,w
  5694  0B52  3A20               	xorlw	020h
  5695  0B53  1D03               	skipz
  5696  0B54  2B56               	goto	u7421
  5697  0B55  2B57               	goto	u7420
  5698  0B56                     u7421:
  5699  0B56  2B5F               	goto	l4976
  5700  0B57                     u7420:
  5701                           	
  5702  0B57                     l4974:	
  5703  0B57  3040               	movlw	(040h)
  5704  0B58  00D4               	movwf	(??_DisplayLEDs+0)+0
  5705  0B59  0855               	movf	(DisplayLEDs@k),w
  5706  0B5A  3E44               	addlw	_result1&0ffh
  5707  0B5B  0084               	movwf	fsr0
  5708  0B5C  0854               	movf	(??_DisplayLEDs+0)+0,w
  5709  0B5D  0080               	movwf	indf
  5710  0B5E  2FD1               	goto	l5224
  5711                           	line	627
  5712                           	
  5713  0B5F                     l1024:	
  5714                           	
  5715  0B5F                     l4976:	
  5716                           ;PR28.c: 627: else if(matrix[0][k] == ' ' & matrix[1][k] == 'X' & matrix[2][k] == 'X'){r
                                 esult1[k] = 0b00010010;}
  5717  0B5F  0855               	movf	(DisplayLEDs@k),w
  5718  0B60  3E3B               	addlw	_matrix&0ffh
  5719  0B61  0084               	movwf	fsr0
  5720  0B62  0800               	movf	indf,w
  5721  0B63  3A20               	xorlw	020h
  5722  0B64  1D03               	skipz
  5723  0B65  2B67               	goto	u7431
  5724  0B66  2B68               	goto	u7430
  5725  0B67                     u7431:
  5726  0B67  2B82               	goto	l4984
  5727  0B68                     u7430:
  5728                           	
  5729  0B68                     l4978:	
  5730  0B68  0855               	movf	(DisplayLEDs@k),w
  5731  0B69  3E3E               	addlw	_matrix+03h&0ffh
  5732  0B6A  0084               	movwf	fsr0
  5733  0B6B  0800               	movf	indf,w
  5734  0B6C  3A58               	xorlw	058h
  5735  0B6D  1D03               	skipz
  5736  0B6E  2B70               	goto	u7441
  5737  0B6F  2B71               	goto	u7440
  5738  0B70                     u7441:
  5739  0B70  2B82               	goto	l4984
  5740  0B71                     u7440:
  5741                           	
  5742  0B71                     l4980:	
  5743  0B71  0855               	movf	(DisplayLEDs@k),w
  5744  0B72  3E41               	addlw	_matrix+06h&0ffh
  5745  0B73  0084               	movwf	fsr0
  5746  0B74  0800               	movf	indf,w
  5747  0B75  3A58               	xorlw	058h
  5748  0B76  1D03               	skipz
  5749  0B77  2B79               	goto	u7451
  5750  0B78  2B7A               	goto	u7450
  5751  0B79                     u7451:
  5752  0B79  2B82               	goto	l4984
  5753  0B7A                     u7450:
  5754                           	
  5755  0B7A                     l4982:	
  5756  0B7A  3012               	movlw	(012h)
  5757  0B7B  00D4               	movwf	(??_DisplayLEDs+0)+0
  5758  0B7C  0855               	movf	(DisplayLEDs@k),w
  5759  0B7D  3E44               	addlw	_result1&0ffh
  5760  0B7E  0084               	movwf	fsr0
  5761  0B7F  0854               	movf	(??_DisplayLEDs+0)+0,w
  5762  0B80  0080               	movwf	indf
  5763  0B81  2FD1               	goto	l5224
  5764                           	line	628
  5765                           	
  5766  0B82                     l1026:	
  5767                           	
  5768  0B82                     l4984:	
  5769                           ;PR28.c: 628: else if(matrix[0][k] == ' ' & matrix[1][k] == 'X' & matrix[2][k] == ' '){r
                                 esult1[k] = 0b00010000;}
  5770  0B82  0855               	movf	(DisplayLEDs@k),w
  5771  0B83  3E3B               	addlw	_matrix&0ffh
  5772  0B84  0084               	movwf	fsr0
  5773  0B85  0800               	movf	indf,w
  5774  0B86  3A20               	xorlw	020h
  5775  0B87  1D03               	skipz
  5776  0B88  2B8A               	goto	u7461
  5777  0B89  2B8B               	goto	u7460
  5778  0B8A                     u7461:
  5779  0B8A  2BA5               	goto	l4992
  5780  0B8B                     u7460:
  5781                           	
  5782  0B8B                     l4986:	
  5783  0B8B  0855               	movf	(DisplayLEDs@k),w
  5784  0B8C  3E3E               	addlw	_matrix+03h&0ffh
  5785  0B8D  0084               	movwf	fsr0
  5786  0B8E  0800               	movf	indf,w
  5787  0B8F  3A58               	xorlw	058h
  5788  0B90  1D03               	skipz
  5789  0B91  2B93               	goto	u7471
  5790  0B92  2B94               	goto	u7470
  5791  0B93                     u7471:
  5792  0B93  2BA5               	goto	l4992
  5793  0B94                     u7470:
  5794                           	
  5795  0B94                     l4988:	
  5796  0B94  0855               	movf	(DisplayLEDs@k),w
  5797  0B95  3E41               	addlw	_matrix+06h&0ffh
  5798  0B96  0084               	movwf	fsr0
  5799  0B97  0800               	movf	indf,w
  5800  0B98  3A20               	xorlw	020h
  5801  0B99  1D03               	skipz
  5802  0B9A  2B9C               	goto	u7481
  5803  0B9B  2B9D               	goto	u7480
  5804  0B9C                     u7481:
  5805  0B9C  2BA5               	goto	l4992
  5806  0B9D                     u7480:
  5807                           	
  5808  0B9D                     l4990:	
  5809  0B9D  3010               	movlw	(010h)
  5810  0B9E  00D4               	movwf	(??_DisplayLEDs+0)+0
  5811  0B9F  0855               	movf	(DisplayLEDs@k),w
  5812  0BA0  3E44               	addlw	_result1&0ffh
  5813  0BA1  0084               	movwf	fsr0
  5814  0BA2  0854               	movf	(??_DisplayLEDs+0)+0,w
  5815  0BA3  0080               	movwf	indf
  5816  0BA4  2FD1               	goto	l5224
  5817                           	line	629
  5818                           	
  5819  0BA5                     l1028:	
  5820                           	
  5821  0BA5                     l4992:	
  5822                           ;PR28.c: 629: else if(matrix[0][k] == ' ' & matrix[1][k] == ' ' & matrix[2][k] == 'X'){r
                                 esult1[k] = 0b00000010;}
  5823  0BA5  0855               	movf	(DisplayLEDs@k),w
  5824  0BA6  3E3B               	addlw	_matrix&0ffh
  5825  0BA7  0084               	movwf	fsr0
  5826  0BA8  0800               	movf	indf,w
  5827  0BA9  3A20               	xorlw	020h
  5828  0BAA  1D03               	skipz
  5829  0BAB  2BAD               	goto	u7491
  5830  0BAC  2BAE               	goto	u7490
  5831  0BAD                     u7491:
  5832  0BAD  2BC8               	goto	l5000
  5833  0BAE                     u7490:
  5834                           	
  5835  0BAE                     l4994:	
  5836  0BAE  0855               	movf	(DisplayLEDs@k),w
  5837  0BAF  3E3E               	addlw	_matrix+03h&0ffh
  5838  0BB0  0084               	movwf	fsr0
  5839  0BB1  0800               	movf	indf,w
  5840  0BB2  3A20               	xorlw	020h
  5841  0BB3  1D03               	skipz
  5842  0BB4  2BB6               	goto	u7501
  5843  0BB5  2BB7               	goto	u7500
  5844  0BB6                     u7501:
  5845  0BB6  2BC8               	goto	l5000
  5846  0BB7                     u7500:
  5847                           	
  5848  0BB7                     l4996:	
  5849  0BB7  0855               	movf	(DisplayLEDs@k),w
  5850  0BB8  3E41               	addlw	_matrix+06h&0ffh
  5851  0BB9  0084               	movwf	fsr0
  5852  0BBA  0800               	movf	indf,w
  5853  0BBB  3A58               	xorlw	058h
  5854  0BBC  1D03               	skipz
  5855  0BBD  2BBF               	goto	u7511
  5856  0BBE  2BC0               	goto	u7510
  5857  0BBF                     u7511:
  5858  0BBF  2BC8               	goto	l5000
  5859  0BC0                     u7510:
  5860                           	
  5861  0BC0                     l4998:	
  5862  0BC0  3002               	movlw	(02h)
  5863  0BC1  00D4               	movwf	(??_DisplayLEDs+0)+0
  5864  0BC2  0855               	movf	(DisplayLEDs@k),w
  5865  0BC3  3E44               	addlw	_result1&0ffh
  5866  0BC4  0084               	movwf	fsr0
  5867  0BC5  0854               	movf	(??_DisplayLEDs+0)+0,w
  5868  0BC6  0080               	movwf	indf
  5869  0BC7  2FD1               	goto	l5224
  5870                           	line	631
  5871                           	
  5872  0BC8                     l1030:	
  5873                           	
  5874  0BC8                     l5000:	
  5875                           ;PR28.c: 631: else if(matrix[0][k] == 'X' & matrix[1][k] == 'O' & matrix[2][k] == 'O'){r
                                 esult1[k] = 0b10001001;}
  5876  0BC8  0855               	movf	(DisplayLEDs@k),w
  5877  0BC9  3E3B               	addlw	_matrix&0ffh
  5878  0BCA  0084               	movwf	fsr0
  5879  0BCB  0800               	movf	indf,w
  5880  0BCC  3A58               	xorlw	058h
  5881  0BCD  1D03               	skipz
  5882  0BCE  2BD0               	goto	u7521
  5883  0BCF  2BD1               	goto	u7520
  5884  0BD0                     u7521:
  5885  0BD0  2BEB               	goto	l5008
  5886  0BD1                     u7520:
  5887                           	
  5888  0BD1                     l5002:	
  5889  0BD1  0855               	movf	(DisplayLEDs@k),w
  5890  0BD2  3E3E               	addlw	_matrix+03h&0ffh
  5891  0BD3  0084               	movwf	fsr0
  5892  0BD4  0800               	movf	indf,w
  5893  0BD5  3A4F               	xorlw	04Fh
  5894  0BD6  1D03               	skipz
  5895  0BD7  2BD9               	goto	u7531
  5896  0BD8  2BDA               	goto	u7530
  5897  0BD9                     u7531:
  5898  0BD9  2BEB               	goto	l5008
  5899  0BDA                     u7530:
  5900                           	
  5901  0BDA                     l5004:	
  5902  0BDA  0855               	movf	(DisplayLEDs@k),w
  5903  0BDB  3E41               	addlw	_matrix+06h&0ffh
  5904  0BDC  0084               	movwf	fsr0
  5905  0BDD  0800               	movf	indf,w
  5906  0BDE  3A4F               	xorlw	04Fh
  5907  0BDF  1D03               	skipz
  5908  0BE0  2BE2               	goto	u7541
  5909  0BE1  2BE3               	goto	u7540
  5910  0BE2                     u7541:
  5911  0BE2  2BEB               	goto	l5008
  5912  0BE3                     u7540:
  5913                           	
  5914  0BE3                     l5006:	
  5915  0BE3  3089               	movlw	(089h)
  5916  0BE4  00D4               	movwf	(??_DisplayLEDs+0)+0
  5917  0BE5  0855               	movf	(DisplayLEDs@k),w
  5918  0BE6  3E44               	addlw	_result1&0ffh
  5919  0BE7  0084               	movwf	fsr0
  5920  0BE8  0854               	movf	(??_DisplayLEDs+0)+0,w
  5921  0BE9  0080               	movwf	indf
  5922  0BEA  2FD1               	goto	l5224
  5923                           	line	632
  5924                           	
  5925  0BEB                     l1032:	
  5926                           	
  5927  0BEB                     l5008:	
  5928                           ;PR28.c: 632: else if(matrix[0][k] == 'X' & matrix[1][k] == 'O' & matrix[2][k] == ' '){r
                                 esult1[k] = 0b10001000;}
  5929  0BEB  0855               	movf	(DisplayLEDs@k),w
  5930  0BEC  3E3B               	addlw	_matrix&0ffh
  5931  0BED  0084               	movwf	fsr0
  5932  0BEE  0800               	movf	indf,w
  5933  0BEF  3A58               	xorlw	058h
  5934  0BF0  1D03               	skipz
  5935  0BF1  2BF3               	goto	u7551
  5936  0BF2  2BF4               	goto	u7550
  5937  0BF3                     u7551:
  5938  0BF3  2C0E               	goto	l5016
  5939  0BF4                     u7550:
  5940                           	
  5941  0BF4                     l5010:	
  5942  0BF4  0855               	movf	(DisplayLEDs@k),w
  5943  0BF5  3E3E               	addlw	_matrix+03h&0ffh
  5944  0BF6  0084               	movwf	fsr0
  5945  0BF7  0800               	movf	indf,w
  5946  0BF8  3A4F               	xorlw	04Fh
  5947  0BF9  1D03               	skipz
  5948  0BFA  2BFC               	goto	u7561
  5949  0BFB  2BFD               	goto	u7560
  5950  0BFC                     u7561:
  5951  0BFC  2C0E               	goto	l5016
  5952  0BFD                     u7560:
  5953                           	
  5954  0BFD                     l5012:	
  5955  0BFD  0855               	movf	(DisplayLEDs@k),w
  5956  0BFE  3E41               	addlw	_matrix+06h&0ffh
  5957  0BFF  0084               	movwf	fsr0
  5958  0C00  0800               	movf	indf,w
  5959  0C01  3A20               	xorlw	020h
  5960  0C02  1D03               	skipz
  5961  0C03  2C05               	goto	u7571
  5962  0C04  2C06               	goto	u7570
  5963  0C05                     u7571:
  5964  0C05  2C0E               	goto	l5016
  5965  0C06                     u7570:
  5966                           	
  5967  0C06                     l5014:	
  5968  0C06  3088               	movlw	(088h)
  5969  0C07  00D4               	movwf	(??_DisplayLEDs+0)+0
  5970  0C08  0855               	movf	(DisplayLEDs@k),w
  5971  0C09  3E44               	addlw	_result1&0ffh
  5972  0C0A  0084               	movwf	fsr0
  5973  0C0B  0854               	movf	(??_DisplayLEDs+0)+0,w
  5974  0C0C  0080               	movwf	indf
  5975  0C0D  2FD1               	goto	l5224
  5976                           	line	633
  5977                           	
  5978  0C0E                     l1034:	
  5979                           	
  5980  0C0E                     l5016:	
  5981                           ;PR28.c: 633: else if(matrix[0][k] == 'X' & matrix[1][k] == ' ' & matrix[2][k] == 'O'){r
                                 esult1[k] = 0b10000001;}
  5982  0C0E  0855               	movf	(DisplayLEDs@k),w
  5983  0C0F  3E3B               	addlw	_matrix&0ffh
  5984  0C10  0084               	movwf	fsr0
  5985  0C11  0800               	movf	indf,w
  5986  0C12  3A58               	xorlw	058h
  5987  0C13  1D03               	skipz
  5988  0C14  2C16               	goto	u7581
  5989  0C15  2C17               	goto	u7580
  5990  0C16                     u7581:
  5991  0C16  2C31               	goto	l5024
  5992  0C17                     u7580:
  5993                           	
  5994  0C17                     l5018:	
  5995  0C17  0855               	movf	(DisplayLEDs@k),w
  5996  0C18  3E3E               	addlw	_matrix+03h&0ffh
  5997  0C19  0084               	movwf	fsr0
  5998  0C1A  0800               	movf	indf,w
  5999  0C1B  3A20               	xorlw	020h
  6000  0C1C  1D03               	skipz
  6001  0C1D  2C1F               	goto	u7591
  6002  0C1E  2C20               	goto	u7590
  6003  0C1F                     u7591:
  6004  0C1F  2C31               	goto	l5024
  6005  0C20                     u7590:
  6006                           	
  6007  0C20                     l5020:	
  6008  0C20  0855               	movf	(DisplayLEDs@k),w
  6009  0C21  3E41               	addlw	_matrix+06h&0ffh
  6010  0C22  0084               	movwf	fsr0
  6011  0C23  0800               	movf	indf,w
  6012  0C24  3A4F               	xorlw	04Fh
  6013  0C25  1D03               	skipz
  6014  0C26  2C28               	goto	u7601
  6015  0C27  2C29               	goto	u7600
  6016  0C28                     u7601:
  6017  0C28  2C31               	goto	l5024
  6018  0C29                     u7600:
  6019                           	
  6020  0C29                     l5022:	
  6021  0C29  3081               	movlw	(081h)
  6022  0C2A  00D4               	movwf	(??_DisplayLEDs+0)+0
  6023  0C2B  0855               	movf	(DisplayLEDs@k),w
  6024  0C2C  3E44               	addlw	_result1&0ffh
  6025  0C2D  0084               	movwf	fsr0
  6026  0C2E  0854               	movf	(??_DisplayLEDs+0)+0,w
  6027  0C2F  0080               	movwf	indf
  6028  0C30  2FD1               	goto	l5224
  6029                           	line	634
  6030                           	
  6031  0C31                     l1036:	
  6032                           	
  6033  0C31                     l5024:	
  6034                           ;PR28.c: 634: else if(matrix[0][k] == 'X' & matrix[1][k] == ' ' & matrix[2][k] == ' '){r
                                 esult1[k] = 0b10000000;}
  6035  0C31  0855               	movf	(DisplayLEDs@k),w
  6036  0C32  3E3B               	addlw	_matrix&0ffh
  6037  0C33  0084               	movwf	fsr0
  6038  0C34  0800               	movf	indf,w
  6039  0C35  3A58               	xorlw	058h
  6040  0C36  1D03               	skipz
  6041  0C37  2C39               	goto	u7611
  6042  0C38  2C3A               	goto	u7610
  6043  0C39                     u7611:
  6044  0C39  2C54               	goto	l5032
  6045  0C3A                     u7610:
  6046                           	
  6047  0C3A                     l5026:	
  6048  0C3A  0855               	movf	(DisplayLEDs@k),w
  6049  0C3B  3E3E               	addlw	_matrix+03h&0ffh
  6050  0C3C  0084               	movwf	fsr0
  6051  0C3D  0800               	movf	indf,w
  6052  0C3E  3A20               	xorlw	020h
  6053  0C3F  1D03               	skipz
  6054  0C40  2C42               	goto	u7621
  6055  0C41  2C43               	goto	u7620
  6056  0C42                     u7621:
  6057  0C42  2C54               	goto	l5032
  6058  0C43                     u7620:
  6059                           	
  6060  0C43                     l5028:	
  6061  0C43  0855               	movf	(DisplayLEDs@k),w
  6062  0C44  3E41               	addlw	_matrix+06h&0ffh
  6063  0C45  0084               	movwf	fsr0
  6064  0C46  0800               	movf	indf,w
  6065  0C47  3A20               	xorlw	020h
  6066  0C48  1D03               	skipz
  6067  0C49  2C4B               	goto	u7631
  6068  0C4A  2C4C               	goto	u7630
  6069  0C4B                     u7631:
  6070  0C4B  2C54               	goto	l5032
  6071  0C4C                     u7630:
  6072                           	
  6073  0C4C                     l5030:	
  6074  0C4C  3080               	movlw	(080h)
  6075  0C4D  00D4               	movwf	(??_DisplayLEDs+0)+0
  6076  0C4E  0855               	movf	(DisplayLEDs@k),w
  6077  0C4F  3E44               	addlw	_result1&0ffh
  6078  0C50  0084               	movwf	fsr0
  6079  0C51  0854               	movf	(??_DisplayLEDs+0)+0,w
  6080  0C52  0080               	movwf	indf
  6081  0C53  2FD1               	goto	l5224
  6082                           	line	635
  6083                           	
  6084  0C54                     l1038:	
  6085                           	
  6086  0C54                     l5032:	
  6087                           ;PR28.c: 635: else if(matrix[0][k] == ' ' & matrix[1][k] == 'O' & matrix[2][k] == 'O'){r
                                 esult1[k] = 0b00001001;}
  6088  0C54  0855               	movf	(DisplayLEDs@k),w
  6089  0C55  3E3B               	addlw	_matrix&0ffh
  6090  0C56  0084               	movwf	fsr0
  6091  0C57  0800               	movf	indf,w
  6092  0C58  3A20               	xorlw	020h
  6093  0C59  1D03               	skipz
  6094  0C5A  2C5C               	goto	u7641
  6095  0C5B  2C5D               	goto	u7640
  6096  0C5C                     u7641:
  6097  0C5C  2C77               	goto	l5040
  6098  0C5D                     u7640:
  6099                           	
  6100  0C5D                     l5034:	
  6101  0C5D  0855               	movf	(DisplayLEDs@k),w
  6102  0C5E  3E3E               	addlw	_matrix+03h&0ffh
  6103  0C5F  0084               	movwf	fsr0
  6104  0C60  0800               	movf	indf,w
  6105  0C61  3A4F               	xorlw	04Fh
  6106  0C62  1D03               	skipz
  6107  0C63  2C65               	goto	u7651
  6108  0C64  2C66               	goto	u7650
  6109  0C65                     u7651:
  6110  0C65  2C77               	goto	l5040
  6111  0C66                     u7650:
  6112                           	
  6113  0C66                     l5036:	
  6114  0C66  0855               	movf	(DisplayLEDs@k),w
  6115  0C67  3E41               	addlw	_matrix+06h&0ffh
  6116  0C68  0084               	movwf	fsr0
  6117  0C69  0800               	movf	indf,w
  6118  0C6A  3A4F               	xorlw	04Fh
  6119  0C6B  1D03               	skipz
  6120  0C6C  2C6E               	goto	u7661
  6121  0C6D  2C6F               	goto	u7660
  6122  0C6E                     u7661:
  6123  0C6E  2C77               	goto	l5040
  6124  0C6F                     u7660:
  6125                           	
  6126  0C6F                     l5038:	
  6127  0C6F  3009               	movlw	(09h)
  6128  0C70  00D4               	movwf	(??_DisplayLEDs+0)+0
  6129  0C71  0855               	movf	(DisplayLEDs@k),w
  6130  0C72  3E44               	addlw	_result1&0ffh
  6131  0C73  0084               	movwf	fsr0
  6132  0C74  0854               	movf	(??_DisplayLEDs+0)+0,w
  6133  0C75  0080               	movwf	indf
  6134  0C76  2FD1               	goto	l5224
  6135                           	line	636
  6136                           	
  6137  0C77                     l1040:	
  6138                           	
  6139  0C77                     l5040:	
  6140                           ;PR28.c: 636: else if(matrix[0][k] == ' ' & matrix[1][k] == 'O' & matrix[2][k] == ' '){r
                                 esult1[k] = 0b00001000;}
  6141  0C77  0855               	movf	(DisplayLEDs@k),w
  6142  0C78  3E3B               	addlw	_matrix&0ffh
  6143  0C79  0084               	movwf	fsr0
  6144  0C7A  0800               	movf	indf,w
  6145  0C7B  3A20               	xorlw	020h
  6146  0C7C  1D03               	skipz
  6147  0C7D  2C7F               	goto	u7671
  6148  0C7E  2C80               	goto	u7670
  6149  0C7F                     u7671:
  6150  0C7F  2C9A               	goto	l5048
  6151  0C80                     u7670:
  6152                           	
  6153  0C80                     l5042:	
  6154  0C80  0855               	movf	(DisplayLEDs@k),w
  6155  0C81  3E3E               	addlw	_matrix+03h&0ffh
  6156  0C82  0084               	movwf	fsr0
  6157  0C83  0800               	movf	indf,w
  6158  0C84  3A4F               	xorlw	04Fh
  6159  0C85  1D03               	skipz
  6160  0C86  2C88               	goto	u7681
  6161  0C87  2C89               	goto	u7680
  6162  0C88                     u7681:
  6163  0C88  2C9A               	goto	l5048
  6164  0C89                     u7680:
  6165                           	
  6166  0C89                     l5044:	
  6167  0C89  0855               	movf	(DisplayLEDs@k),w
  6168  0C8A  3E41               	addlw	_matrix+06h&0ffh
  6169  0C8B  0084               	movwf	fsr0
  6170  0C8C  0800               	movf	indf,w
  6171  0C8D  3A20               	xorlw	020h
  6172  0C8E  1D03               	skipz
  6173  0C8F  2C91               	goto	u7691
  6174  0C90  2C92               	goto	u7690
  6175  0C91                     u7691:
  6176  0C91  2C9A               	goto	l5048
  6177  0C92                     u7690:
  6178                           	
  6179  0C92                     l5046:	
  6180  0C92  3008               	movlw	(08h)
  6181  0C93  00D4               	movwf	(??_DisplayLEDs+0)+0
  6182  0C94  0855               	movf	(DisplayLEDs@k),w
  6183  0C95  3E44               	addlw	_result1&0ffh
  6184  0C96  0084               	movwf	fsr0
  6185  0C97  0854               	movf	(??_DisplayLEDs+0)+0,w
  6186  0C98  0080               	movwf	indf
  6187  0C99  2FD1               	goto	l5224
  6188                           	line	637
  6189                           	
  6190  0C9A                     l1042:	
  6191                           	
  6192  0C9A                     l5048:	
  6193                           ;PR28.c: 637: else if(matrix[0][k] == ' ' & matrix[1][k] == ' ' & matrix[2][k] == 'O'){r
                                 esult1[k] = 0b00000001;}
  6194  0C9A  0855               	movf	(DisplayLEDs@k),w
  6195  0C9B  3E3B               	addlw	_matrix&0ffh
  6196  0C9C  0084               	movwf	fsr0
  6197  0C9D  0800               	movf	indf,w
  6198  0C9E  3A20               	xorlw	020h
  6199  0C9F  1D03               	skipz
  6200  0CA0  2CA2               	goto	u7701
  6201  0CA1  2CA3               	goto	u7700
  6202  0CA2                     u7701:
  6203  0CA2  2CBC               	goto	l5056
  6204  0CA3                     u7700:
  6205                           	
  6206  0CA3                     l5050:	
  6207  0CA3  0855               	movf	(DisplayLEDs@k),w
  6208  0CA4  3E3E               	addlw	_matrix+03h&0ffh
  6209  0CA5  0084               	movwf	fsr0
  6210  0CA6  0800               	movf	indf,w
  6211  0CA7  3A20               	xorlw	020h
  6212  0CA8  1D03               	skipz
  6213  0CA9  2CAB               	goto	u7711
  6214  0CAA  2CAC               	goto	u7710
  6215  0CAB                     u7711:
  6216  0CAB  2CBC               	goto	l5056
  6217  0CAC                     u7710:
  6218                           	
  6219  0CAC                     l5052:	
  6220  0CAC  0855               	movf	(DisplayLEDs@k),w
  6221  0CAD  3E41               	addlw	_matrix+06h&0ffh
  6222  0CAE  0084               	movwf	fsr0
  6223  0CAF  0800               	movf	indf,w
  6224  0CB0  3A4F               	xorlw	04Fh
  6225  0CB1  1D03               	skipz
  6226  0CB2  2CB4               	goto	u7721
  6227  0CB3  2CB5               	goto	u7720
  6228  0CB4                     u7721:
  6229  0CB4  2CBC               	goto	l5056
  6230  0CB5                     u7720:
  6231                           	
  6232  0CB5                     l5054:	
  6233  0CB5  0855               	movf	(DisplayLEDs@k),w
  6234  0CB6  3E44               	addlw	_result1&0ffh
  6235  0CB7  0084               	movwf	fsr0
  6236  0CB8  0180               	clrf	indf
  6237  0CB9  1403               	bsf	status,0
  6238  0CBA  0D80               	rlf	indf,f
  6239  0CBB  2FD1               	goto	l5224
  6240                           	line	639
  6241                           	
  6242  0CBC                     l1044:	
  6243                           	
  6244  0CBC                     l5056:	
  6245                           ;PR28.c: 639: else if(matrix[0][k] == 'X' & matrix[1][k] == 'O' & matrix[2][k] == 'X'){r
                                 esult1[k] = 0b10001010;}
  6246  0CBC  0855               	movf	(DisplayLEDs@k),w
  6247  0CBD  3E3B               	addlw	_matrix&0ffh
  6248  0CBE  0084               	movwf	fsr0
  6249  0CBF  0800               	movf	indf,w
  6250  0CC0  3A58               	xorlw	058h
  6251  0CC1  1D03               	skipz
  6252  0CC2  2CC4               	goto	u7731
  6253  0CC3  2CC5               	goto	u7730
  6254  0CC4                     u7731:
  6255  0CC4  2CDF               	goto	l5064
  6256  0CC5                     u7730:
  6257                           	
  6258  0CC5                     l5058:	
  6259  0CC5  0855               	movf	(DisplayLEDs@k),w
  6260  0CC6  3E3E               	addlw	_matrix+03h&0ffh
  6261  0CC7  0084               	movwf	fsr0
  6262  0CC8  0800               	movf	indf,w
  6263  0CC9  3A4F               	xorlw	04Fh
  6264  0CCA  1D03               	skipz
  6265  0CCB  2CCD               	goto	u7741
  6266  0CCC  2CCE               	goto	u7740
  6267  0CCD                     u7741:
  6268  0CCD  2CDF               	goto	l5064
  6269  0CCE                     u7740:
  6270                           	
  6271  0CCE                     l5060:	
  6272  0CCE  0855               	movf	(DisplayLEDs@k),w
  6273  0CCF  3E41               	addlw	_matrix+06h&0ffh
  6274  0CD0  0084               	movwf	fsr0
  6275  0CD1  0800               	movf	indf,w
  6276  0CD2  3A58               	xorlw	058h
  6277  0CD3  1D03               	skipz
  6278  0CD4  2CD6               	goto	u7751
  6279  0CD5  2CD7               	goto	u7750
  6280  0CD6                     u7751:
  6281  0CD6  2CDF               	goto	l5064
  6282  0CD7                     u7750:
  6283                           	
  6284  0CD7                     l5062:	
  6285  0CD7  308A               	movlw	(08Ah)
  6286  0CD8  00D4               	movwf	(??_DisplayLEDs+0)+0
  6287  0CD9  0855               	movf	(DisplayLEDs@k),w
  6288  0CDA  3E44               	addlw	_result1&0ffh
  6289  0CDB  0084               	movwf	fsr0
  6290  0CDC  0854               	movf	(??_DisplayLEDs+0)+0,w
  6291  0CDD  0080               	movwf	indf
  6292  0CDE  2FD1               	goto	l5224
  6293                           	line	640
  6294                           	
  6295  0CDF                     l1046:	
  6296                           	
  6297  0CDF                     l5064:	
  6298                           ;PR28.c: 640: else if(matrix[0][k] == 'X' & matrix[1][k] == 'O' & matrix[2][k] == ' '){r
                                 esult1[k] = 0b10001000;}
  6299  0CDF  0855               	movf	(DisplayLEDs@k),w
  6300  0CE0  3E3B               	addlw	_matrix&0ffh
  6301  0CE1  0084               	movwf	fsr0
  6302  0CE2  0800               	movf	indf,w
  6303  0CE3  3A58               	xorlw	058h
  6304  0CE4  1D03               	skipz
  6305  0CE5  2CE7               	goto	u7761
  6306  0CE6  2CE8               	goto	u7760
  6307  0CE7                     u7761:
  6308  0CE7  2D02               	goto	l5072
  6309  0CE8                     u7760:
  6310                           	
  6311  0CE8                     l5066:	
  6312  0CE8  0855               	movf	(DisplayLEDs@k),w
  6313  0CE9  3E3E               	addlw	_matrix+03h&0ffh
  6314  0CEA  0084               	movwf	fsr0
  6315  0CEB  0800               	movf	indf,w
  6316  0CEC  3A4F               	xorlw	04Fh
  6317  0CED  1D03               	skipz
  6318  0CEE  2CF0               	goto	u7771
  6319  0CEF  2CF1               	goto	u7770
  6320  0CF0                     u7771:
  6321  0CF0  2D02               	goto	l5072
  6322  0CF1                     u7770:
  6323                           	
  6324  0CF1                     l5068:	
  6325  0CF1  0855               	movf	(DisplayLEDs@k),w
  6326  0CF2  3E41               	addlw	_matrix+06h&0ffh
  6327  0CF3  0084               	movwf	fsr0
  6328  0CF4  0800               	movf	indf,w
  6329  0CF5  3A20               	xorlw	020h
  6330  0CF6  1D03               	skipz
  6331  0CF7  2CF9               	goto	u7781
  6332  0CF8  2CFA               	goto	u7780
  6333  0CF9                     u7781:
  6334  0CF9  2D02               	goto	l5072
  6335  0CFA                     u7780:
  6336                           	
  6337  0CFA                     l5070:	
  6338  0CFA  3088               	movlw	(088h)
  6339  0CFB  00D4               	movwf	(??_DisplayLEDs+0)+0
  6340  0CFC  0855               	movf	(DisplayLEDs@k),w
  6341  0CFD  3E44               	addlw	_result1&0ffh
  6342  0CFE  0084               	movwf	fsr0
  6343  0CFF  0854               	movf	(??_DisplayLEDs+0)+0,w
  6344  0D00  0080               	movwf	indf
  6345  0D01  2FD1               	goto	l5224
  6346                           	line	641
  6347                           	
  6348  0D02                     l1048:	
  6349                           	
  6350  0D02                     l5072:	
  6351                           ;PR28.c: 641: else if(matrix[0][k] == 'X' & matrix[1][k] == ' ' & matrix[2][k] == 'X'){r
                                 esult1[k] = 0b10000010;}
  6352  0D02  0855               	movf	(DisplayLEDs@k),w
  6353  0D03  3E3B               	addlw	_matrix&0ffh
  6354  0D04  0084               	movwf	fsr0
  6355  0D05  0800               	movf	indf,w
  6356  0D06  3A58               	xorlw	058h
  6357  0D07  1D03               	skipz
  6358  0D08  2D0A               	goto	u7791
  6359  0D09  2D0B               	goto	u7790
  6360  0D0A                     u7791:
  6361  0D0A  2D25               	goto	l5080
  6362  0D0B                     u7790:
  6363                           	
  6364  0D0B                     l5074:	
  6365  0D0B  0855               	movf	(DisplayLEDs@k),w
  6366  0D0C  3E3E               	addlw	_matrix+03h&0ffh
  6367  0D0D  0084               	movwf	fsr0
  6368  0D0E  0800               	movf	indf,w
  6369  0D0F  3A20               	xorlw	020h
  6370  0D10  1D03               	skipz
  6371  0D11  2D13               	goto	u7801
  6372  0D12  2D14               	goto	u7800
  6373  0D13                     u7801:
  6374  0D13  2D25               	goto	l5080
  6375  0D14                     u7800:
  6376                           	
  6377  0D14                     l5076:	
  6378  0D14  0855               	movf	(DisplayLEDs@k),w
  6379  0D15  3E41               	addlw	_matrix+06h&0ffh
  6380  0D16  0084               	movwf	fsr0
  6381  0D17  0800               	movf	indf,w
  6382  0D18  3A58               	xorlw	058h
  6383  0D19  1D03               	skipz
  6384  0D1A  2D1C               	goto	u7811
  6385  0D1B  2D1D               	goto	u7810
  6386  0D1C                     u7811:
  6387  0D1C  2D25               	goto	l5080
  6388  0D1D                     u7810:
  6389                           	
  6390  0D1D                     l5078:	
  6391  0D1D  3082               	movlw	(082h)
  6392  0D1E  00D4               	movwf	(??_DisplayLEDs+0)+0
  6393  0D1F  0855               	movf	(DisplayLEDs@k),w
  6394  0D20  3E44               	addlw	_result1&0ffh
  6395  0D21  0084               	movwf	fsr0
  6396  0D22  0854               	movf	(??_DisplayLEDs+0)+0,w
  6397  0D23  0080               	movwf	indf
  6398  0D24  2FD1               	goto	l5224
  6399                           	line	642
  6400                           	
  6401  0D25                     l1050:	
  6402                           	
  6403  0D25                     l5080:	
  6404                           ;PR28.c: 642: else if(matrix[0][k] == 'X' & matrix[1][k] == ' ' & matrix[2][k] == ' '){r
                                 esult1[k] = 0b10000000;}
  6405  0D25  0855               	movf	(DisplayLEDs@k),w
  6406  0D26  3E3B               	addlw	_matrix&0ffh
  6407  0D27  0084               	movwf	fsr0
  6408  0D28  0800               	movf	indf,w
  6409  0D29  3A58               	xorlw	058h
  6410  0D2A  1D03               	skipz
  6411  0D2B  2D2D               	goto	u7821
  6412  0D2C  2D2E               	goto	u7820
  6413  0D2D                     u7821:
  6414  0D2D  2D48               	goto	l5088
  6415  0D2E                     u7820:
  6416                           	
  6417  0D2E                     l5082:	
  6418  0D2E  0855               	movf	(DisplayLEDs@k),w
  6419  0D2F  3E3E               	addlw	_matrix+03h&0ffh
  6420  0D30  0084               	movwf	fsr0
  6421  0D31  0800               	movf	indf,w
  6422  0D32  3A20               	xorlw	020h
  6423  0D33  1D03               	skipz
  6424  0D34  2D36               	goto	u7831
  6425  0D35  2D37               	goto	u7830
  6426  0D36                     u7831:
  6427  0D36  2D48               	goto	l5088
  6428  0D37                     u7830:
  6429                           	
  6430  0D37                     l5084:	
  6431  0D37  0855               	movf	(DisplayLEDs@k),w
  6432  0D38  3E41               	addlw	_matrix+06h&0ffh
  6433  0D39  0084               	movwf	fsr0
  6434  0D3A  0800               	movf	indf,w
  6435  0D3B  3A20               	xorlw	020h
  6436  0D3C  1D03               	skipz
  6437  0D3D  2D3F               	goto	u7841
  6438  0D3E  2D40               	goto	u7840
  6439  0D3F                     u7841:
  6440  0D3F  2D48               	goto	l5088
  6441  0D40                     u7840:
  6442                           	
  6443  0D40                     l5086:	
  6444  0D40  3080               	movlw	(080h)
  6445  0D41  00D4               	movwf	(??_DisplayLEDs+0)+0
  6446  0D42  0855               	movf	(DisplayLEDs@k),w
  6447  0D43  3E44               	addlw	_result1&0ffh
  6448  0D44  0084               	movwf	fsr0
  6449  0D45  0854               	movf	(??_DisplayLEDs+0)+0,w
  6450  0D46  0080               	movwf	indf
  6451  0D47  2FD1               	goto	l5224
  6452                           	line	643
  6453                           	
  6454  0D48                     l1052:	
  6455                           	
  6456  0D48                     l5088:	
  6457                           ;PR28.c: 643: else if(matrix[0][k] == ' ' & matrix[1][k] == 'O' & matrix[2][k] == 'X'){r
                                 esult1[k] = 0b00001010;}
  6458  0D48  0855               	movf	(DisplayLEDs@k),w
  6459  0D49  3E3B               	addlw	_matrix&0ffh
  6460  0D4A  0084               	movwf	fsr0
  6461  0D4B  0800               	movf	indf,w
  6462  0D4C  3A20               	xorlw	020h
  6463  0D4D  1D03               	skipz
  6464  0D4E  2D50               	goto	u7851
  6465  0D4F  2D51               	goto	u7850
  6466  0D50                     u7851:
  6467  0D50  2D6B               	goto	l5096
  6468  0D51                     u7850:
  6469                           	
  6470  0D51                     l5090:	
  6471  0D51  0855               	movf	(DisplayLEDs@k),w
  6472  0D52  3E3E               	addlw	_matrix+03h&0ffh
  6473  0D53  0084               	movwf	fsr0
  6474  0D54  0800               	movf	indf,w
  6475  0D55  3A4F               	xorlw	04Fh
  6476  0D56  1D03               	skipz
  6477  0D57  2D59               	goto	u7861
  6478  0D58  2D5A               	goto	u7860
  6479  0D59                     u7861:
  6480  0D59  2D6B               	goto	l5096
  6481  0D5A                     u7860:
  6482                           	
  6483  0D5A                     l5092:	
  6484  0D5A  0855               	movf	(DisplayLEDs@k),w
  6485  0D5B  3E41               	addlw	_matrix+06h&0ffh
  6486  0D5C  0084               	movwf	fsr0
  6487  0D5D  0800               	movf	indf,w
  6488  0D5E  3A58               	xorlw	058h
  6489  0D5F  1D03               	skipz
  6490  0D60  2D62               	goto	u7871
  6491  0D61  2D63               	goto	u7870
  6492  0D62                     u7871:
  6493  0D62  2D6B               	goto	l5096
  6494  0D63                     u7870:
  6495                           	
  6496  0D63                     l5094:	
  6497  0D63  300A               	movlw	(0Ah)
  6498  0D64  00D4               	movwf	(??_DisplayLEDs+0)+0
  6499  0D65  0855               	movf	(DisplayLEDs@k),w
  6500  0D66  3E44               	addlw	_result1&0ffh
  6501  0D67  0084               	movwf	fsr0
  6502  0D68  0854               	movf	(??_DisplayLEDs+0)+0,w
  6503  0D69  0080               	movwf	indf
  6504  0D6A  2FD1               	goto	l5224
  6505                           	line	644
  6506                           	
  6507  0D6B                     l1054:	
  6508                           	
  6509  0D6B                     l5096:	
  6510                           ;PR28.c: 644: else if(matrix[0][k] == ' ' & matrix[1][k] == 'O' & matrix[2][k] == ' '){r
                                 esult1[k] = 0b00001000;}
  6511  0D6B  0855               	movf	(DisplayLEDs@k),w
  6512  0D6C  3E3B               	addlw	_matrix&0ffh
  6513  0D6D  0084               	movwf	fsr0
  6514  0D6E  0800               	movf	indf,w
  6515  0D6F  3A20               	xorlw	020h
  6516  0D70  1D03               	skipz
  6517  0D71  2D73               	goto	u7881
  6518  0D72  2D74               	goto	u7880
  6519  0D73                     u7881:
  6520  0D73  2D8E               	goto	l5104
  6521  0D74                     u7880:
  6522                           	
  6523  0D74                     l5098:	
  6524  0D74  0855               	movf	(DisplayLEDs@k),w
  6525  0D75  3E3E               	addlw	_matrix+03h&0ffh
  6526  0D76  0084               	movwf	fsr0
  6527  0D77  0800               	movf	indf,w
  6528  0D78  3A4F               	xorlw	04Fh
  6529  0D79  1D03               	skipz
  6530  0D7A  2D7C               	goto	u7891
  6531  0D7B  2D7D               	goto	u7890
  6532  0D7C                     u7891:
  6533  0D7C  2D8E               	goto	l5104
  6534  0D7D                     u7890:
  6535                           	
  6536  0D7D                     l5100:	
  6537  0D7D  0855               	movf	(DisplayLEDs@k),w
  6538  0D7E  3E41               	addlw	_matrix+06h&0ffh
  6539  0D7F  0084               	movwf	fsr0
  6540  0D80  0800               	movf	indf,w
  6541  0D81  3A20               	xorlw	020h
  6542  0D82  1D03               	skipz
  6543  0D83  2D85               	goto	u7901
  6544  0D84  2D86               	goto	u7900
  6545  0D85                     u7901:
  6546  0D85  2D8E               	goto	l5104
  6547  0D86                     u7900:
  6548                           	
  6549  0D86                     l5102:	
  6550  0D86  3008               	movlw	(08h)
  6551  0D87  00D4               	movwf	(??_DisplayLEDs+0)+0
  6552  0D88  0855               	movf	(DisplayLEDs@k),w
  6553  0D89  3E44               	addlw	_result1&0ffh
  6554  0D8A  0084               	movwf	fsr0
  6555  0D8B  0854               	movf	(??_DisplayLEDs+0)+0,w
  6556  0D8C  0080               	movwf	indf
  6557  0D8D  2FD1               	goto	l5224
  6558                           	line	645
  6559                           	
  6560  0D8E                     l1056:	
  6561                           	
  6562  0D8E                     l5104:	
  6563                           ;PR28.c: 645: else if(matrix[0][k] == ' ' & matrix[1][k] == ' ' & matrix[2][k] == 'X'){r
                                 esult1[k] = 0b00000010;}
  6564  0D8E  0855               	movf	(DisplayLEDs@k),w
  6565  0D8F  3E3B               	addlw	_matrix&0ffh
  6566  0D90  0084               	movwf	fsr0
  6567  0D91  0800               	movf	indf,w
  6568  0D92  3A20               	xorlw	020h
  6569  0D93  1D03               	skipz
  6570  0D94  2D96               	goto	u7911
  6571  0D95  2D97               	goto	u7910
  6572  0D96                     u7911:
  6573  0D96  2DB1               	goto	l5112
  6574  0D97                     u7910:
  6575                           	
  6576  0D97                     l5106:	
  6577  0D97  0855               	movf	(DisplayLEDs@k),w
  6578  0D98  3E3E               	addlw	_matrix+03h&0ffh
  6579  0D99  0084               	movwf	fsr0
  6580  0D9A  0800               	movf	indf,w
  6581  0D9B  3A20               	xorlw	020h
  6582  0D9C  1D03               	skipz
  6583  0D9D  2D9F               	goto	u7921
  6584  0D9E  2DA0               	goto	u7920
  6585  0D9F                     u7921:
  6586  0D9F  2DB1               	goto	l5112
  6587  0DA0                     u7920:
  6588                           	
  6589  0DA0                     l5108:	
  6590  0DA0  0855               	movf	(DisplayLEDs@k),w
  6591  0DA1  3E41               	addlw	_matrix+06h&0ffh
  6592  0DA2  0084               	movwf	fsr0
  6593  0DA3  0800               	movf	indf,w
  6594  0DA4  3A58               	xorlw	058h
  6595  0DA5  1D03               	skipz
  6596  0DA6  2DA8               	goto	u7931
  6597  0DA7  2DA9               	goto	u7930
  6598  0DA8                     u7931:
  6599  0DA8  2DB1               	goto	l5112
  6600  0DA9                     u7930:
  6601                           	
  6602  0DA9                     l5110:	
  6603  0DA9  3002               	movlw	(02h)
  6604  0DAA  00D4               	movwf	(??_DisplayLEDs+0)+0
  6605  0DAB  0855               	movf	(DisplayLEDs@k),w
  6606  0DAC  3E44               	addlw	_result1&0ffh
  6607  0DAD  0084               	movwf	fsr0
  6608  0DAE  0854               	movf	(??_DisplayLEDs+0)+0,w
  6609  0DAF  0080               	movwf	indf
  6610  0DB0  2FD1               	goto	l5224
  6611                           	line	647
  6612                           	
  6613  0DB1                     l1058:	
  6614                           	
  6615  0DB1                     l5112:	
  6616                           ;PR28.c: 647: else if(matrix[0][k] == 'X' & matrix[1][k] == 'X' & matrix[2][k] == 'O'){r
                                 esult1[k] = 0b10010001;}
  6617  0DB1  0855               	movf	(DisplayLEDs@k),w
  6618  0DB2  3E3B               	addlw	_matrix&0ffh
  6619  0DB3  0084               	movwf	fsr0
  6620  0DB4  0800               	movf	indf,w
  6621  0DB5  3A58               	xorlw	058h
  6622  0DB6  1D03               	skipz
  6623  0DB7  2DB9               	goto	u7941
  6624  0DB8  2DBA               	goto	u7940
  6625  0DB9                     u7941:
  6626  0DB9  2DD4               	goto	l5120
  6627  0DBA                     u7940:
  6628                           	
  6629  0DBA                     l5114:	
  6630  0DBA  0855               	movf	(DisplayLEDs@k),w
  6631  0DBB  3E3E               	addlw	_matrix+03h&0ffh
  6632  0DBC  0084               	movwf	fsr0
  6633  0DBD  0800               	movf	indf,w
  6634  0DBE  3A58               	xorlw	058h
  6635  0DBF  1D03               	skipz
  6636  0DC0  2DC2               	goto	u7951
  6637  0DC1  2DC3               	goto	u7950
  6638  0DC2                     u7951:
  6639  0DC2  2DD4               	goto	l5120
  6640  0DC3                     u7950:
  6641                           	
  6642  0DC3                     l5116:	
  6643  0DC3  0855               	movf	(DisplayLEDs@k),w
  6644  0DC4  3E41               	addlw	_matrix+06h&0ffh
  6645  0DC5  0084               	movwf	fsr0
  6646  0DC6  0800               	movf	indf,w
  6647  0DC7  3A4F               	xorlw	04Fh
  6648  0DC8  1D03               	skipz
  6649  0DC9  2DCB               	goto	u7961
  6650  0DCA  2DCC               	goto	u7960
  6651  0DCB                     u7961:
  6652  0DCB  2DD4               	goto	l5120
  6653  0DCC                     u7960:
  6654                           	
  6655  0DCC                     l5118:	
  6656  0DCC  3091               	movlw	(091h)
  6657  0DCD  00D4               	movwf	(??_DisplayLEDs+0)+0
  6658  0DCE  0855               	movf	(DisplayLEDs@k),w
  6659  0DCF  3E44               	addlw	_result1&0ffh
  6660  0DD0  0084               	movwf	fsr0
  6661  0DD1  0854               	movf	(??_DisplayLEDs+0)+0,w
  6662  0DD2  0080               	movwf	indf
  6663  0DD3  2FD1               	goto	l5224
  6664                           	line	648
  6665                           	
  6666  0DD4                     l1060:	
  6667                           	
  6668  0DD4                     l5120:	
  6669                           ;PR28.c: 648: else if(matrix[0][k] == 'X' & matrix[1][k] == 'X' & matrix[2][k] == ' '){r
                                 esult1[k] = 0b10010000;}
  6670  0DD4  0855               	movf	(DisplayLEDs@k),w
  6671  0DD5  3E3B               	addlw	_matrix&0ffh
  6672  0DD6  0084               	movwf	fsr0
  6673  0DD7  0800               	movf	indf,w
  6674  0DD8  3A58               	xorlw	058h
  6675  0DD9  1D03               	skipz
  6676  0DDA  2DDC               	goto	u7971
  6677  0DDB  2DDD               	goto	u7970
  6678  0DDC                     u7971:
  6679  0DDC  2DF7               	goto	l5128
  6680  0DDD                     u7970:
  6681                           	
  6682  0DDD                     l5122:	
  6683  0DDD  0855               	movf	(DisplayLEDs@k),w
  6684  0DDE  3E3E               	addlw	_matrix+03h&0ffh
  6685  0DDF  0084               	movwf	fsr0
  6686  0DE0  0800               	movf	indf,w
  6687  0DE1  3A58               	xorlw	058h
  6688  0DE2  1D03               	skipz
  6689  0DE3  2DE5               	goto	u7981
  6690  0DE4  2DE6               	goto	u7980
  6691  0DE5                     u7981:
  6692  0DE5  2DF7               	goto	l5128
  6693  0DE6                     u7980:
  6694                           	
  6695  0DE6                     l5124:	
  6696  0DE6  0855               	movf	(DisplayLEDs@k),w
  6697  0DE7  3E41               	addlw	_matrix+06h&0ffh
  6698  0DE8  0084               	movwf	fsr0
  6699  0DE9  0800               	movf	indf,w
  6700  0DEA  3A20               	xorlw	020h
  6701  0DEB  1D03               	skipz
  6702  0DEC  2DEE               	goto	u7991
  6703  0DED  2DEF               	goto	u7990
  6704  0DEE                     u7991:
  6705  0DEE  2DF7               	goto	l5128
  6706  0DEF                     u7990:
  6707                           	
  6708  0DEF                     l5126:	
  6709  0DEF  3090               	movlw	(090h)
  6710  0DF0  00D4               	movwf	(??_DisplayLEDs+0)+0
  6711  0DF1  0855               	movf	(DisplayLEDs@k),w
  6712  0DF2  3E44               	addlw	_result1&0ffh
  6713  0DF3  0084               	movwf	fsr0
  6714  0DF4  0854               	movf	(??_DisplayLEDs+0)+0,w
  6715  0DF5  0080               	movwf	indf
  6716  0DF6  2FD1               	goto	l5224
  6717                           	line	649
  6718                           	
  6719  0DF7                     l1062:	
  6720                           	
  6721  0DF7                     l5128:	
  6722                           ;PR28.c: 649: else if(matrix[0][k] == 'X' & matrix[1][k] == ' ' & matrix[2][k] == 'O'){r
                                 esult1[k] = 0b10000001;}
  6723  0DF7  0855               	movf	(DisplayLEDs@k),w
  6724  0DF8  3E3B               	addlw	_matrix&0ffh
  6725  0DF9  0084               	movwf	fsr0
  6726  0DFA  0800               	movf	indf,w
  6727  0DFB  3A58               	xorlw	058h
  6728  0DFC  1D03               	skipz
  6729  0DFD  2DFF               	goto	u8001
  6730  0DFE  2E00               	goto	u8000
  6731  0DFF                     u8001:
  6732  0DFF  2E1A               	goto	l5136
  6733  0E00                     u8000:
  6734                           	
  6735  0E00                     l5130:	
  6736  0E00  0855               	movf	(DisplayLEDs@k),w
  6737  0E01  3E3E               	addlw	_matrix+03h&0ffh
  6738  0E02  0084               	movwf	fsr0
  6739  0E03  0800               	movf	indf,w
  6740  0E04  3A20               	xorlw	020h
  6741  0E05  1D03               	skipz
  6742  0E06  2E08               	goto	u8011
  6743  0E07  2E09               	goto	u8010
  6744  0E08                     u8011:
  6745  0E08  2E1A               	goto	l5136
  6746  0E09                     u8010:
  6747                           	
  6748  0E09                     l5132:	
  6749  0E09  0855               	movf	(DisplayLEDs@k),w
  6750  0E0A  3E41               	addlw	_matrix+06h&0ffh
  6751  0E0B  0084               	movwf	fsr0
  6752  0E0C  0800               	movf	indf,w
  6753  0E0D  3A4F               	xorlw	04Fh
  6754  0E0E  1D03               	skipz
  6755  0E0F  2E11               	goto	u8021
  6756  0E10  2E12               	goto	u8020
  6757  0E11                     u8021:
  6758  0E11  2E1A               	goto	l5136
  6759  0E12                     u8020:
  6760                           	
  6761  0E12                     l5134:	
  6762  0E12  3081               	movlw	(081h)
  6763  0E13  00D4               	movwf	(??_DisplayLEDs+0)+0
  6764  0E14  0855               	movf	(DisplayLEDs@k),w
  6765  0E15  3E44               	addlw	_result1&0ffh
  6766  0E16  0084               	movwf	fsr0
  6767  0E17  0854               	movf	(??_DisplayLEDs+0)+0,w
  6768  0E18  0080               	movwf	indf
  6769  0E19  2FD1               	goto	l5224
  6770                           	line	650
  6771                           	
  6772  0E1A                     l1064:	
  6773                           	
  6774  0E1A                     l5136:	
  6775                           ;PR28.c: 650: else if(matrix[0][k] == 'X' & matrix[1][k] == ' ' & matrix[2][k] == ' '){r
                                 esult1[k] = 0b10000000;}
  6776  0E1A  0855               	movf	(DisplayLEDs@k),w
  6777  0E1B  3E3B               	addlw	_matrix&0ffh
  6778  0E1C  0084               	movwf	fsr0
  6779  0E1D  0800               	movf	indf,w
  6780  0E1E  3A58               	xorlw	058h
  6781  0E1F  1D03               	skipz
  6782  0E20  2E22               	goto	u8031
  6783  0E21  2E23               	goto	u8030
  6784  0E22                     u8031:
  6785  0E22  2E3D               	goto	l5144
  6786  0E23                     u8030:
  6787                           	
  6788  0E23                     l5138:	
  6789  0E23  0855               	movf	(DisplayLEDs@k),w
  6790  0E24  3E3E               	addlw	_matrix+03h&0ffh
  6791  0E25  0084               	movwf	fsr0
  6792  0E26  0800               	movf	indf,w
  6793  0E27  3A20               	xorlw	020h
  6794  0E28  1D03               	skipz
  6795  0E29  2E2B               	goto	u8041
  6796  0E2A  2E2C               	goto	u8040
  6797  0E2B                     u8041:
  6798  0E2B  2E3D               	goto	l5144
  6799  0E2C                     u8040:
  6800                           	
  6801  0E2C                     l5140:	
  6802  0E2C  0855               	movf	(DisplayLEDs@k),w
  6803  0E2D  3E41               	addlw	_matrix+06h&0ffh
  6804  0E2E  0084               	movwf	fsr0
  6805  0E2F  0800               	movf	indf,w
  6806  0E30  3A20               	xorlw	020h
  6807  0E31  1D03               	skipz
  6808  0E32  2E34               	goto	u8051
  6809  0E33  2E35               	goto	u8050
  6810  0E34                     u8051:
  6811  0E34  2E3D               	goto	l5144
  6812  0E35                     u8050:
  6813                           	
  6814  0E35                     l5142:	
  6815  0E35  3080               	movlw	(080h)
  6816  0E36  00D4               	movwf	(??_DisplayLEDs+0)+0
  6817  0E37  0855               	movf	(DisplayLEDs@k),w
  6818  0E38  3E44               	addlw	_result1&0ffh
  6819  0E39  0084               	movwf	fsr0
  6820  0E3A  0854               	movf	(??_DisplayLEDs+0)+0,w
  6821  0E3B  0080               	movwf	indf
  6822  0E3C  2FD1               	goto	l5224
  6823                           	line	651
  6824                           	
  6825  0E3D                     l1066:	
  6826                           	
  6827  0E3D                     l5144:	
  6828                           ;PR28.c: 651: else if(matrix[0][k] == ' ' & matrix[1][k] == 'X' & matrix[2][k] == 'O'){r
                                 esult1[k] = 0b00010001;}
  6829  0E3D  0855               	movf	(DisplayLEDs@k),w
  6830  0E3E  3E3B               	addlw	_matrix&0ffh
  6831  0E3F  0084               	movwf	fsr0
  6832  0E40  0800               	movf	indf,w
  6833  0E41  3A20               	xorlw	020h
  6834  0E42  1D03               	skipz
  6835  0E43  2E45               	goto	u8061
  6836  0E44  2E46               	goto	u8060
  6837  0E45                     u8061:
  6838  0E45  2E60               	goto	l5152
  6839  0E46                     u8060:
  6840                           	
  6841  0E46                     l5146:	
  6842  0E46  0855               	movf	(DisplayLEDs@k),w
  6843  0E47  3E3E               	addlw	_matrix+03h&0ffh
  6844  0E48  0084               	movwf	fsr0
  6845  0E49  0800               	movf	indf,w
  6846  0E4A  3A58               	xorlw	058h
  6847  0E4B  1D03               	skipz
  6848  0E4C  2E4E               	goto	u8071
  6849  0E4D  2E4F               	goto	u8070
  6850  0E4E                     u8071:
  6851  0E4E  2E60               	goto	l5152
  6852  0E4F                     u8070:
  6853                           	
  6854  0E4F                     l5148:	
  6855  0E4F  0855               	movf	(DisplayLEDs@k),w
  6856  0E50  3E41               	addlw	_matrix+06h&0ffh
  6857  0E51  0084               	movwf	fsr0
  6858  0E52  0800               	movf	indf,w
  6859  0E53  3A4F               	xorlw	04Fh
  6860  0E54  1D03               	skipz
  6861  0E55  2E57               	goto	u8081
  6862  0E56  2E58               	goto	u8080
  6863  0E57                     u8081:
  6864  0E57  2E60               	goto	l5152
  6865  0E58                     u8080:
  6866                           	
  6867  0E58                     l5150:	
  6868  0E58  3011               	movlw	(011h)
  6869  0E59  00D4               	movwf	(??_DisplayLEDs+0)+0
  6870  0E5A  0855               	movf	(DisplayLEDs@k),w
  6871  0E5B  3E44               	addlw	_result1&0ffh
  6872  0E5C  0084               	movwf	fsr0
  6873  0E5D  0854               	movf	(??_DisplayLEDs+0)+0,w
  6874  0E5E  0080               	movwf	indf
  6875  0E5F  2FD1               	goto	l5224
  6876                           	line	652
  6877                           	
  6878  0E60                     l1068:	
  6879                           	
  6880  0E60                     l5152:	
  6881                           ;PR28.c: 652: else if(matrix[0][k] == ' ' & matrix[1][k] == 'X' & matrix[2][k] == ' '){r
                                 esult1[k] = 0b00010000;}
  6882  0E60  0855               	movf	(DisplayLEDs@k),w
  6883  0E61  3E3B               	addlw	_matrix&0ffh
  6884  0E62  0084               	movwf	fsr0
  6885  0E63  0800               	movf	indf,w
  6886  0E64  3A20               	xorlw	020h
  6887  0E65  1D03               	skipz
  6888  0E66  2E68               	goto	u8091
  6889  0E67  2E69               	goto	u8090
  6890  0E68                     u8091:
  6891  0E68  2E83               	goto	l5160
  6892  0E69                     u8090:
  6893                           	
  6894  0E69                     l5154:	
  6895  0E69  0855               	movf	(DisplayLEDs@k),w
  6896  0E6A  3E3E               	addlw	_matrix+03h&0ffh
  6897  0E6B  0084               	movwf	fsr0
  6898  0E6C  0800               	movf	indf,w
  6899  0E6D  3A58               	xorlw	058h
  6900  0E6E  1D03               	skipz
  6901  0E6F  2E71               	goto	u8101
  6902  0E70  2E72               	goto	u8100
  6903  0E71                     u8101:
  6904  0E71  2E83               	goto	l5160
  6905  0E72                     u8100:
  6906                           	
  6907  0E72                     l5156:	
  6908  0E72  0855               	movf	(DisplayLEDs@k),w
  6909  0E73  3E41               	addlw	_matrix+06h&0ffh
  6910  0E74  0084               	movwf	fsr0
  6911  0E75  0800               	movf	indf,w
  6912  0E76  3A20               	xorlw	020h
  6913  0E77  1D03               	skipz
  6914  0E78  2E7A               	goto	u8111
  6915  0E79  2E7B               	goto	u8110
  6916  0E7A                     u8111:
  6917  0E7A  2E83               	goto	l5160
  6918  0E7B                     u8110:
  6919                           	
  6920  0E7B                     l5158:	
  6921  0E7B  3010               	movlw	(010h)
  6922  0E7C  00D4               	movwf	(??_DisplayLEDs+0)+0
  6923  0E7D  0855               	movf	(DisplayLEDs@k),w
  6924  0E7E  3E44               	addlw	_result1&0ffh
  6925  0E7F  0084               	movwf	fsr0
  6926  0E80  0854               	movf	(??_DisplayLEDs+0)+0,w
  6927  0E81  0080               	movwf	indf
  6928  0E82  2FD1               	goto	l5224
  6929                           	line	653
  6930                           	
  6931  0E83                     l1070:	
  6932                           	
  6933  0E83                     l5160:	
  6934                           ;PR28.c: 653: else if(matrix[0][k] == ' ' & matrix[1][k] == ' ' & matrix[2][k] == 'O'){r
                                 esult1[k] = 0b00000001;}
  6935  0E83  0855               	movf	(DisplayLEDs@k),w
  6936  0E84  3E3B               	addlw	_matrix&0ffh
  6937  0E85  0084               	movwf	fsr0
  6938  0E86  0800               	movf	indf,w
  6939  0E87  3A20               	xorlw	020h
  6940  0E88  1D03               	skipz
  6941  0E89  2E8B               	goto	u8121
  6942  0E8A  2E8C               	goto	u8120
  6943  0E8B                     u8121:
  6944  0E8B  2EA5               	goto	l5168
  6945  0E8C                     u8120:
  6946                           	
  6947  0E8C                     l5162:	
  6948  0E8C  0855               	movf	(DisplayLEDs@k),w
  6949  0E8D  3E3E               	addlw	_matrix+03h&0ffh
  6950  0E8E  0084               	movwf	fsr0
  6951  0E8F  0800               	movf	indf,w
  6952  0E90  3A20               	xorlw	020h
  6953  0E91  1D03               	skipz
  6954  0E92  2E94               	goto	u8131
  6955  0E93  2E95               	goto	u8130
  6956  0E94                     u8131:
  6957  0E94  2EA5               	goto	l5168
  6958  0E95                     u8130:
  6959                           	
  6960  0E95                     l5164:	
  6961  0E95  0855               	movf	(DisplayLEDs@k),w
  6962  0E96  3E41               	addlw	_matrix+06h&0ffh
  6963  0E97  0084               	movwf	fsr0
  6964  0E98  0800               	movf	indf,w
  6965  0E99  3A4F               	xorlw	04Fh
  6966  0E9A  1D03               	skipz
  6967  0E9B  2E9D               	goto	u8141
  6968  0E9C  2E9E               	goto	u8140
  6969  0E9D                     u8141:
  6970  0E9D  2EA5               	goto	l5168
  6971  0E9E                     u8140:
  6972                           	
  6973  0E9E                     l5166:	
  6974  0E9E  0855               	movf	(DisplayLEDs@k),w
  6975  0E9F  3E44               	addlw	_result1&0ffh
  6976  0EA0  0084               	movwf	fsr0
  6977  0EA1  0180               	clrf	indf
  6978  0EA2  1403               	bsf	status,0
  6979  0EA3  0D80               	rlf	indf,f
  6980  0EA4  2FD1               	goto	l5224
  6981                           	line	655
  6982                           	
  6983  0EA5                     l1072:	
  6984                           	
  6985  0EA5                     l5168:	
  6986                           ;PR28.c: 655: else if(matrix[0][k] == 'X' & matrix[1][k] == 'X' & matrix[2][k] == 'X'){r
                                 esult1[k] = 0b10010010;}
  6987  0EA5  0855               	movf	(DisplayLEDs@k),w
  6988  0EA6  3E3B               	addlw	_matrix&0ffh
  6989  0EA7  0084               	movwf	fsr0
  6990  0EA8  0800               	movf	indf,w
  6991  0EA9  3A58               	xorlw	058h
  6992  0EAA  1D03               	skipz
  6993  0EAB  2EAD               	goto	u8151
  6994  0EAC  2EAE               	goto	u8150
  6995  0EAD                     u8151:
  6996  0EAD  2EC8               	goto	l5176
  6997  0EAE                     u8150:
  6998                           	
  6999  0EAE                     l5170:	
  7000  0EAE  0855               	movf	(DisplayLEDs@k),w
  7001  0EAF  3E3E               	addlw	_matrix+03h&0ffh
  7002  0EB0  0084               	movwf	fsr0
  7003  0EB1  0800               	movf	indf,w
  7004  0EB2  3A58               	xorlw	058h
  7005  0EB3  1D03               	skipz
  7006  0EB4  2EB6               	goto	u8161
  7007  0EB5  2EB7               	goto	u8160
  7008  0EB6                     u8161:
  7009  0EB6  2EC8               	goto	l5176
  7010  0EB7                     u8160:
  7011                           	
  7012  0EB7                     l5172:	
  7013  0EB7  0855               	movf	(DisplayLEDs@k),w
  7014  0EB8  3E41               	addlw	_matrix+06h&0ffh
  7015  0EB9  0084               	movwf	fsr0
  7016  0EBA  0800               	movf	indf,w
  7017  0EBB  3A58               	xorlw	058h
  7018  0EBC  1D03               	skipz
  7019  0EBD  2EBF               	goto	u8171
  7020  0EBE  2EC0               	goto	u8170
  7021  0EBF                     u8171:
  7022  0EBF  2EC8               	goto	l5176
  7023  0EC0                     u8170:
  7024                           	
  7025  0EC0                     l5174:	
  7026  0EC0  3092               	movlw	(092h)
  7027  0EC1  00D4               	movwf	(??_DisplayLEDs+0)+0
  7028  0EC2  0855               	movf	(DisplayLEDs@k),w
  7029  0EC3  3E44               	addlw	_result1&0ffh
  7030  0EC4  0084               	movwf	fsr0
  7031  0EC5  0854               	movf	(??_DisplayLEDs+0)+0,w
  7032  0EC6  0080               	movwf	indf
  7033  0EC7  2FD1               	goto	l5224
  7034                           	line	656
  7035                           	
  7036  0EC8                     l1074:	
  7037                           	
  7038  0EC8                     l5176:	
  7039                           ;PR28.c: 656: else if(matrix[0][k] == 'X' & matrix[1][k] == 'X' & matrix[2][k] == ' '){r
                                 esult1[k] = 0b10010000;}
  7040  0EC8  0855               	movf	(DisplayLEDs@k),w
  7041  0EC9  3E3B               	addlw	_matrix&0ffh
  7042  0ECA  0084               	movwf	fsr0
  7043  0ECB  0800               	movf	indf,w
  7044  0ECC  3A58               	xorlw	058h
  7045  0ECD  1D03               	skipz
  7046  0ECE  2ED0               	goto	u8181
  7047  0ECF  2ED1               	goto	u8180
  7048  0ED0                     u8181:
  7049  0ED0  2EEB               	goto	l5184
  7050  0ED1                     u8180:
  7051                           	
  7052  0ED1                     l5178:	
  7053  0ED1  0855               	movf	(DisplayLEDs@k),w
  7054  0ED2  3E3E               	addlw	_matrix+03h&0ffh
  7055  0ED3  0084               	movwf	fsr0
  7056  0ED4  0800               	movf	indf,w
  7057  0ED5  3A58               	xorlw	058h
  7058  0ED6  1D03               	skipz
  7059  0ED7  2ED9               	goto	u8191
  7060  0ED8  2EDA               	goto	u8190
  7061  0ED9                     u8191:
  7062  0ED9  2EEB               	goto	l5184
  7063  0EDA                     u8190:
  7064                           	
  7065  0EDA                     l5180:	
  7066  0EDA  0855               	movf	(DisplayLEDs@k),w
  7067  0EDB  3E41               	addlw	_matrix+06h&0ffh
  7068  0EDC  0084               	movwf	fsr0
  7069  0EDD  0800               	movf	indf,w
  7070  0EDE  3A20               	xorlw	020h
  7071  0EDF  1D03               	skipz
  7072  0EE0  2EE2               	goto	u8201
  7073  0EE1  2EE3               	goto	u8200
  7074  0EE2                     u8201:
  7075  0EE2  2EEB               	goto	l5184
  7076  0EE3                     u8200:
  7077                           	
  7078  0EE3                     l5182:	
  7079  0EE3  3090               	movlw	(090h)
  7080  0EE4  00D4               	movwf	(??_DisplayLEDs+0)+0
  7081  0EE5  0855               	movf	(DisplayLEDs@k),w
  7082  0EE6  3E44               	addlw	_result1&0ffh
  7083  0EE7  0084               	movwf	fsr0
  7084  0EE8  0854               	movf	(??_DisplayLEDs+0)+0,w
  7085  0EE9  0080               	movwf	indf
  7086  0EEA  2FD1               	goto	l5224
  7087                           	line	657
  7088                           	
  7089  0EEB                     l1076:	
  7090                           	
  7091  0EEB                     l5184:	
  7092                           ;PR28.c: 657: else if(matrix[0][k] == 'X' & matrix[1][k] == ' ' & matrix[2][k] == 'X'){r
                                 esult1[k] = 0b10000010;}
  7093  0EEB  0855               	movf	(DisplayLEDs@k),w
  7094  0EEC  3E3B               	addlw	_matrix&0ffh
  7095  0EED  0084               	movwf	fsr0
  7096  0EEE  0800               	movf	indf,w
  7097  0EEF  3A58               	xorlw	058h
  7098  0EF0  1D03               	skipz
  7099  0EF1  2EF3               	goto	u8211
  7100  0EF2  2EF4               	goto	u8210
  7101  0EF3                     u8211:
  7102  0EF3  2F0E               	goto	l5192
  7103  0EF4                     u8210:
  7104                           	
  7105  0EF4                     l5186:	
  7106  0EF4  0855               	movf	(DisplayLEDs@k),w
  7107  0EF5  3E3E               	addlw	_matrix+03h&0ffh
  7108  0EF6  0084               	movwf	fsr0
  7109  0EF7  0800               	movf	indf,w
  7110  0EF8  3A20               	xorlw	020h
  7111  0EF9  1D03               	skipz
  7112  0EFA  2EFC               	goto	u8221
  7113  0EFB  2EFD               	goto	u8220
  7114  0EFC                     u8221:
  7115  0EFC  2F0E               	goto	l5192
  7116  0EFD                     u8220:
  7117                           	
  7118  0EFD                     l5188:	
  7119  0EFD  0855               	movf	(DisplayLEDs@k),w
  7120  0EFE  3E41               	addlw	_matrix+06h&0ffh
  7121  0EFF  0084               	movwf	fsr0
  7122  0F00  0800               	movf	indf,w
  7123  0F01  3A58               	xorlw	058h
  7124  0F02  1D03               	skipz
  7125  0F03  2F05               	goto	u8231
  7126  0F04  2F06               	goto	u8230
  7127  0F05                     u8231:
  7128  0F05  2F0E               	goto	l5192
  7129  0F06                     u8230:
  7130                           	
  7131  0F06                     l5190:	
  7132  0F06  3082               	movlw	(082h)
  7133  0F07  00D4               	movwf	(??_DisplayLEDs+0)+0
  7134  0F08  0855               	movf	(DisplayLEDs@k),w
  7135  0F09  3E44               	addlw	_result1&0ffh
  7136  0F0A  0084               	movwf	fsr0
  7137  0F0B  0854               	movf	(??_DisplayLEDs+0)+0,w
  7138  0F0C  0080               	movwf	indf
  7139  0F0D  2FD1               	goto	l5224
  7140                           	line	658
  7141                           	
  7142  0F0E                     l1078:	
  7143                           	
  7144  0F0E                     l5192:	
  7145                           ;PR28.c: 658: else if(matrix[0][k] == 'X' & matrix[1][k] == ' ' & matrix[2][k] == ' '){r
                                 esult1[k] = 0b10000000;}
  7146  0F0E  0855               	movf	(DisplayLEDs@k),w
  7147  0F0F  3E3B               	addlw	_matrix&0ffh
  7148  0F10  0084               	movwf	fsr0
  7149  0F11  0800               	movf	indf,w
  7150  0F12  3A58               	xorlw	058h
  7151  0F13  1D03               	skipz
  7152  0F14  2F16               	goto	u8241
  7153  0F15  2F17               	goto	u8240
  7154  0F16                     u8241:
  7155  0F16  2F31               	goto	l5200
  7156  0F17                     u8240:
  7157                           	
  7158  0F17                     l5194:	
  7159  0F17  0855               	movf	(DisplayLEDs@k),w
  7160  0F18  3E3E               	addlw	_matrix+03h&0ffh
  7161  0F19  0084               	movwf	fsr0
  7162  0F1A  0800               	movf	indf,w
  7163  0F1B  3A20               	xorlw	020h
  7164  0F1C  1D03               	skipz
  7165  0F1D  2F1F               	goto	u8251
  7166  0F1E  2F20               	goto	u8250
  7167  0F1F                     u8251:
  7168  0F1F  2F31               	goto	l5200
  7169  0F20                     u8250:
  7170                           	
  7171  0F20                     l5196:	
  7172  0F20  0855               	movf	(DisplayLEDs@k),w
  7173  0F21  3E41               	addlw	_matrix+06h&0ffh
  7174  0F22  0084               	movwf	fsr0
  7175  0F23  0800               	movf	indf,w
  7176  0F24  3A20               	xorlw	020h
  7177  0F25  1D03               	skipz
  7178  0F26  2F28               	goto	u8261
  7179  0F27  2F29               	goto	u8260
  7180  0F28                     u8261:
  7181  0F28  2F31               	goto	l5200
  7182  0F29                     u8260:
  7183                           	
  7184  0F29                     l5198:	
  7185  0F29  3080               	movlw	(080h)
  7186  0F2A  00D4               	movwf	(??_DisplayLEDs+0)+0
  7187  0F2B  0855               	movf	(DisplayLEDs@k),w
  7188  0F2C  3E44               	addlw	_result1&0ffh
  7189  0F2D  0084               	movwf	fsr0
  7190  0F2E  0854               	movf	(??_DisplayLEDs+0)+0,w
  7191  0F2F  0080               	movwf	indf
  7192  0F30  2FD1               	goto	l5224
  7193                           	line	659
  7194                           	
  7195  0F31                     l1080:	
  7196                           	
  7197  0F31                     l5200:	
  7198                           ;PR28.c: 659: else if(matrix[0][k] == ' ' & matrix[1][k] == 'X' & matrix[2][k] == 'X'){r
                                 esult1[k] = 0b00010010;}
  7199  0F31  0855               	movf	(DisplayLEDs@k),w
  7200  0F32  3E3B               	addlw	_matrix&0ffh
  7201  0F33  0084               	movwf	fsr0
  7202  0F34  0800               	movf	indf,w
  7203  0F35  3A20               	xorlw	020h
  7204  0F36  1D03               	skipz
  7205  0F37  2F39               	goto	u8271
  7206  0F38  2F3A               	goto	u8270
  7207  0F39                     u8271:
  7208  0F39  2F54               	goto	l5208
  7209  0F3A                     u8270:
  7210                           	
  7211  0F3A                     l5202:	
  7212  0F3A  0855               	movf	(DisplayLEDs@k),w
  7213  0F3B  3E3E               	addlw	_matrix+03h&0ffh
  7214  0F3C  0084               	movwf	fsr0
  7215  0F3D  0800               	movf	indf,w
  7216  0F3E  3A58               	xorlw	058h
  7217  0F3F  1D03               	skipz
  7218  0F40  2F42               	goto	u8281
  7219  0F41  2F43               	goto	u8280
  7220  0F42                     u8281:
  7221  0F42  2F54               	goto	l5208
  7222  0F43                     u8280:
  7223                           	
  7224  0F43                     l5204:	
  7225  0F43  0855               	movf	(DisplayLEDs@k),w
  7226  0F44  3E41               	addlw	_matrix+06h&0ffh
  7227  0F45  0084               	movwf	fsr0
  7228  0F46  0800               	movf	indf,w
  7229  0F47  3A58               	xorlw	058h
  7230  0F48  1D03               	skipz
  7231  0F49  2F4B               	goto	u8291
  7232  0F4A  2F4C               	goto	u8290
  7233  0F4B                     u8291:
  7234  0F4B  2F54               	goto	l5208
  7235  0F4C                     u8290:
  7236                           	
  7237  0F4C                     l5206:	
  7238  0F4C  3012               	movlw	(012h)
  7239  0F4D  00D4               	movwf	(??_DisplayLEDs+0)+0
  7240  0F4E  0855               	movf	(DisplayLEDs@k),w
  7241  0F4F  3E44               	addlw	_result1&0ffh
  7242  0F50  0084               	movwf	fsr0
  7243  0F51  0854               	movf	(??_DisplayLEDs+0)+0,w
  7244  0F52  0080               	movwf	indf
  7245  0F53  2FD1               	goto	l5224
  7246                           	line	660
  7247                           	
  7248  0F54                     l1082:	
  7249                           	
  7250  0F54                     l5208:	
  7251                           ;PR28.c: 660: else if(matrix[0][k] == ' ' & matrix[1][k] == 'X' & matrix[2][k] == ' '){r
                                 esult1[k] = 0b00010000;}
  7252  0F54  0855               	movf	(DisplayLEDs@k),w
  7253  0F55  3E3B               	addlw	_matrix&0ffh
  7254  0F56  0084               	movwf	fsr0
  7255  0F57  0800               	movf	indf,w
  7256  0F58  3A20               	xorlw	020h
  7257  0F59  1D03               	skipz
  7258  0F5A  2F5C               	goto	u8301
  7259  0F5B  2F5D               	goto	u8300
  7260  0F5C                     u8301:
  7261  0F5C  2F77               	goto	l5216
  7262  0F5D                     u8300:
  7263                           	
  7264  0F5D                     l5210:	
  7265  0F5D  0855               	movf	(DisplayLEDs@k),w
  7266  0F5E  3E3E               	addlw	_matrix+03h&0ffh
  7267  0F5F  0084               	movwf	fsr0
  7268  0F60  0800               	movf	indf,w
  7269  0F61  3A58               	xorlw	058h
  7270  0F62  1D03               	skipz
  7271  0F63  2F65               	goto	u8311
  7272  0F64  2F66               	goto	u8310
  7273  0F65                     u8311:
  7274  0F65  2F77               	goto	l5216
  7275  0F66                     u8310:
  7276                           	
  7277  0F66                     l5212:	
  7278  0F66  0855               	movf	(DisplayLEDs@k),w
  7279  0F67  3E41               	addlw	_matrix+06h&0ffh
  7280  0F68  0084               	movwf	fsr0
  7281  0F69  0800               	movf	indf,w
  7282  0F6A  3A20               	xorlw	020h
  7283  0F6B  1D03               	skipz
  7284  0F6C  2F6E               	goto	u8321
  7285  0F6D  2F6F               	goto	u8320
  7286  0F6E                     u8321:
  7287  0F6E  2F77               	goto	l5216
  7288  0F6F                     u8320:
  7289                           	
  7290  0F6F                     l5214:	
  7291  0F6F  3010               	movlw	(010h)
  7292  0F70  00D4               	movwf	(??_DisplayLEDs+0)+0
  7293  0F71  0855               	movf	(DisplayLEDs@k),w
  7294  0F72  3E44               	addlw	_result1&0ffh
  7295  0F73  0084               	movwf	fsr0
  7296  0F74  0854               	movf	(??_DisplayLEDs+0)+0,w
  7297  0F75  0080               	movwf	indf
  7298  0F76  2FD1               	goto	l5224
  7299                           	line	661
  7300                           	
  7301  0F77                     l1084:	
  7302                           	
  7303  0F77                     l5216:	
  7304                           ;PR28.c: 661: else if(matrix[0][k] == ' ' & matrix[1][k] == ' ' & matrix[2][k] == 'X'){r
                                 esult1[k] = 0b00000010;}
  7305  0F77  0855               	movf	(DisplayLEDs@k),w
  7306  0F78  3E3B               	addlw	_matrix&0ffh
  7307  0F79  0084               	movwf	fsr0
  7308  0F7A  0800               	movf	indf,w
  7309  0F7B  3A20               	xorlw	020h
  7310  0F7C  1D03               	skipz
  7311  0F7D  2F7F               	goto	u8331
  7312  0F7E  2F80               	goto	u8330
  7313  0F7F                     u8331:
  7314  0F7F  2FD1               	goto	l5224
  7315  0F80                     u8330:
  7316                           	
  7317  0F80                     l5218:	
  7318  0F80  0855               	movf	(DisplayLEDs@k),w
  7319  0F81  3E3E               	addlw	_matrix+03h&0ffh
  7320  0F82  0084               	movwf	fsr0
  7321  0F83  0800               	movf	indf,w
  7322  0F84  3A20               	xorlw	020h
  7323  0F85  1D03               	skipz
  7324  0F86  2F88               	goto	u8341
  7325  0F87  2F89               	goto	u8340
  7326  0F88                     u8341:
  7327  0F88  2FD1               	goto	l5224
  7328  0F89                     u8340:
  7329                           	
  7330  0F89                     l5220:	
  7331  0F89  0855               	movf	(DisplayLEDs@k),w
  7332  0F8A  3E41               	addlw	_matrix+06h&0ffh
  7333  0F8B  0084               	movwf	fsr0
  7334  0F8C  0800               	movf	indf,w
  7335  0F8D  3A58               	xorlw	058h
  7336  0F8E  1D03               	skipz
  7337  0F8F  2F91               	goto	u8351
  7338  0F90  2F92               	goto	u8350
  7339  0F91                     u8351:
  7340  0F91  2FD1               	goto	l5224
  7341  0F92                     u8350:
  7342                           	
  7343  0F92                     l5222:	
  7344  0F92  3002               	movlw	(02h)
  7345  0F93  00D4               	movwf	(??_DisplayLEDs+0)+0
  7346  0F94  0855               	movf	(DisplayLEDs@k),w
  7347  0F95  3E44               	addlw	_result1&0ffh
  7348  0F96  0084               	movwf	fsr0
  7349  0F97  0854               	movf	(??_DisplayLEDs+0)+0,w
  7350  0F98  0080               	movwf	indf
  7351  0F99  2FD1               	goto	l5224
  7352                           	
  7353  0F9A                     l1086:	
  7354  0F9A  2FD1               	goto	l5224
  7355                           	line	663
  7356                           	
  7357  0F9B                     l1085:	
  7358  0F9B  2FD1               	goto	l5224
  7359                           	
  7360  0F9C                     l1083:	
  7361  0F9C  2FD1               	goto	l5224
  7362                           	
  7363  0F9D                     l1081:	
  7364  0F9D  2FD1               	goto	l5224
  7365                           	
  7366  0F9E                     l1079:	
  7367  0F9E  2FD1               	goto	l5224
  7368                           	
  7369  0F9F                     l1077:	
  7370  0F9F  2FD1               	goto	l5224
  7371                           	
  7372  0FA0                     l1075:	
  7373  0FA0  2FD1               	goto	l5224
  7374                           	
  7375  0FA1                     l1073:	
  7376  0FA1  2FD1               	goto	l5224
  7377                           	
  7378  0FA2                     l1071:	
  7379  0FA2  2FD1               	goto	l5224
  7380                           	
  7381  0FA3                     l1069:	
  7382  0FA3  2FD1               	goto	l5224
  7383                           	
  7384  0FA4                     l1067:	
  7385  0FA4  2FD1               	goto	l5224
  7386                           	
  7387  0FA5                     l1065:	
  7388  0FA5  2FD1               	goto	l5224
  7389                           	
  7390  0FA6                     l1063:	
  7391  0FA6  2FD1               	goto	l5224
  7392                           	
  7393  0FA7                     l1061:	
  7394  0FA7  2FD1               	goto	l5224
  7395                           	
  7396  0FA8                     l1059:	
  7397  0FA8  2FD1               	goto	l5224
  7398                           	
  7399  0FA9                     l1057:	
  7400  0FA9  2FD1               	goto	l5224
  7401                           	
  7402  0FAA                     l1055:	
  7403  0FAA  2FD1               	goto	l5224
  7404                           	
  7405  0FAB                     l1053:	
  7406  0FAB  2FD1               	goto	l5224
  7407                           	
  7408  0FAC                     l1051:	
  7409  0FAC  2FD1               	goto	l5224
  7410                           	
  7411  0FAD                     l1049:	
  7412  0FAD  2FD1               	goto	l5224
  7413                           	
  7414  0FAE                     l1047:	
  7415  0FAE  2FD1               	goto	l5224
  7416                           	
  7417  0FAF                     l1045:	
  7418  0FAF  2FD1               	goto	l5224
  7419                           	
  7420  0FB0                     l1043:	
  7421  0FB0  2FD1               	goto	l5224
  7422                           	
  7423  0FB1                     l1041:	
  7424  0FB1  2FD1               	goto	l5224
  7425                           	
  7426  0FB2                     l1039:	
  7427  0FB2  2FD1               	goto	l5224
  7428                           	
  7429  0FB3                     l1037:	
  7430  0FB3  2FD1               	goto	l5224
  7431                           	
  7432  0FB4                     l1035:	
  7433  0FB4  2FD1               	goto	l5224
  7434                           	
  7435  0FB5                     l1033:	
  7436  0FB5  2FD1               	goto	l5224
  7437                           	
  7438  0FB6                     l1031:	
  7439  0FB6  2FD1               	goto	l5224
  7440                           	
  7441  0FB7                     l1029:	
  7442  0FB7  2FD1               	goto	l5224
  7443                           	
  7444  0FB8                     l1027:	
  7445  0FB8  2FD1               	goto	l5224
  7446                           	
  7447  0FB9                     l1025:	
  7448  0FB9  2FD1               	goto	l5224
  7449                           	
  7450  0FBA                     l1023:	
  7451  0FBA  2FD1               	goto	l5224
  7452                           	
  7453  0FBB                     l1021:	
  7454  0FBB  2FD1               	goto	l5224
  7455                           	
  7456  0FBC                     l1019:	
  7457  0FBC  2FD1               	goto	l5224
  7458                           	
  7459  0FBD                     l1017:	
  7460  0FBD  2FD1               	goto	l5224
  7461                           	
  7462  0FBE                     l1015:	
  7463  0FBE  2FD1               	goto	l5224
  7464                           	
  7465  0FBF                     l1013:	
  7466  0FBF  2FD1               	goto	l5224
  7467                           	
  7468  0FC0                     l1011:	
  7469  0FC0  2FD1               	goto	l5224
  7470                           	
  7471  0FC1                     l1009:	
  7472  0FC1  2FD1               	goto	l5224
  7473                           	
  7474  0FC2                     l1007:	
  7475  0FC2  2FD1               	goto	l5224
  7476                           	
  7477  0FC3                     l1005:	
  7478  0FC3  2FD1               	goto	l5224
  7479                           	
  7480  0FC4                     l1003:	
  7481  0FC4  2FD1               	goto	l5224
  7482                           	
  7483  0FC5                     l1001:	
  7484  0FC5  2FD1               	goto	l5224
  7485                           	
  7486  0FC6                     l999:	
  7487  0FC6  2FD1               	goto	l5224
  7488                           	
  7489  0FC7                     l997:	
  7490  0FC7  2FD1               	goto	l5224
  7491                           	
  7492  0FC8                     l995:	
  7493  0FC8  2FD1               	goto	l5224
  7494                           	
  7495  0FC9                     l993:	
  7496  0FC9  2FD1               	goto	l5224
  7497                           	
  7498  0FCA                     l991:	
  7499  0FCA  2FD1               	goto	l5224
  7500                           	
  7501  0FCB                     l989:	
  7502  0FCB  2FD1               	goto	l5224
  7503                           	
  7504  0FCC                     l987:	
  7505  0FCC  2FD1               	goto	l5224
  7506                           	
  7507  0FCD                     l985:	
  7508  0FCD  2FD1               	goto	l5224
  7509                           	
  7510  0FCE                     l983:	
  7511  0FCE  2FD1               	goto	l5224
  7512                           	
  7513  0FCF                     l981:	
  7514  0FCF  2FD1               	goto	l5224
  7515                           	
  7516  0FD0                     l979:	
  7517  0FD0  2FD1               	goto	l5224
  7518                           	
  7519  0FD1                     l977:	
  7520                           	
  7521  0FD1                     l5224:	
  7522                           ;PR28.c: 663: led_display1(result1[0]);led_display2(result1[1]);led_display3(result1[2])
                                 ;
  7523  0FD1  0844               	movf	(_result1),w
  7524  0FD2  160A  158A  277A   	fcall	_led_display1
              120A  158A         
  7525                           	
  7526  0FD7                     l5226:	
  7527  0FD7  1283               	bcf	status, 5	;RP0=0, select bank0
  7528  0FD8  1303               	bcf	status, 6	;RP1=0, select bank0
  7529  0FD9  0845               	movf	0+(_result1)+01h,w
  7530  0FDA  160A  118A  2079   	fcall	_led_display2
              120A  158A         
  7531                           	
  7532  0FDF                     l5228:	
  7533  0FDF  1283               	bcf	status, 5	;RP0=0, select bank0
  7534  0FE0  1303               	bcf	status, 6	;RP1=0, select bank0
  7535  0FE1  0846               	movf	0+(_result1)+02h,w
  7536  0FE2  160A  118A  20FF   	fcall	_led_display3
              120A  158A         
  7537                           	line	596
  7538                           	
  7539  0FE7                     l5230:	
  7540  0FE7  3001               	movlw	low(01h)
  7541  0FE8  1283               	bcf	status, 5	;RP0=0, select bank0
  7542  0FE9  1303               	bcf	status, 6	;RP1=0, select bank0
  7543  0FEA  07D5               	addwf	(DisplayLEDs@k),f
  7544  0FEB  1803               	skipnc
  7545  0FEC  0AD6               	incf	(DisplayLEDs@k+1),f
  7546  0FED  3000               	movlw	high(01h)
  7547  0FEE  07D6               	addwf	(DisplayLEDs@k+1),f
  7548                           	
  7549  0FEF                     l5232:	
  7550  0FEF  0856               	movf	(DisplayLEDs@k+1),w
  7551  0FF0  3A80               	xorlw	80h
  7552  0FF1  00FF               	movwf	btemp+1
  7553  0FF2  3080               	movlw	(high(03h))^80h
  7554  0FF3  027F               	subwf	btemp+1,w
  7555  0FF4  1D03               	skipz
  7556  0FF5  2FF8               	goto	u8365
  7557  0FF6  3003               	movlw	low(03h)
  7558  0FF7  0255               	subwf	(DisplayLEDs@k),w
  7559  0FF8                     u8365:
  7560                           
  7561  0FF8  1C03               	skipc
  7562  0FF9  2FFB               	goto	u8361
  7563  0FFA  2FFE               	goto	u8360
  7564  0FFB                     u8361:
  7565  0FFB  160A  118A  2B32   	goto	l4774
  7566  0FFE                     u8360:
  7567  0FFE  2FFF               	goto	l1087
  7568                           	
  7569  0FFF                     l975:	
  7570                           	line	665
  7571                           	
  7572  0FFF                     l1087:	
  7573  0FFF  0008               	return
  7574                           	opt stack 0
  7575                           GLOBAL	__end_of_DisplayLEDs
  7576  1000                     	__end_of_DisplayLEDs:
  7577 ;; =============== function _DisplayLEDs ends ============
  7578                           
  7579                           	signat	_DisplayLEDs,88
  7580                           	global	_CapInit
  7581                           psect	text707,local,class=CODE,delta=2
  7582                           global __ptext707
  7583  1185                     __ptext707:
  7584                           
  7585 ;; *************** function _CapInit *****************
  7586 ;; Defined at:
  7587 ;;		line 235 in file "C:\Users\Phang\Desktop\9.80\PR 28\PR28.c"
  7588 ;; Parameters:    Size  Location     Type
  7589 ;;		None
  7590 ;; Auto vars:     Size  Location     Type
  7591 ;;  j               2   11[BANK0 ] int 
  7592 ;;  i               2    9[BANK0 ] int 
  7593 ;; Return value:  Size  Location     Type
  7594 ;;		None               void
  7595 ;; Registers used:
  7596 ;;		wreg, fsr0l, fsr0h, status,2, status,0, btemp+1, pclath, cstack
  7597 ;; Tracked objects:
  7598 ;;		On entry : 0/0
  7599 ;;		On exit  : 0/0
  7600 ;;		Unchanged: 0/0
  7601 ;; Data sizes:     COMMON   BANK0   BANK1   BANK3   BANK2
  7602 ;;      Params:         0       0       0       0       0
  7603 ;;      Locals:         0       4       0       0       0
  7604 ;;      Temps:          0       5       0       0       0
  7605 ;;      Totals:         0       9       0       0       0
  7606 ;;Total ram usage:        9 bytes
  7607 ;; Hardware stack levels used:    1
  7608 ;; Hardware stack levels required when called:    4
  7609 ;; This function calls:
  7610 ;;		___bmul
  7611 ;; This function is called by:
  7612 ;;		_Init
  7613 ;; This function uses a non-reentrant model
  7614 ;;
  7615                           psect	text707
  7616                           	file	"C:\Users\Phang\Desktop\9.80\PR 28\PR28.c"
  7617                           	line	235
  7618                           	global	__size_of_CapInit
  7619  00BA                     	__size_of_CapInit	equ	__end_of_CapInit-_CapInit
  7620                           	
  7621  1185                     _CapInit:	
  7622                           	opt	stack 2
  7623                           ; Regs used in _CapInit: [wreg-fsr0h+status,2+status,0+btemp+1+pclath+cstack]
  7624                           	line	238
  7625                           	
  7626  1185                     l4722:	
  7627                           ;PR28.c: 238: for (index=0; index<9; index++) {
  7628  1185  1003               	clrc
  7629  1186  3000               	movlw	0
  7630  1187  1803               	btfsc	status,0
  7631  1188  3001               	movlw	1
  7632  1189  1283               	bcf	status, 5	;RP0=0, select bank0
  7633  118A  1303               	bcf	status, 6	;RP1=0, select bank0
  7634  118B  00D0               	movwf	(_index)
  7635                           	
  7636  118C                     l4724:	
  7637  118C  3009               	movlw	(09h)
  7638  118D  0250               	subwf	(_index),w
  7639  118E  1C03               	skipc
  7640  118F  2991               	goto	u6611
  7641  1190  2992               	goto	u6610
  7642  1191                     u6611:
  7643  1191  2994               	goto	l4728
  7644  1192                     u6610:
  7645  1192  29B4               	goto	l4734
  7646                           	
  7647  1193                     l4726:	
  7648  1193  29B4               	goto	l4734
  7649                           	
  7650  1194                     l785:	
  7651                           	line	239
  7652                           	
  7653  1194                     l4728:	
  7654                           ;PR28.c: 239: average[index] = 0;
  7655  1194  0850               	movf	(_index),w
  7656  1195  00D6               	movwf	(??_CapInit+0)+0
  7657  1196  0756               	addwf	(??_CapInit+0)+0,w
  7658  1197  3E20               	addlw	_average&0ffh
  7659  1198  0084               	movwf	fsr0
  7660  1199  3000               	movlw	low(0)
  7661  119A  1383               	bcf	status, 7	;select IRP bank0
  7662  119B  0080               	movwf	indf
  7663  119C  0A84               	incf	fsr0,f
  7664  119D  3000               	movlw	high(0)
  7665  119E  0080               	movwf	indf
  7666                           	line	240
  7667                           ;PR28.c: 240: reading[index] = 0;
  7668  119F  0850               	movf	(_index),w
  7669  11A0  00D6               	movwf	(??_CapInit+0)+0
  7670  11A1  0756               	addwf	(??_CapInit+0)+0,w
  7671  11A2  3EA0               	addlw	_reading&0ffh
  7672  11A3  0084               	movwf	fsr0
  7673  11A4  3000               	movlw	low(0)
  7674  11A5  0080               	movwf	indf
  7675  11A6  0A84               	incf	fsr0,f
  7676  11A7  3000               	movlw	high(0)
  7677  11A8  0080               	movwf	indf
  7678                           	line	238
  7679                           	
  7680  11A9                     l4730:	
  7681  11A9  3001               	movlw	(01h)
  7682  11AA  00D6               	movwf	(??_CapInit+0)+0
  7683  11AB  0856               	movf	(??_CapInit+0)+0,w
  7684  11AC  07D0               	addwf	(_index),f
  7685                           	
  7686  11AD                     l4732:	
  7687  11AD  3009               	movlw	(09h)
  7688  11AE  0250               	subwf	(_index),w
  7689  11AF  1C03               	skipc
  7690  11B0  29B2               	goto	u6621
  7691  11B1  29B3               	goto	u6620
  7692  11B2                     u6621:
  7693  11B2  2994               	goto	l4728
  7694  11B3                     u6620:
  7695  11B3  29B4               	goto	l4734
  7696                           	
  7697  11B4                     l786:	
  7698                           	line	242
  7699                           	
  7700  11B4                     l4734:	
  7701                           ;PR28.c: 241: }
  7702                           ;PR28.c: 242: for(int i=0; i<3; i++){
  7703  11B4  3000               	movlw	low(0)
  7704  11B5  00DB               	movwf	(CapInit@i)
  7705  11B6  3000               	movlw	high(0)
  7706  11B7  00DC               	movwf	((CapInit@i))+1
  7707                           	
  7708  11B8                     l4736:	
  7709  11B8  085C               	movf	(CapInit@i+1),w
  7710  11B9  3A80               	xorlw	80h
  7711  11BA  00FF               	movwf	btemp+1
  7712  11BB  3080               	movlw	(high(03h))^80h
  7713  11BC  027F               	subwf	btemp+1,w
  7714  11BD  1D03               	skipz
  7715  11BE  29C1               	goto	u6635
  7716  11BF  3003               	movlw	low(03h)
  7717  11C0  025B               	subwf	(CapInit@i),w
  7718  11C1                     u6635:
  7719                           
  7720  11C1  1C03               	skipc
  7721  11C2  29C4               	goto	u6631
  7722  11C3  29C5               	goto	u6630
  7723  11C4                     u6631:
  7724  11C4  29C7               	goto	l4740
  7725  11C5                     u6630:
  7726  11C5  2A22               	goto	l4756
  7727                           	
  7728  11C6                     l4738:	
  7729  11C6  2A22               	goto	l4756
  7730                           	
  7731  11C7                     l787:	
  7732                           	line	243
  7733                           	
  7734  11C7                     l4740:	
  7735                           ;PR28.c: 243: for(int j=0; j<3; j++){
  7736  11C7  3000               	movlw	low(0)
  7737  11C8  1283               	bcf	status, 5	;RP0=0, select bank0
  7738  11C9  1303               	bcf	status, 6	;RP1=0, select bank0
  7739  11CA  00DD               	movwf	(CapInit@j)
  7740  11CB  3000               	movlw	high(0)
  7741  11CC  00DE               	movwf	((CapInit@j))+1
  7742                           	
  7743  11CD                     l4742:	
  7744  11CD  085E               	movf	(CapInit@j+1),w
  7745  11CE  3A80               	xorlw	80h
  7746  11CF  00FF               	movwf	btemp+1
  7747  11D0  3080               	movlw	(high(03h))^80h
  7748  11D1  027F               	subwf	btemp+1,w
  7749  11D2  1D03               	skipz
  7750  11D3  29D6               	goto	u6645
  7751  11D4  3003               	movlw	low(03h)
  7752  11D5  025D               	subwf	(CapInit@j),w
  7753  11D6                     u6645:
  7754                           
  7755  11D6  1C03               	skipc
  7756  11D7  29D9               	goto	u6641
  7757  11D8  29DA               	goto	u6640
  7758  11D9                     u6641:
  7759  11D9  29DC               	goto	l4746
  7760  11DA                     u6640:
  7761  11DA  2A0C               	goto	l4752
  7762                           	
  7763  11DB                     l4744:	
  7764  11DB  2A0C               	goto	l4752
  7765                           	
  7766  11DC                     l789:	
  7767                           	line	244
  7768                           	
  7769  11DC                     l4746:	
  7770                           ;PR28.c: 244: matrix[i][j] = ' ';
  7771  11DC  3020               	movlw	(020h)
  7772  11DD  1283               	bcf	status, 5	;RP0=0, select bank0
  7773  11DE  1303               	bcf	status, 6	;RP1=0, select bank0
  7774  11DF  00D6               	movwf	(??_CapInit+0)+0
  7775  11E0  3003               	movlw	(03h)
  7776  11E1  00D7               	movwf	(??_CapInit+1)+0
  7777  11E2  0857               	movf	(??_CapInit+1)+0,w
  7778  11E3  00D2               	movwf	(?___bmul)
  7779  11E4  085B               	movf	(CapInit@i),w
  7780  11E5  160A  158A  262F   	fcall	___bmul
              160A  118A         
  7781  11EA  1283               	bcf	status, 5	;RP0=0, select bank0
  7782  11EB  1303               	bcf	status, 6	;RP1=0, select bank0
  7783  11EC  00D8               	movwf	(??_CapInit+2)+0
  7784  11ED  303B               	movlw	(_matrix)&0ffh
  7785  11EE  0758               	addwf	0+(??_CapInit+2)+0,w
  7786  11EF  00D9               	movwf	(??_CapInit+3)+0
  7787  11F0  085D               	movf	(CapInit@j),w
  7788  11F1  0759               	addwf	0+(??_CapInit+3)+0,w
  7789  11F2  00DA               	movwf	(??_CapInit+4)+0
  7790  11F3  085A               	movf	0+(??_CapInit+4)+0,w
  7791  11F4  0084               	movwf	fsr0
  7792  11F5  0856               	movf	(??_CapInit+0)+0,w
  7793  11F6  1383               	bcf	status, 7	;select IRP bank0
  7794  11F7  0080               	movwf	indf
  7795                           	line	243
  7796                           	
  7797  11F8                     l4748:	
  7798  11F8  3001               	movlw	low(01h)
  7799  11F9  07DD               	addwf	(CapInit@j),f
  7800  11FA  1803               	skipnc
  7801  11FB  0ADE               	incf	(CapInit@j+1),f
  7802  11FC  3000               	movlw	high(01h)
  7803  11FD  07DE               	addwf	(CapInit@j+1),f
  7804                           	
  7805  11FE                     l4750:	
  7806  11FE  085E               	movf	(CapInit@j+1),w
  7807  11FF  3A80               	xorlw	80h
  7808  1200  00FF               	movwf	btemp+1
  7809  1201  3080               	movlw	(high(03h))^80h
  7810  1202  027F               	subwf	btemp+1,w
  7811  1203  1D03               	skipz
  7812  1204  2A07               	goto	u6655
  7813  1205  3003               	movlw	low(03h)
  7814  1206  025D               	subwf	(CapInit@j),w
  7815  1207                     u6655:
  7816                           
  7817  1207  1C03               	skipc
  7818  1208  2A0A               	goto	u6651
  7819  1209  2A0B               	goto	u6650
  7820  120A                     u6651:
  7821  120A  29DC               	goto	l4746
  7822  120B                     u6650:
  7823  120B  2A0C               	goto	l4752
  7824                           	
  7825  120C                     l790:	
  7826                           	line	242
  7827                           	
  7828  120C                     l4752:	
  7829  120C  3001               	movlw	low(01h)
  7830  120D  1283               	bcf	status, 5	;RP0=0, select bank0
  7831  120E  1303               	bcf	status, 6	;RP1=0, select bank0
  7832  120F  07DB               	addwf	(CapInit@i),f
  7833  1210  1803               	skipnc
  7834  1211  0ADC               	incf	(CapInit@i+1),f
  7835  1212  3000               	movlw	high(01h)
  7836  1213  07DC               	addwf	(CapInit@i+1),f
  7837                           	
  7838  1214                     l4754:	
  7839  1214  085C               	movf	(CapInit@i+1),w
  7840  1215  3A80               	xorlw	80h
  7841  1216  00FF               	movwf	btemp+1
  7842  1217  3080               	movlw	(high(03h))^80h
  7843  1218  027F               	subwf	btemp+1,w
  7844  1219  1D03               	skipz
  7845  121A  2A1D               	goto	u6665
  7846  121B  3003               	movlw	low(03h)
  7847  121C  025B               	subwf	(CapInit@i),w
  7848  121D                     u6665:
  7849                           
  7850  121D  1C03               	skipc
  7851  121E  2A20               	goto	u6661
  7852  121F  2A21               	goto	u6660
  7853  1220                     u6661:
  7854  1220  29C7               	goto	l4740
  7855  1221                     u6660:
  7856  1221  2A22               	goto	l4756
  7857                           	
  7858  1222                     l788:	
  7859                           	line	252
  7860                           	
  7861  1222                     l4756:	
  7862                           ;PR28.c: 245: }
  7863                           ;PR28.c: 246: }
  7864                           ;PR28.c: 252: T2CON = 0b01110110;
  7865  1222  3076               	movlw	(076h)
  7866  1223  1283               	bcf	status, 5	;RP0=0, select bank0
  7867  1224  1303               	bcf	status, 6	;RP1=0, select bank0
  7868  1225  0092               	movwf	(18)	;volatile
  7869                           	line	253
  7870                           ;PR28.c: 253: PR2 = 0xB4;
  7871  1226  30B4               	movlw	(0B4h)
  7872  1227  1683               	bsf	status, 5	;RP0=1, select bank1
  7873  1228  1303               	bcf	status, 6	;RP1=0, select bank1
  7874  1229  0092               	movwf	(146)^080h	;volatile
  7875                           	line	254
  7876                           	
  7877  122A                     l4758:	
  7878                           ;PR28.c: 254: TMR2IF = 0;
  7879  122A  1283               	bcf	status, 5	;RP0=0, select bank0
  7880  122B  1303               	bcf	status, 6	;RP1=0, select bank0
  7881  122C  108C               	bcf	(97/8),(97)&7
  7882                           	line	255
  7883                           	
  7884  122D                     l4760:	
  7885                           ;PR28.c: 255: TMR2IE = 1;
  7886  122D  1683               	bsf	status, 5	;RP0=1, select bank1
  7887  122E  1303               	bcf	status, 6	;RP1=0, select bank1
  7888  122F  148C               	bsf	(1121/8)^080h,(1121)&7
  7889                           	line	256
  7890                           ;PR28.c: 256: T1CON = 0b11000101;
  7891  1230  30C5               	movlw	(0C5h)
  7892  1231  1283               	bcf	status, 5	;RP0=0, select bank0
  7893  1232  1303               	bcf	status, 6	;RP1=0, select bank0
  7894  1233  0090               	movwf	(16)	;volatile
  7895                           	line	257
  7896                           ;PR28.c: 257: T1GCON = 0b11100010;
  7897  1234  30E2               	movlw	(0E2h)
  7898  1235  1683               	bsf	status, 5	;RP0=1, select bank1
  7899  1236  1303               	bcf	status, 6	;RP1=0, select bank1
  7900  1237  008F               	movwf	(143)^080h	;volatile
  7901                           	line	258
  7902                           	
  7903  1238                     l4762:	
  7904                           ;PR28.c: 258: TMR1GIF = 0;
  7905  1238  1283               	bcf	status, 5	;RP0=0, select bank0
  7906  1239  1303               	bcf	status, 6	;RP1=0, select bank0
  7907  123A  138C               	bcf	(103/8),(103)&7
  7908                           	line	259
  7909                           	
  7910  123B                     l4764:	
  7911                           ;PR28.c: 259: TMR1GIE = 1;
  7912  123B  1683               	bsf	status, 5	;RP0=1, select bank1
  7913  123C  1303               	bcf	status, 6	;RP1=0, select bank1
  7914  123D  178C               	bsf	(1127/8)^080h,(1127)&7
  7915                           	line	261
  7916                           	
  7917  123E                     l791:	
  7918  123E  0008               	return
  7919                           	opt stack 0
  7920                           GLOBAL	__end_of_CapInit
  7921  123F                     	__end_of_CapInit:
  7922 ;; =============== function _CapInit ends ============
  7923                           
  7924                           	signat	_CapInit,88
  7925                           	global	_led_off
  7926                           psect	text708,local,class=CODE,delta=2
  7927                           global __ptext708
  7928  1E90                     __ptext708:
  7929                           
  7930 ;; *************** function _led_off *****************
  7931 ;; Defined at:
  7932 ;;		line 932 in file "C:\Users\Phang\Desktop\9.80\PR 28\PR28.c"
  7933 ;; Parameters:    Size  Location     Type
  7934 ;;		None
  7935 ;; Auto vars:     Size  Location     Type
  7936 ;;		None
  7937 ;; Return value:  Size  Location     Type
  7938 ;;		None               void
  7939 ;; Registers used:
  7940 ;;		wreg, status,2, status,0, pclath, cstack
  7941 ;; Tracked objects:
  7942 ;;		On entry : 0/0
  7943 ;;		On exit  : 0/0
  7944 ;;		Unchanged: 0/0
  7945 ;; Data sizes:     COMMON   BANK0   BANK1   BANK3   BANK2
  7946 ;;      Params:         0       0       0       0       0
  7947 ;;      Locals:         0       0       0       0       0
  7948 ;;      Temps:          0       0       0       0       0
  7949 ;;      Totals:         0       0       0       0       0
  7950 ;;Total ram usage:        0 bytes
  7951 ;; Hardware stack levels used:    1
  7952 ;; Hardware stack levels required when called:    4
  7953 ;; This function calls:
  7954 ;;		_led_display1
  7955 ;;		_led_display2
  7956 ;;		_led_display3
  7957 ;; This function is called by:
  7958 ;;		_Init
  7959 ;;		_draw
  7960 ;; This function uses a non-reentrant model
  7961 ;;
  7962                           psect	text708
  7963                           	file	"C:\Users\Phang\Desktop\9.80\PR 28\PR28.c"
  7964                           	line	932
  7965                           	global	__size_of_led_off
  7966  0024                     	__size_of_led_off	equ	__end_of_led_off-_led_off
  7967                           	
  7968  1E90                     _led_off:	
  7969                           	opt	stack 2
  7970                           ; Regs used in _led_off: [wreg+status,2+status,0+pclath+cstack]
  7971                           	line	933
  7972                           	
  7973  1E90                     l4710:	
  7974                           ;PR28.c: 933: result = 0b00000000;
  7975  1E90  1003               	clrc
  7976  1E91  3000               	movlw	0
  7977  1E92  1803               	btfsc	status,0
  7978  1E93  3001               	movlw	1
  7979  1E94  1283               	bcf	status, 5	;RP0=0, select bank0
  7980  1E95  1303               	bcf	status, 6	;RP1=0, select bank0
  7981  1E96  00D1               	movwf	(_result)
  7982                           	line	934
  7983                           	
  7984  1E97                     l4712:	
  7985                           ;PR28.c: 934: RA6 = RA7 = RA0 = 0;
  7986  1E97  1005               	bcf	(40/8),(40)&7
  7987  1E98  1385               	bcf	(47/8),(47)&7
  7988  1E99  1305               	bcf	(46/8),(46)&7
  7989                           	line	935
  7990                           	
  7991  1E9A                     l4714:	
  7992                           ;PR28.c: 935: RC5 = RC6 = RC7 = 0;
  7993  1E9A  1387               	bcf	(63/8),(63)&7
  7994  1E9B  1307               	bcf	(62/8),(62)&7
  7995  1E9C  1287               	bcf	(61/8),(61)&7
  7996                           	line	936
  7997                           	
  7998  1E9D                     l4716:	
  7999                           ;PR28.c: 936: led_display1(result);
  8000  1E9D  0851               	movf	(_result),w
  8001  1E9E  160A  158A  277A   	fcall	_led_display1
              160A  158A         
  8002                           	line	937
  8003                           	
  8004  1EA3                     l4718:	
  8005                           ;PR28.c: 937: led_display2(result);
  8006  1EA3  1283               	bcf	status, 5	;RP0=0, select bank0
  8007  1EA4  1303               	bcf	status, 6	;RP1=0, select bank0
  8008  1EA5  0851               	movf	(_result),w
  8009  1EA6  160A  118A  2079   	fcall	_led_display2
              160A  158A         
  8010                           	line	938
  8011                           	
  8012  1EAB                     l4720:	
  8013                           ;PR28.c: 938: led_display3(result);
  8014  1EAB  1283               	bcf	status, 5	;RP0=0, select bank0
  8015  1EAC  1303               	bcf	status, 6	;RP1=0, select bank0
  8016  1EAD  0851               	movf	(_result),w
  8017  1EAE  160A  118A  20FF   	fcall	_led_display3
              160A  158A         
  8018                           	line	939
  8019                           	
  8020  1EB3                     l1183:	
  8021  1EB3  0008               	return
  8022                           	opt stack 0
  8023                           GLOBAL	__end_of_led_off
  8024  1EB4                     	__end_of_led_off:
  8025 ;; =============== function _led_off ends ============
  8026                           
  8027                           	signat	_led_off,88
  8028                           	global	_PIEZO_D
  8029                           psect	text709,local,class=CODE,delta=2
  8030                           global __ptext709
  8031  00EE                     __ptext709:
  8032                           
  8033 ;; *************** function _PIEZO_D *****************
  8034 ;; Defined at:
  8035 ;;		line 1011 in file "C:\Users\Phang\Desktop\9.80\PR 28\PR28.c"
  8036 ;; Parameters:    Size  Location     Type
  8037 ;;		None
  8038 ;; Auto vars:     Size  Location     Type
  8039 ;;		None
  8040 ;; Return value:  Size  Location     Type
  8041 ;;		None               void
  8042 ;; Registers used:
  8043 ;;		wreg, status,2, status,0, pclath, cstack
  8044 ;; Tracked objects:
  8045 ;;		On entry : 0/0
  8046 ;;		On exit  : 0/0
  8047 ;;		Unchanged: 0/0
  8048 ;; Data sizes:     COMMON   BANK0   BANK1   BANK3   BANK2
  8049 ;;      Params:         0       0       0       0       0
  8050 ;;      Locals:         0       0       0       0       0
  8051 ;;      Temps:          0       0       0       0       0
  8052 ;;      Totals:         0       0       0       0       0
  8053 ;;Total ram usage:        0 bytes
  8054 ;; Hardware stack levels used:    1
  8055 ;; Hardware stack levels required when called:    4
  8056 ;; This function calls:
  8057 ;;		_delay
  8058 ;;		_RestartTimer1
  8059 ;; This function is called by:
  8060 ;;		_main
  8061 ;; This function uses a non-reentrant model
  8062 ;;
  8063                           psect	text709
  8064                           	file	"C:\Users\Phang\Desktop\9.80\PR 28\PR28.c"
  8065                           	line	1011
  8066                           	global	__size_of_PIEZO_D
  8067  02A4                     	__size_of_PIEZO_D	equ	__end_of_PIEZO_D-_PIEZO_D
  8068                           	
  8069  00EE                     _PIEZO_D:	
  8070                           	opt	stack 3
  8071                           ; Regs used in _PIEZO_D: [wreg+status,2+status,0+pclath+cstack]
  8072                           	line	1012
  8073                           	
  8074  00EE                     l4566:	
  8075                           ;PR28.c: 1012: GIE=0;
  8076  00EE  138B               	bcf	(95/8),(95)&7
  8077                           	line	1013
  8078                           ;PR28.c: 1013: TMR2ON = 0;
  8079  00EF  1283               	bcf	status, 5	;RP0=0, select bank0
  8080  00F0  1303               	bcf	status, 6	;RP1=0, select bank0
  8081  00F1  1112               	bcf	(146/8),(146)&7
  8082                           	line	1014
  8083                           ;PR28.c: 1014: TMR1ON = 0;
  8084  00F2  1010               	bcf	(128/8),(128)&7
  8085                           	line	1015
  8086                           	
  8087  00F3                     l4568:	
  8088                           ;PR28.c: 1015: CCP1CON = 0b00001100;
  8089  00F3  300C               	movlw	(0Ch)
  8090  00F4  0097               	movwf	(23)	;volatile
  8091                           	line	1016
  8092                           ;PR28.c: 1016: T2CON = 0b00000111;
  8093  00F5  3007               	movlw	(07h)
  8094  00F6  0092               	movwf	(18)	;volatile
  8095                           	line	1017
  8096                           ;PR28.c: 1017: PR2 = 0xBC;
  8097  00F7  30BC               	movlw	(0BCh)
  8098  00F8  1683               	bsf	status, 5	;RP0=1, select bank1
  8099  00F9  1303               	bcf	status, 6	;RP1=0, select bank1
  8100  00FA  0092               	movwf	(146)^080h	;volatile
  8101                           	line	1018
  8102                           ;PR28.c: 1018: CCPR1L = 50;
  8103  00FB  3032               	movlw	(032h)
  8104  00FC  1283               	bcf	status, 5	;RP0=0, select bank0
  8105  00FD  1303               	bcf	status, 6	;RP1=0, select bank0
  8106  00FE  0095               	movwf	(21)	;volatile
  8107                           	line	1019
  8108                           	
  8109  00FF                     l4570:	
  8110                           ;PR28.c: 1019: delay(4000);
  8111  00FF  3000               	movlw	0
  8112  0100  00D5               	movwf	(?_delay+3)
  8113  0101  3000               	movlw	0
  8114  0102  00D4               	movwf	(?_delay+2)
  8115  0103  300F               	movlw	0Fh
  8116  0104  00D3               	movwf	(?_delay+1)
  8117  0105  30A0               	movlw	0A0h
  8118  0106  00D2               	movwf	(?_delay)
  8119                           
  8120  0107  160A  158A  26DE   	fcall	_delay
              120A  118A         
  8121                           	line	1020
  8122                           	
  8123  010C                     l4572:	
  8124                           ;PR28.c: 1020: PR2 = 0xBC;
  8125  010C  30BC               	movlw	(0BCh)
  8126  010D  1683               	bsf	status, 5	;RP0=1, select bank1
  8127  010E  1303               	bcf	status, 6	;RP1=0, select bank1
  8128  010F  0092               	movwf	(146)^080h	;volatile
  8129                           	line	1021
  8130                           	
  8131  0110                     l4574:	
  8132                           ;PR28.c: 1021: CCPR1L = 50;
  8133  0110  3032               	movlw	(032h)
  8134  0111  1283               	bcf	status, 5	;RP0=0, select bank0
  8135  0112  1303               	bcf	status, 6	;RP1=0, select bank0
  8136  0113  0095               	movwf	(21)	;volatile
  8137                           	line	1022
  8138                           	
  8139  0114                     l4576:	
  8140                           ;PR28.c: 1022: delay(4000);
  8141  0114  3000               	movlw	0
  8142  0115  00D5               	movwf	(?_delay+3)
  8143  0116  3000               	movlw	0
  8144  0117  00D4               	movwf	(?_delay+2)
  8145  0118  300F               	movlw	0Fh
  8146  0119  00D3               	movwf	(?_delay+1)
  8147  011A  30A0               	movlw	0A0h
  8148  011B  00D2               	movwf	(?_delay)
  8149                           
  8150  011C  160A  158A  26DE   	fcall	_delay
              120A  118A         
  8151                           	line	1023
  8152                           ;PR28.c: 1023: PR2 = 0xB2;
  8153  0121  30B2               	movlw	(0B2h)
  8154  0122  1683               	bsf	status, 5	;RP0=1, select bank1
  8155  0123  1303               	bcf	status, 6	;RP1=0, select bank1
  8156  0124  0092               	movwf	(146)^080h	;volatile
  8157                           	line	1024
  8158                           ;PR28.c: 1024: CCPR1L = 50;
  8159  0125  3032               	movlw	(032h)
  8160  0126  1283               	bcf	status, 5	;RP0=0, select bank0
  8161  0127  1303               	bcf	status, 6	;RP1=0, select bank0
  8162  0128  0095               	movwf	(21)	;volatile
  8163                           	line	1025
  8164                           	
  8165  0129                     l4578:	
  8166                           ;PR28.c: 1025: delay(4000);
  8167  0129  3000               	movlw	0
  8168  012A  00D5               	movwf	(?_delay+3)
  8169  012B  3000               	movlw	0
  8170  012C  00D4               	movwf	(?_delay+2)
  8171  012D  300F               	movlw	0Fh
  8172  012E  00D3               	movwf	(?_delay+1)
  8173  012F  30A0               	movlw	0A0h
  8174  0130  00D2               	movwf	(?_delay)
  8175                           
  8176  0131  160A  158A  26DE   	fcall	_delay
              120A  118A         
  8177                           	line	1026
  8178                           	
  8179  0136                     l4580:	
  8180                           ;PR28.c: 1026: PR2 = 0x9E;
  8181  0136  309E               	movlw	(09Eh)
  8182  0137  1683               	bsf	status, 5	;RP0=1, select bank1
  8183  0138  1303               	bcf	status, 6	;RP1=0, select bank1
  8184  0139  0092               	movwf	(146)^080h	;volatile
  8185                           	line	1027
  8186                           	
  8187  013A                     l4582:	
  8188                           ;PR28.c: 1027: CCPR1L = 100;
  8189  013A  3064               	movlw	(064h)
  8190  013B  1283               	bcf	status, 5	;RP0=0, select bank0
  8191  013C  1303               	bcf	status, 6	;RP1=0, select bank0
  8192  013D  0095               	movwf	(21)	;volatile
  8193                           	line	1028
  8194                           	
  8195  013E                     l4584:	
  8196                           ;PR28.c: 1028: delay(4000);
  8197  013E  3000               	movlw	0
  8198  013F  00D5               	movwf	(?_delay+3)
  8199  0140  3000               	movlw	0
  8200  0141  00D4               	movwf	(?_delay+2)
  8201  0142  300F               	movlw	0Fh
  8202  0143  00D3               	movwf	(?_delay+1)
  8203  0144  30A0               	movlw	0A0h
  8204  0145  00D2               	movwf	(?_delay)
  8205                           
  8206  0146  160A  158A  26DE   	fcall	_delay
              120A  118A         
  8207                           	line	1029
  8208                           ;PR28.c: 1029: PR2 = 0x9E;
  8209  014B  309E               	movlw	(09Eh)
  8210  014C  1683               	bsf	status, 5	;RP0=1, select bank1
  8211  014D  1303               	bcf	status, 6	;RP1=0, select bank1
  8212  014E  0092               	movwf	(146)^080h	;volatile
  8213                           	line	1030
  8214                           ;PR28.c: 1030: CCPR1L = 100;
  8215  014F  3064               	movlw	(064h)
  8216  0150  1283               	bcf	status, 5	;RP0=0, select bank0
  8217  0151  1303               	bcf	status, 6	;RP1=0, select bank0
  8218  0152  0095               	movwf	(21)	;volatile
  8219                           	line	1031
  8220                           	
  8221  0153                     l4586:	
  8222                           ;PR28.c: 1031: delay(4000);
  8223  0153  3000               	movlw	0
  8224  0154  00D5               	movwf	(?_delay+3)
  8225  0155  3000               	movlw	0
  8226  0156  00D4               	movwf	(?_delay+2)
  8227  0157  300F               	movlw	0Fh
  8228  0158  00D3               	movwf	(?_delay+1)
  8229  0159  30A0               	movlw	0A0h
  8230  015A  00D2               	movwf	(?_delay)
  8231                           
  8232  015B  160A  158A  26DE   	fcall	_delay
              120A  118A         
  8233                           	line	1032
  8234                           	
  8235  0160                     l4588:	
  8236                           ;PR28.c: 1032: PR2 = 0xB2;
  8237  0160  30B2               	movlw	(0B2h)
  8238  0161  1683               	bsf	status, 5	;RP0=1, select bank1
  8239  0162  1303               	bcf	status, 6	;RP1=0, select bank1
  8240  0163  0092               	movwf	(146)^080h	;volatile
  8241                           	line	1033
  8242                           	
  8243  0164                     l4590:	
  8244                           ;PR28.c: 1033: CCPR1L = 50;
  8245  0164  3032               	movlw	(032h)
  8246  0165  1283               	bcf	status, 5	;RP0=0, select bank0
  8247  0166  1303               	bcf	status, 6	;RP1=0, select bank0
  8248  0167  0095               	movwf	(21)	;volatile
  8249                           	line	1034
  8250                           	
  8251  0168                     l4592:	
  8252                           ;PR28.c: 1034: delay(4000);
  8253  0168  3000               	movlw	0
  8254  0169  00D5               	movwf	(?_delay+3)
  8255  016A  3000               	movlw	0
  8256  016B  00D4               	movwf	(?_delay+2)
  8257  016C  300F               	movlw	0Fh
  8258  016D  00D3               	movwf	(?_delay+1)
  8259  016E  30A0               	movlw	0A0h
  8260  016F  00D2               	movwf	(?_delay)
  8261                           
  8262  0170  160A  158A  26DE   	fcall	_delay
              120A  118A         
  8263                           	line	1035
  8264                           ;PR28.c: 1035: PR2 = 0xBC;
  8265  0175  30BC               	movlw	(0BCh)
  8266  0176  1683               	bsf	status, 5	;RP0=1, select bank1
  8267  0177  1303               	bcf	status, 6	;RP1=0, select bank1
  8268  0178  0092               	movwf	(146)^080h	;volatile
  8269                           	line	1036
  8270                           ;PR28.c: 1036: CCPR1L = 50;
  8271  0179  3032               	movlw	(032h)
  8272  017A  1283               	bcf	status, 5	;RP0=0, select bank0
  8273  017B  1303               	bcf	status, 6	;RP1=0, select bank0
  8274  017C  0095               	movwf	(21)	;volatile
  8275                           	line	1037
  8276                           	
  8277  017D                     l4594:	
  8278                           ;PR28.c: 1037: delay(4000);
  8279  017D  3000               	movlw	0
  8280  017E  00D5               	movwf	(?_delay+3)
  8281  017F  3000               	movlw	0
  8282  0180  00D4               	movwf	(?_delay+2)
  8283  0181  300F               	movlw	0Fh
  8284  0182  00D3               	movwf	(?_delay+1)
  8285  0183  30A0               	movlw	0A0h
  8286  0184  00D2               	movwf	(?_delay)
  8287                           
  8288  0185  160A  158A  26DE   	fcall	_delay
              120A  118A         
  8289                           	line	1038
  8290                           	
  8291  018A                     l4596:	
  8292                           ;PR28.c: 1038: PR2 = 0xD3;
  8293  018A  30D3               	movlw	(0D3h)
  8294  018B  1683               	bsf	status, 5	;RP0=1, select bank1
  8295  018C  1303               	bcf	status, 6	;RP1=0, select bank1
  8296  018D  0092               	movwf	(146)^080h	;volatile
  8297                           	line	1039
  8298                           	
  8299  018E                     l4598:	
  8300                           ;PR28.c: 1039: CCPR1L = 50;
  8301  018E  3032               	movlw	(032h)
  8302  018F  1283               	bcf	status, 5	;RP0=0, select bank0
  8303  0190  1303               	bcf	status, 6	;RP1=0, select bank0
  8304  0191  0095               	movwf	(21)	;volatile
  8305                           	line	1040
  8306                           	
  8307  0192                     l4600:	
  8308                           ;PR28.c: 1040: delay(4000);
  8309  0192  3000               	movlw	0
  8310  0193  00D5               	movwf	(?_delay+3)
  8311  0194  3000               	movlw	0
  8312  0195  00D4               	movwf	(?_delay+2)
  8313  0196  300F               	movlw	0Fh
  8314  0197  00D3               	movwf	(?_delay+1)
  8315  0198  30A0               	movlw	0A0h
  8316  0199  00D2               	movwf	(?_delay)
  8317                           
  8318  019A  160A  158A  26DE   	fcall	_delay
              120A  118A         
  8319                           	line	1041
  8320                           ;PR28.c: 1041: PR2 = 0xEE;
  8321  019F  30EE               	movlw	(0EEh)
  8322  01A0  1683               	bsf	status, 5	;RP0=1, select bank1
  8323  01A1  1303               	bcf	status, 6	;RP1=0, select bank1
  8324  01A2  0092               	movwf	(146)^080h	;volatile
  8325                           	line	1042
  8326                           ;PR28.c: 1042: CCPR1L = 50;
  8327  01A3  3032               	movlw	(032h)
  8328  01A4  1283               	bcf	status, 5	;RP0=0, select bank0
  8329  01A5  1303               	bcf	status, 6	;RP1=0, select bank0
  8330  01A6  0095               	movwf	(21)	;volatile
  8331                           	line	1043
  8332                           	
  8333  01A7                     l4602:	
  8334                           ;PR28.c: 1043: delay(4000);
  8335  01A7  3000               	movlw	0
  8336  01A8  00D5               	movwf	(?_delay+3)
  8337  01A9  3000               	movlw	0
  8338  01AA  00D4               	movwf	(?_delay+2)
  8339  01AB  300F               	movlw	0Fh
  8340  01AC  00D3               	movwf	(?_delay+1)
  8341  01AD  30A0               	movlw	0A0h
  8342  01AE  00D2               	movwf	(?_delay)
  8343                           
  8344  01AF  160A  158A  26DE   	fcall	_delay
              120A  118A         
  8345                           	line	1044
  8346                           	
  8347  01B4                     l4604:	
  8348                           ;PR28.c: 1044: PR2 = 0xEE;
  8349  01B4  30EE               	movlw	(0EEh)
  8350  01B5  1683               	bsf	status, 5	;RP0=1, select bank1
  8351  01B6  1303               	bcf	status, 6	;RP1=0, select bank1
  8352  01B7  0092               	movwf	(146)^080h	;volatile
  8353                           	line	1045
  8354                           	
  8355  01B8                     l4606:	
  8356                           ;PR28.c: 1045: CCPR1L = 50;
  8357  01B8  3032               	movlw	(032h)
  8358  01B9  1283               	bcf	status, 5	;RP0=0, select bank0
  8359  01BA  1303               	bcf	status, 6	;RP1=0, select bank0
  8360  01BB  0095               	movwf	(21)	;volatile
  8361                           	line	1046
  8362                           	
  8363  01BC                     l4608:	
  8364                           ;PR28.c: 1046: delay(4000);
  8365  01BC  3000               	movlw	0
  8366  01BD  00D5               	movwf	(?_delay+3)
  8367  01BE  3000               	movlw	0
  8368  01BF  00D4               	movwf	(?_delay+2)
  8369  01C0  300F               	movlw	0Fh
  8370  01C1  00D3               	movwf	(?_delay+1)
  8371  01C2  30A0               	movlw	0A0h
  8372  01C3  00D2               	movwf	(?_delay)
  8373                           
  8374  01C4  160A  158A  26DE   	fcall	_delay
              120A  118A         
  8375                           	line	1047
  8376                           ;PR28.c: 1047: PR2 = 0xD3;
  8377  01C9  30D3               	movlw	(0D3h)
  8378  01CA  1683               	bsf	status, 5	;RP0=1, select bank1
  8379  01CB  1303               	bcf	status, 6	;RP1=0, select bank1
  8380  01CC  0092               	movwf	(146)^080h	;volatile
  8381                           	line	1048
  8382                           ;PR28.c: 1048: CCPR1L = 50;
  8383  01CD  3032               	movlw	(032h)
  8384  01CE  1283               	bcf	status, 5	;RP0=0, select bank0
  8385  01CF  1303               	bcf	status, 6	;RP1=0, select bank0
  8386  01D0  0095               	movwf	(21)	;volatile
  8387                           	line	1049
  8388                           	
  8389  01D1                     l4610:	
  8390                           ;PR28.c: 1049: delay(4000);
  8391  01D1  3000               	movlw	0
  8392  01D2  00D5               	movwf	(?_delay+3)
  8393  01D3  3000               	movlw	0
  8394  01D4  00D4               	movwf	(?_delay+2)
  8395  01D5  300F               	movlw	0Fh
  8396  01D6  00D3               	movwf	(?_delay+1)
  8397  01D7  30A0               	movlw	0A0h
  8398  01D8  00D2               	movwf	(?_delay)
  8399                           
  8400  01D9  160A  158A  26DE   	fcall	_delay
              120A  118A         
  8401                           	line	1050
  8402                           	
  8403  01DE                     l4612:	
  8404                           ;PR28.c: 1050: PR2 = 0xBC;
  8405  01DE  30BC               	movlw	(0BCh)
  8406  01DF  1683               	bsf	status, 5	;RP0=1, select bank1
  8407  01E0  1303               	bcf	status, 6	;RP1=0, select bank1
  8408  01E1  0092               	movwf	(146)^080h	;volatile
  8409                           	line	1051
  8410                           	
  8411  01E2                     l4614:	
  8412                           ;PR28.c: 1051: CCPR1L = 50;
  8413  01E2  3032               	movlw	(032h)
  8414  01E3  1283               	bcf	status, 5	;RP0=0, select bank0
  8415  01E4  1303               	bcf	status, 6	;RP1=0, select bank0
  8416  01E5  0095               	movwf	(21)	;volatile
  8417                           	line	1052
  8418                           	
  8419  01E6                     l4616:	
  8420                           ;PR28.c: 1052: delay(4000);
  8421  01E6  3000               	movlw	0
  8422  01E7  00D5               	movwf	(?_delay+3)
  8423  01E8  3000               	movlw	0
  8424  01E9  00D4               	movwf	(?_delay+2)
  8425  01EA  300F               	movlw	0Fh
  8426  01EB  00D3               	movwf	(?_delay+1)
  8427  01EC  30A0               	movlw	0A0h
  8428  01ED  00D2               	movwf	(?_delay)
  8429                           
  8430  01EE  160A  158A  26DE   	fcall	_delay
              120A  118A         
  8431                           	line	1053
  8432                           ;PR28.c: 1053: PR2 = 0xBC;
  8433  01F3  30BC               	movlw	(0BCh)
  8434  01F4  1683               	bsf	status, 5	;RP0=1, select bank1
  8435  01F5  1303               	bcf	status, 6	;RP1=0, select bank1
  8436  01F6  0092               	movwf	(146)^080h	;volatile
  8437                           	line	1054
  8438                           ;PR28.c: 1054: CCPR1L = 50;
  8439  01F7  3032               	movlw	(032h)
  8440  01F8  1283               	bcf	status, 5	;RP0=0, select bank0
  8441  01F9  1303               	bcf	status, 6	;RP1=0, select bank0
  8442  01FA  0095               	movwf	(21)	;volatile
  8443                           	line	1055
  8444                           	
  8445  01FB                     l4618:	
  8446                           ;PR28.c: 1055: delay(4000);
  8447  01FB  3000               	movlw	0
  8448  01FC  00D5               	movwf	(?_delay+3)
  8449  01FD  3000               	movlw	0
  8450  01FE  00D4               	movwf	(?_delay+2)
  8451  01FF  300F               	movlw	0Fh
  8452  0200  00D3               	movwf	(?_delay+1)
  8453  0201  30A0               	movlw	0A0h
  8454  0202  00D2               	movwf	(?_delay)
  8455                           
  8456  0203  160A  158A  26DE   	fcall	_delay
              120A  118A         
  8457                           	line	1056
  8458                           	
  8459  0208                     l4620:	
  8460                           ;PR28.c: 1056: PR2 = 0xD3;
  8461  0208  30D3               	movlw	(0D3h)
  8462  0209  1683               	bsf	status, 5	;RP0=1, select bank1
  8463  020A  1303               	bcf	status, 6	;RP1=0, select bank1
  8464  020B  0092               	movwf	(146)^080h	;volatile
  8465                           	line	1057
  8466                           	
  8467  020C                     l4622:	
  8468                           ;PR28.c: 1057: CCPR1L = 50;
  8469  020C  3032               	movlw	(032h)
  8470  020D  1283               	bcf	status, 5	;RP0=0, select bank0
  8471  020E  1303               	bcf	status, 6	;RP1=0, select bank0
  8472  020F  0095               	movwf	(21)	;volatile
  8473                           	line	1058
  8474                           	
  8475  0210                     l4624:	
  8476                           ;PR28.c: 1058: delay(2000);
  8477  0210  3000               	movlw	0
  8478  0211  00D5               	movwf	(?_delay+3)
  8479  0212  3000               	movlw	0
  8480  0213  00D4               	movwf	(?_delay+2)
  8481  0214  3007               	movlw	07h
  8482  0215  00D3               	movwf	(?_delay+1)
  8483  0216  30D0               	movlw	0D0h
  8484  0217  00D2               	movwf	(?_delay)
  8485                           
  8486  0218  160A  158A  26DE   	fcall	_delay
              120A  118A         
  8487                           	line	1059
  8488                           ;PR28.c: 1059: PR2 = 0xD3;
  8489  021D  30D3               	movlw	(0D3h)
  8490  021E  1683               	bsf	status, 5	;RP0=1, select bank1
  8491  021F  1303               	bcf	status, 6	;RP1=0, select bank1
  8492  0220  0092               	movwf	(146)^080h	;volatile
  8493                           	line	1060
  8494                           ;PR28.c: 1060: CCPR1L = 50;
  8495  0221  3032               	movlw	(032h)
  8496  0222  1283               	bcf	status, 5	;RP0=0, select bank0
  8497  0223  1303               	bcf	status, 6	;RP1=0, select bank0
  8498  0224  0095               	movwf	(21)	;volatile
  8499                           	line	1061
  8500                           	
  8501  0225                     l4626:	
  8502                           ;PR28.c: 1061: delay(8000);
  8503  0225  3000               	movlw	0
  8504  0226  00D5               	movwf	(?_delay+3)
  8505  0227  3000               	movlw	0
  8506  0228  00D4               	movwf	(?_delay+2)
  8507  0229  301F               	movlw	01Fh
  8508  022A  00D3               	movwf	(?_delay+1)
  8509  022B  3040               	movlw	040h
  8510  022C  00D2               	movwf	(?_delay)
  8511                           
  8512  022D  160A  158A  26DE   	fcall	_delay
              120A  118A         
  8513                           	line	1062
  8514                           	
  8515  0232                     l4628:	
  8516                           ;PR28.c: 1062: PR2 = 0xBC;
  8517  0232  30BC               	movlw	(0BCh)
  8518  0233  1683               	bsf	status, 5	;RP0=1, select bank1
  8519  0234  1303               	bcf	status, 6	;RP1=0, select bank1
  8520  0235  0092               	movwf	(146)^080h	;volatile
  8521                           	line	1063
  8522                           	
  8523  0236                     l4630:	
  8524                           ;PR28.c: 1063: CCPR1L = 50;
  8525  0236  3032               	movlw	(032h)
  8526  0237  1283               	bcf	status, 5	;RP0=0, select bank0
  8527  0238  1303               	bcf	status, 6	;RP1=0, select bank0
  8528  0239  0095               	movwf	(21)	;volatile
  8529                           	line	1064
  8530                           	
  8531  023A                     l4632:	
  8532                           ;PR28.c: 1064: delay(4000);
  8533  023A  3000               	movlw	0
  8534  023B  00D5               	movwf	(?_delay+3)
  8535  023C  3000               	movlw	0
  8536  023D  00D4               	movwf	(?_delay+2)
  8537  023E  300F               	movlw	0Fh
  8538  023F  00D3               	movwf	(?_delay+1)
  8539  0240  30A0               	movlw	0A0h
  8540  0241  00D2               	movwf	(?_delay)
  8541                           
  8542  0242  160A  158A  26DE   	fcall	_delay
              120A  118A         
  8543                           	line	1065
  8544                           ;PR28.c: 1065: PR2 = 0xBC;
  8545  0247  30BC               	movlw	(0BCh)
  8546  0248  1683               	bsf	status, 5	;RP0=1, select bank1
  8547  0249  1303               	bcf	status, 6	;RP1=0, select bank1
  8548  024A  0092               	movwf	(146)^080h	;volatile
  8549                           	line	1066
  8550                           ;PR28.c: 1066: CCPR1L = 50;
  8551  024B  3032               	movlw	(032h)
  8552  024C  1283               	bcf	status, 5	;RP0=0, select bank0
  8553  024D  1303               	bcf	status, 6	;RP1=0, select bank0
  8554  024E  0095               	movwf	(21)	;volatile
  8555                           	line	1067
  8556                           	
  8557  024F                     l4634:	
  8558                           ;PR28.c: 1067: delay(4000);
  8559  024F  3000               	movlw	0
  8560  0250  00D5               	movwf	(?_delay+3)
  8561  0251  3000               	movlw	0
  8562  0252  00D4               	movwf	(?_delay+2)
  8563  0253  300F               	movlw	0Fh
  8564  0254  00D3               	movwf	(?_delay+1)
  8565  0255  30A0               	movlw	0A0h
  8566  0256  00D2               	movwf	(?_delay)
  8567                           
  8568  0257  160A  158A  26DE   	fcall	_delay
              120A  118A         
  8569                           	line	1068
  8570                           	
  8571  025C                     l4636:	
  8572                           ;PR28.c: 1068: PR2 = 0xB2;
  8573  025C  30B2               	movlw	(0B2h)
  8574  025D  1683               	bsf	status, 5	;RP0=1, select bank1
  8575  025E  1303               	bcf	status, 6	;RP1=0, select bank1
  8576  025F  0092               	movwf	(146)^080h	;volatile
  8577                           	line	1069
  8578                           	
  8579  0260                     l4638:	
  8580                           ;PR28.c: 1069: CCPR1L = 50;
  8581  0260  3032               	movlw	(032h)
  8582  0261  1283               	bcf	status, 5	;RP0=0, select bank0
  8583  0262  1303               	bcf	status, 6	;RP1=0, select bank0
  8584  0263  0095               	movwf	(21)	;volatile
  8585                           	line	1070
  8586                           	
  8587  0264                     l4640:	
  8588                           ;PR28.c: 1070: delay(4000);
  8589  0264  3000               	movlw	0
  8590  0265  00D5               	movwf	(?_delay+3)
  8591  0266  3000               	movlw	0
  8592  0267  00D4               	movwf	(?_delay+2)
  8593  0268  300F               	movlw	0Fh
  8594  0269  00D3               	movwf	(?_delay+1)
  8595  026A  30A0               	movlw	0A0h
  8596  026B  00D2               	movwf	(?_delay)
  8597                           
  8598  026C  160A  158A  26DE   	fcall	_delay
              120A  118A         
  8599                           	line	1071
  8600                           ;PR28.c: 1071: PR2 = 0x9E;
  8601  0271  309E               	movlw	(09Eh)
  8602  0272  1683               	bsf	status, 5	;RP0=1, select bank1
  8603  0273  1303               	bcf	status, 6	;RP1=0, select bank1
  8604  0274  0092               	movwf	(146)^080h	;volatile
  8605                           	line	1072
  8606                           ;PR28.c: 1072: CCPR1L = 50;
  8607  0275  3032               	movlw	(032h)
  8608  0276  1283               	bcf	status, 5	;RP0=0, select bank0
  8609  0277  1303               	bcf	status, 6	;RP1=0, select bank0
  8610  0278  0095               	movwf	(21)	;volatile
  8611                           	line	1073
  8612                           	
  8613  0279                     l4642:	
  8614                           ;PR28.c: 1073: delay(4000);
  8615  0279  3000               	movlw	0
  8616  027A  00D5               	movwf	(?_delay+3)
  8617  027B  3000               	movlw	0
  8618  027C  00D4               	movwf	(?_delay+2)
  8619  027D  300F               	movlw	0Fh
  8620  027E  00D3               	movwf	(?_delay+1)
  8621  027F  30A0               	movlw	0A0h
  8622  0280  00D2               	movwf	(?_delay)
  8623                           
  8624  0281  160A  158A  26DE   	fcall	_delay
              120A  118A         
  8625                           	line	1074
  8626                           	
  8627  0286                     l4644:	
  8628                           ;PR28.c: 1074: PR2 = 0x9E;
  8629  0286  309E               	movlw	(09Eh)
  8630  0287  1683               	bsf	status, 5	;RP0=1, select bank1
  8631  0288  1303               	bcf	status, 6	;RP1=0, select bank1
  8632  0289  0092               	movwf	(146)^080h	;volatile
  8633                           	line	1075
  8634                           	
  8635  028A                     l4646:	
  8636                           ;PR28.c: 1075: CCPR1L = 50;
  8637  028A  3032               	movlw	(032h)
  8638  028B  1283               	bcf	status, 5	;RP0=0, select bank0
  8639  028C  1303               	bcf	status, 6	;RP1=0, select bank0
  8640  028D  0095               	movwf	(21)	;volatile
  8641                           	line	1076
  8642                           	
  8643  028E                     l4648:	
  8644                           ;PR28.c: 1076: delay(4000);
  8645  028E  3000               	movlw	0
  8646  028F  00D5               	movwf	(?_delay+3)
  8647  0290  3000               	movlw	0
  8648  0291  00D4               	movwf	(?_delay+2)
  8649  0292  300F               	movlw	0Fh
  8650  0293  00D3               	movwf	(?_delay+1)
  8651  0294  30A0               	movlw	0A0h
  8652  0295  00D2               	movwf	(?_delay)
  8653                           
  8654  0296  160A  158A  26DE   	fcall	_delay
              120A  118A         
  8655                           	line	1077
  8656                           ;PR28.c: 1077: PR2 = 0xB2;
  8657  029B  30B2               	movlw	(0B2h)
  8658  029C  1683               	bsf	status, 5	;RP0=1, select bank1
  8659  029D  1303               	bcf	status, 6	;RP1=0, select bank1
  8660  029E  0092               	movwf	(146)^080h	;volatile
  8661                           	line	1078
  8662                           ;PR28.c: 1078: CCPR1L = 50;
  8663  029F  3032               	movlw	(032h)
  8664  02A0  1283               	bcf	status, 5	;RP0=0, select bank0
  8665  02A1  1303               	bcf	status, 6	;RP1=0, select bank0
  8666  02A2  0095               	movwf	(21)	;volatile
  8667                           	line	1079
  8668                           	
  8669  02A3                     l4650:	
  8670                           ;PR28.c: 1079: delay(4000);
  8671  02A3  3000               	movlw	0
  8672  02A4  00D5               	movwf	(?_delay+3)
  8673  02A5  3000               	movlw	0
  8674  02A6  00D4               	movwf	(?_delay+2)
  8675  02A7  300F               	movlw	0Fh
  8676  02A8  00D3               	movwf	(?_delay+1)
  8677  02A9  30A0               	movlw	0A0h
  8678  02AA  00D2               	movwf	(?_delay)
  8679                           
  8680  02AB  160A  158A  26DE   	fcall	_delay
              120A  118A         
  8681                           	line	1080
  8682                           	
  8683  02B0                     l4652:	
  8684                           ;PR28.c: 1080: PR2 = 0xBC;
  8685  02B0  30BC               	movlw	(0BCh)
  8686  02B1  1683               	bsf	status, 5	;RP0=1, select bank1
  8687  02B2  1303               	bcf	status, 6	;RP1=0, select bank1
  8688  02B3  0092               	movwf	(146)^080h	;volatile
  8689                           	line	1081
  8690                           	
  8691  02B4                     l4654:	
  8692                           ;PR28.c: 1081: CCPR1L = 50;
  8693  02B4  3032               	movlw	(032h)
  8694  02B5  1283               	bcf	status, 5	;RP0=0, select bank0
  8695  02B6  1303               	bcf	status, 6	;RP1=0, select bank0
  8696  02B7  0095               	movwf	(21)	;volatile
  8697                           	line	1082
  8698                           	
  8699  02B8                     l4656:	
  8700                           ;PR28.c: 1082: delay(4000);
  8701  02B8  3000               	movlw	0
  8702  02B9  00D5               	movwf	(?_delay+3)
  8703  02BA  3000               	movlw	0
  8704  02BB  00D4               	movwf	(?_delay+2)
  8705  02BC  300F               	movlw	0Fh
  8706  02BD  00D3               	movwf	(?_delay+1)
  8707  02BE  30A0               	movlw	0A0h
  8708  02BF  00D2               	movwf	(?_delay)
  8709                           
  8710  02C0  160A  158A  26DE   	fcall	_delay
              120A  118A         
  8711                           	line	1083
  8712                           ;PR28.c: 1083: PR2 = 0xD3;
  8713  02C5  30D3               	movlw	(0D3h)
  8714  02C6  1683               	bsf	status, 5	;RP0=1, select bank1
  8715  02C7  1303               	bcf	status, 6	;RP1=0, select bank1
  8716  02C8  0092               	movwf	(146)^080h	;volatile
  8717                           	line	1084
  8718                           ;PR28.c: 1084: CCPR1L = 50;
  8719  02C9  3032               	movlw	(032h)
  8720  02CA  1283               	bcf	status, 5	;RP0=0, select bank0
  8721  02CB  1303               	bcf	status, 6	;RP1=0, select bank0
  8722  02CC  0095               	movwf	(21)	;volatile
  8723                           	line	1085
  8724                           	
  8725  02CD                     l4658:	
  8726                           ;PR28.c: 1085: delay(4000);
  8727  02CD  3000               	movlw	0
  8728  02CE  00D5               	movwf	(?_delay+3)
  8729  02CF  3000               	movlw	0
  8730  02D0  00D4               	movwf	(?_delay+2)
  8731  02D1  300F               	movlw	0Fh
  8732  02D2  00D3               	movwf	(?_delay+1)
  8733  02D3  30A0               	movlw	0A0h
  8734  02D4  00D2               	movwf	(?_delay)
  8735                           
  8736  02D5  160A  158A  26DE   	fcall	_delay
              120A  118A         
  8737                           	line	1086
  8738                           	
  8739  02DA                     l4660:	
  8740                           ;PR28.c: 1086: PR2 = 0xEE;
  8741  02DA  30EE               	movlw	(0EEh)
  8742  02DB  1683               	bsf	status, 5	;RP0=1, select bank1
  8743  02DC  1303               	bcf	status, 6	;RP1=0, select bank1
  8744  02DD  0092               	movwf	(146)^080h	;volatile
  8745                           	line	1087
  8746                           	
  8747  02DE                     l4662:	
  8748                           ;PR28.c: 1087: CCPR1L = 50;
  8749  02DE  3032               	movlw	(032h)
  8750  02DF  1283               	bcf	status, 5	;RP0=0, select bank0
  8751  02E0  1303               	bcf	status, 6	;RP1=0, select bank0
  8752  02E1  0095               	movwf	(21)	;volatile
  8753                           	line	1088
  8754                           	
  8755  02E2                     l4664:	
  8756                           ;PR28.c: 1088: delay(4000);
  8757  02E2  3000               	movlw	0
  8758  02E3  00D5               	movwf	(?_delay+3)
  8759  02E4  3000               	movlw	0
  8760  02E5  00D4               	movwf	(?_delay+2)
  8761  02E6  300F               	movlw	0Fh
  8762  02E7  00D3               	movwf	(?_delay+1)
  8763  02E8  30A0               	movlw	0A0h
  8764  02E9  00D2               	movwf	(?_delay)
  8765                           
  8766  02EA  160A  158A  26DE   	fcall	_delay
              120A  118A         
  8767                           	line	1089
  8768                           ;PR28.c: 1089: PR2 = 0xEE;
  8769  02EF  30EE               	movlw	(0EEh)
  8770  02F0  1683               	bsf	status, 5	;RP0=1, select bank1
  8771  02F1  1303               	bcf	status, 6	;RP1=0, select bank1
  8772  02F2  0092               	movwf	(146)^080h	;volatile
  8773                           	line	1090
  8774                           ;PR28.c: 1090: CCPR1L = 50;
  8775  02F3  3032               	movlw	(032h)
  8776  02F4  1283               	bcf	status, 5	;RP0=0, select bank0
  8777  02F5  1303               	bcf	status, 6	;RP1=0, select bank0
  8778  02F6  0095               	movwf	(21)	;volatile
  8779                           	line	1091
  8780                           	
  8781  02F7                     l4666:	
  8782                           ;PR28.c: 1091: delay(4000);
  8783  02F7  3000               	movlw	0
  8784  02F8  00D5               	movwf	(?_delay+3)
  8785  02F9  3000               	movlw	0
  8786  02FA  00D4               	movwf	(?_delay+2)
  8787  02FB  300F               	movlw	0Fh
  8788  02FC  00D3               	movwf	(?_delay+1)
  8789  02FD  30A0               	movlw	0A0h
  8790  02FE  00D2               	movwf	(?_delay)
  8791                           
  8792  02FF  160A  158A  26DE   	fcall	_delay
              120A  118A         
  8793                           	line	1092
  8794                           	
  8795  0304                     l4668:	
  8796                           ;PR28.c: 1092: PR2 = 0xD3;
  8797  0304  30D3               	movlw	(0D3h)
  8798  0305  1683               	bsf	status, 5	;RP0=1, select bank1
  8799  0306  1303               	bcf	status, 6	;RP1=0, select bank1
  8800  0307  0092               	movwf	(146)^080h	;volatile
  8801                           	line	1093
  8802                           	
  8803  0308                     l4670:	
  8804                           ;PR28.c: 1093: CCPR1L = 50;
  8805  0308  3032               	movlw	(032h)
  8806  0309  1283               	bcf	status, 5	;RP0=0, select bank0
  8807  030A  1303               	bcf	status, 6	;RP1=0, select bank0
  8808  030B  0095               	movwf	(21)	;volatile
  8809                           	line	1094
  8810                           	
  8811  030C                     l4672:	
  8812                           ;PR28.c: 1094: delay(4000);
  8813  030C  3000               	movlw	0
  8814  030D  00D5               	movwf	(?_delay+3)
  8815  030E  3000               	movlw	0
  8816  030F  00D4               	movwf	(?_delay+2)
  8817  0310  300F               	movlw	0Fh
  8818  0311  00D3               	movwf	(?_delay+1)
  8819  0312  30A0               	movlw	0A0h
  8820  0313  00D2               	movwf	(?_delay)
  8821                           
  8822  0314  160A  158A  26DE   	fcall	_delay
              120A  118A         
  8823                           	line	1095
  8824                           ;PR28.c: 1095: PR2 = 0xBC;
  8825  0319  30BC               	movlw	(0BCh)
  8826  031A  1683               	bsf	status, 5	;RP0=1, select bank1
  8827  031B  1303               	bcf	status, 6	;RP1=0, select bank1
  8828  031C  0092               	movwf	(146)^080h	;volatile
  8829                           	line	1096
  8830                           ;PR28.c: 1096: CCPR1L = 50;
  8831  031D  3032               	movlw	(032h)
  8832  031E  1283               	bcf	status, 5	;RP0=0, select bank0
  8833  031F  1303               	bcf	status, 6	;RP1=0, select bank0
  8834  0320  0095               	movwf	(21)	;volatile
  8835                           	line	1097
  8836                           	
  8837  0321                     l4674:	
  8838                           ;PR28.c: 1097: delay(4000);
  8839  0321  3000               	movlw	0
  8840  0322  00D5               	movwf	(?_delay+3)
  8841  0323  3000               	movlw	0
  8842  0324  00D4               	movwf	(?_delay+2)
  8843  0325  300F               	movlw	0Fh
  8844  0326  00D3               	movwf	(?_delay+1)
  8845  0327  30A0               	movlw	0A0h
  8846  0328  00D2               	movwf	(?_delay)
  8847                           
  8848  0329  160A  158A  26DE   	fcall	_delay
              120A  118A         
  8849                           	line	1098
  8850                           	
  8851  032E                     l4676:	
  8852                           ;PR28.c: 1098: PR2 = 0xD3;
  8853  032E  30D3               	movlw	(0D3h)
  8854  032F  1683               	bsf	status, 5	;RP0=1, select bank1
  8855  0330  1303               	bcf	status, 6	;RP1=0, select bank1
  8856  0331  0092               	movwf	(146)^080h	;volatile
  8857                           	line	1099
  8858                           	
  8859  0332                     l4678:	
  8860                           ;PR28.c: 1099: CCPR1L = 50;
  8861  0332  3032               	movlw	(032h)
  8862  0333  1283               	bcf	status, 5	;RP0=0, select bank0
  8863  0334  1303               	bcf	status, 6	;RP1=0, select bank0
  8864  0335  0095               	movwf	(21)	;volatile
  8865                           	line	1100
  8866                           	
  8867  0336                     l4680:	
  8868                           ;PR28.c: 1100: delay(4000);
  8869  0336  3000               	movlw	0
  8870  0337  00D5               	movwf	(?_delay+3)
  8871  0338  3000               	movlw	0
  8872  0339  00D4               	movwf	(?_delay+2)
  8873  033A  300F               	movlw	0Fh
  8874  033B  00D3               	movwf	(?_delay+1)
  8875  033C  30A0               	movlw	0A0h
  8876  033D  00D2               	movwf	(?_delay)
  8877                           
  8878  033E  160A  158A  26DE   	fcall	_delay
              120A  118A         
  8879                           	line	1101
  8880                           ;PR28.c: 1101: PR2 = 0xEE;
  8881  0343  30EE               	movlw	(0EEh)
  8882  0344  1683               	bsf	status, 5	;RP0=1, select bank1
  8883  0345  1303               	bcf	status, 6	;RP1=0, select bank1
  8884  0346  0092               	movwf	(146)^080h	;volatile
  8885                           	line	1102
  8886                           ;PR28.c: 1102: CCPR1L = 50;
  8887  0347  3032               	movlw	(032h)
  8888  0348  1283               	bcf	status, 5	;RP0=0, select bank0
  8889  0349  1303               	bcf	status, 6	;RP1=0, select bank0
  8890  034A  0095               	movwf	(21)	;volatile
  8891                           	line	1103
  8892                           	
  8893  034B                     l4682:	
  8894                           ;PR28.c: 1103: delay(2000);
  8895  034B  3000               	movlw	0
  8896  034C  00D5               	movwf	(?_delay+3)
  8897  034D  3000               	movlw	0
  8898  034E  00D4               	movwf	(?_delay+2)
  8899  034F  3007               	movlw	07h
  8900  0350  00D3               	movwf	(?_delay+1)
  8901  0351  30D0               	movlw	0D0h
  8902  0352  00D2               	movwf	(?_delay)
  8903                           
  8904  0353  160A  158A  26DE   	fcall	_delay
              120A  118A         
  8905                           	line	1104
  8906                           	
  8907  0358                     l4684:	
  8908                           ;PR28.c: 1104: PR2 = 0xEE;
  8909  0358  30EE               	movlw	(0EEh)
  8910  0359  1683               	bsf	status, 5	;RP0=1, select bank1
  8911  035A  1303               	bcf	status, 6	;RP1=0, select bank1
  8912  035B  0092               	movwf	(146)^080h	;volatile
  8913                           	line	1105
  8914                           	
  8915  035C                     l4686:	
  8916                           ;PR28.c: 1105: CCPR1L = 50;
  8917  035C  3032               	movlw	(032h)
  8918  035D  1283               	bcf	status, 5	;RP0=0, select bank0
  8919  035E  1303               	bcf	status, 6	;RP1=0, select bank0
  8920  035F  0095               	movwf	(21)	;volatile
  8921                           	line	1106
  8922                           	
  8923  0360                     l4688:	
  8924                           ;PR28.c: 1106: delay(8000);
  8925  0360  3000               	movlw	0
  8926  0361  00D5               	movwf	(?_delay+3)
  8927  0362  3000               	movlw	0
  8928  0363  00D4               	movwf	(?_delay+2)
  8929  0364  301F               	movlw	01Fh
  8930  0365  00D3               	movwf	(?_delay+1)
  8931  0366  3040               	movlw	040h
  8932  0367  00D2               	movwf	(?_delay)
  8933                           
  8934  0368  160A  158A  26DE   	fcall	_delay
              120A  118A         
  8935                           	line	1108
  8936                           	
  8937  036D                     l4690:	
  8938                           ;PR28.c: 1108: CCP1CON = 0x00;
  8939  036D  1283               	bcf	status, 5	;RP0=0, select bank0
  8940  036E  1303               	bcf	status, 6	;RP1=0, select bank0
  8941  036F  0197               	clrf	(23)	;volatile
  8942                           	line	1109
  8943                           	
  8944  0370                     l4692:	
  8945                           ;PR28.c: 1109: T2CON=0b01110110;
  8946  0370  3076               	movlw	(076h)
  8947  0371  0092               	movwf	(18)	;volatile
  8948                           	line	1110
  8949                           	
  8950  0372                     l4694:	
  8951                           ;PR28.c: 1110: PR2 = 0xB4;
  8952  0372  30B4               	movlw	(0B4h)
  8953  0373  1683               	bsf	status, 5	;RP0=1, select bank1
  8954  0374  1303               	bcf	status, 6	;RP1=0, select bank1
  8955  0375  0092               	movwf	(146)^080h	;volatile
  8956                           	line	1111
  8957                           	
  8958  0376                     l4696:	
  8959                           ;PR28.c: 1111: CCPR1L = 0;
  8960  0376  1283               	bcf	status, 5	;RP0=0, select bank0
  8961  0377  1303               	bcf	status, 6	;RP1=0, select bank0
  8962  0378  0195               	clrf	(21)	;volatile
  8963                           	line	1113
  8964                           	
  8965  0379                     l4698:	
  8966                           ;PR28.c: 1113: TMR2IF = 0;
  8967  0379  108C               	bcf	(97/8),(97)&7
  8968                           	line	1114
  8969                           	
  8970  037A                     l4700:	
  8971                           ;PR28.c: 1114: TMR2IE = 1;
  8972  037A  1683               	bsf	status, 5	;RP0=1, select bank1
  8973  037B  1303               	bcf	status, 6	;RP1=0, select bank1
  8974  037C  148C               	bsf	(1121/8)^080h,(1121)&7
  8975                           	line	1115
  8976                           ;PR28.c: 1115: T1CON = 0b11000101;
  8977  037D  30C5               	movlw	(0C5h)
  8978  037E  1283               	bcf	status, 5	;RP0=0, select bank0
  8979  037F  1303               	bcf	status, 6	;RP1=0, select bank0
  8980  0380  0090               	movwf	(16)	;volatile
  8981                           	line	1116
  8982                           ;PR28.c: 1116: T1GCON = 0b11100010;
  8983  0381  30E2               	movlw	(0E2h)
  8984  0382  1683               	bsf	status, 5	;RP0=1, select bank1
  8985  0383  1303               	bcf	status, 6	;RP1=0, select bank1
  8986  0384  008F               	movwf	(143)^080h	;volatile
  8987                           	line	1117
  8988                           	
  8989  0385                     l4702:	
  8990                           ;PR28.c: 1117: TMR1GIF = 0;
  8991  0385  1283               	bcf	status, 5	;RP0=0, select bank0
  8992  0386  1303               	bcf	status, 6	;RP1=0, select bank0
  8993  0387  138C               	bcf	(103/8),(103)&7
  8994                           	line	1118
  8995                           	
  8996  0388                     l4704:	
  8997                           ;PR28.c: 1118: TMR1GIE = 1;
  8998  0388  1683               	bsf	status, 5	;RP0=1, select bank1
  8999  0389  1303               	bcf	status, 6	;RP1=0, select bank1
  9000  038A  178C               	bsf	(1127/8)^080h,(1127)&7
  9001                           	line	1120
  9002                           	
  9003  038B                     l4706:	
  9004                           ;PR28.c: 1120: RestartTimer1();
  9005  038B  160A  158A  256C   	fcall	_RestartTimer1
              120A  118A         
  9006                           	line	1121
  9007                           	
  9008  0390                     l4708:	
  9009                           ;PR28.c: 1121: GIE = 1;
  9010  0390  178B               	bsf	(95/8),(95)&7
  9011                           	line	1122
  9012                           	
  9013  0391                     l1189:	
  9014  0391  0008               	return
  9015                           	opt stack 0
  9016                           GLOBAL	__end_of_PIEZO_D
  9017  0392                     	__end_of_PIEZO_D:
  9018 ;; =============== function _PIEZO_D ends ============
  9019                           
  9020                           	signat	_PIEZO_D,88
  9021                           	global	_PIEZO
  9022                           psect	text710,local,class=CODE,delta=2
  9023                           global __ptext710
  9024  1423                     __ptext710:
  9025                           
  9026 ;; *************** function _PIEZO *****************
  9027 ;; Defined at:
  9028 ;;		line 946 in file "C:\Users\Phang\Desktop\9.80\PR 28\PR28.c"
  9029 ;; Parameters:    Size  Location     Type
  9030 ;;		None
  9031 ;; Auto vars:     Size  Location     Type
  9032 ;;		None
  9033 ;; Return value:  Size  Location     Type
  9034 ;;		None               void
  9035 ;; Registers used:
  9036 ;;		wreg, status,2, status,0, pclath, cstack
  9037 ;; Tracked objects:
  9038 ;;		On entry : 0/0
  9039 ;;		On exit  : 0/0
  9040 ;;		Unchanged: 0/0
  9041 ;; Data sizes:     COMMON   BANK0   BANK1   BANK3   BANK2
  9042 ;;      Params:         0       0       0       0       0
  9043 ;;      Locals:         0       0       0       0       0
  9044 ;;      Temps:          0       0       0       0       0
  9045 ;;      Totals:         0       0       0       0       0
  9046 ;;Total ram usage:        0 bytes
  9047 ;; Hardware stack levels used:    1
  9048 ;; Hardware stack levels required when called:    4
  9049 ;; This function calls:
  9050 ;;		_delay
  9051 ;;		_RestartTimer1
  9052 ;; This function is called by:
  9053 ;;		_main
  9054 ;; This function uses a non-reentrant model
  9055 ;;
  9056                           psect	text710
  9057                           	file	"C:\Users\Phang\Desktop\9.80\PR 28\PR28.c"
  9058                           	line	946
  9059                           	global	__size_of_PIEZO
  9060  0129                     	__size_of_PIEZO	equ	__end_of_PIEZO-_PIEZO
  9061                           	
  9062  1423                     _PIEZO:	
  9063                           	opt	stack 3
  9064                           ; Regs used in _PIEZO: [wreg+status,2+status,0+pclath+cstack]
  9065                           	line	947
  9066                           	
  9067  1423                     l4482:	
  9068                           ;PR28.c: 947: GIE=0;
  9069  1423  138B               	bcf	(95/8),(95)&7
  9070                           	line	948
  9071                           ;PR28.c: 948: TMR2ON = 0;
  9072  1424  1283               	bcf	status, 5	;RP0=0, select bank0
  9073  1425  1303               	bcf	status, 6	;RP1=0, select bank0
  9074  1426  1112               	bcf	(146/8),(146)&7
  9075                           	line	949
  9076                           ;PR28.c: 949: TMR1ON = 0;
  9077  1427  1010               	bcf	(128/8),(128)&7
  9078                           	line	951
  9079                           	
  9080  1428                     l4484:	
  9081                           ;PR28.c: 951: CCP1CON = 0b00001100;
  9082  1428  300C               	movlw	(0Ch)
  9083  1429  0097               	movwf	(23)	;volatile
  9084                           	line	952
  9085                           ;PR28.c: 952: T2CON = 0b00000111;
  9086  142A  3007               	movlw	(07h)
  9087  142B  0092               	movwf	(18)	;volatile
  9088                           	line	953
  9089                           ;PR28.c: 953: PR2 = 0x76;
  9090  142C  3076               	movlw	(076h)
  9091  142D  1683               	bsf	status, 5	;RP0=1, select bank1
  9092  142E  1303               	bcf	status, 6	;RP1=0, select bank1
  9093  142F  0092               	movwf	(146)^080h	;volatile
  9094                           	line	954
  9095                           ;PR28.c: 954: CCPR1L = 50;
  9096  1430  3032               	movlw	(032h)
  9097  1431  1283               	bcf	status, 5	;RP0=0, select bank0
  9098  1432  1303               	bcf	status, 6	;RP1=0, select bank0
  9099  1433  0095               	movwf	(21)	;volatile
  9100                           	line	955
  9101                           	
  9102  1434                     l4486:	
  9103                           ;PR28.c: 955: delay(4000);
  9104  1434  3000               	movlw	0
  9105  1435  00D5               	movwf	(?_delay+3)
  9106  1436  3000               	movlw	0
  9107  1437  00D4               	movwf	(?_delay+2)
  9108  1438  300F               	movlw	0Fh
  9109  1439  00D3               	movwf	(?_delay+1)
  9110  143A  30A0               	movlw	0A0h
  9111  143B  00D2               	movwf	(?_delay)
  9112                           
  9113  143C  160A  158A  26DE   	fcall	_delay
              160A  118A         
  9114                           	line	956
  9115                           	
  9116  1441                     l4488:	
  9117                           ;PR28.c: 956: PR2 = 0x7D;
  9118  1441  307D               	movlw	(07Dh)
  9119  1442  1683               	bsf	status, 5	;RP0=1, select bank1
  9120  1443  1303               	bcf	status, 6	;RP1=0, select bank1
  9121  1444  0092               	movwf	(146)^080h	;volatile
  9122                           	line	957
  9123                           	
  9124  1445                     l4490:	
  9125                           ;PR28.c: 957: CCPR1L = 50;
  9126  1445  3032               	movlw	(032h)
  9127  1446  1283               	bcf	status, 5	;RP0=0, select bank0
  9128  1447  1303               	bcf	status, 6	;RP1=0, select bank0
  9129  1448  0095               	movwf	(21)	;volatile
  9130                           	line	958
  9131                           	
  9132  1449                     l4492:	
  9133                           ;PR28.c: 958: delay(4000);
  9134  1449  3000               	movlw	0
  9135  144A  00D5               	movwf	(?_delay+3)
  9136  144B  3000               	movlw	0
  9137  144C  00D4               	movwf	(?_delay+2)
  9138  144D  300F               	movlw	0Fh
  9139  144E  00D3               	movwf	(?_delay+1)
  9140  144F  30A0               	movlw	0A0h
  9141  1450  00D2               	movwf	(?_delay)
  9142                           
  9143  1451  160A  158A  26DE   	fcall	_delay
              160A  118A         
  9144                           	line	959
  9145                           ;PR28.c: 959: PR2 = 0x9E;
  9146  1456  309E               	movlw	(09Eh)
  9147  1457  1683               	bsf	status, 5	;RP0=1, select bank1
  9148  1458  1303               	bcf	status, 6	;RP1=0, select bank1
  9149  1459  0092               	movwf	(146)^080h	;volatile
  9150                           	line	960
  9151                           ;PR28.c: 960: CCPR1L = 50;
  9152  145A  3032               	movlw	(032h)
  9153  145B  1283               	bcf	status, 5	;RP0=0, select bank0
  9154  145C  1303               	bcf	status, 6	;RP1=0, select bank0
  9155  145D  0095               	movwf	(21)	;volatile
  9156                           	line	961
  9157                           	
  9158  145E                     l4494:	
  9159                           ;PR28.c: 961: delay(4000);
  9160  145E  3000               	movlw	0
  9161  145F  00D5               	movwf	(?_delay+3)
  9162  1460  3000               	movlw	0
  9163  1461  00D4               	movwf	(?_delay+2)
  9164  1462  300F               	movlw	0Fh
  9165  1463  00D3               	movwf	(?_delay+1)
  9166  1464  30A0               	movlw	0A0h
  9167  1465  00D2               	movwf	(?_delay)
  9168                           
  9169  1466  160A  158A  26DE   	fcall	_delay
              160A  118A         
  9170                           	line	962
  9171                           	
  9172  146B                     l4496:	
  9173                           ;PR28.c: 962: PR2 = 0x76;
  9174  146B  3076               	movlw	(076h)
  9175  146C  1683               	bsf	status, 5	;RP0=1, select bank1
  9176  146D  1303               	bcf	status, 6	;RP1=0, select bank1
  9177  146E  0092               	movwf	(146)^080h	;volatile
  9178                           	line	963
  9179                           	
  9180  146F                     l4498:	
  9181                           ;PR28.c: 963: CCPR1L = 100;
  9182  146F  3064               	movlw	(064h)
  9183  1470  1283               	bcf	status, 5	;RP0=0, select bank0
  9184  1471  1303               	bcf	status, 6	;RP1=0, select bank0
  9185  1472  0095               	movwf	(21)	;volatile
  9186                           	line	964
  9187                           	
  9188  1473                     l4500:	
  9189                           ;PR28.c: 964: delay(8000);
  9190  1473  3000               	movlw	0
  9191  1474  00D5               	movwf	(?_delay+3)
  9192  1475  3000               	movlw	0
  9193  1476  00D4               	movwf	(?_delay+2)
  9194  1477  301F               	movlw	01Fh
  9195  1478  00D3               	movwf	(?_delay+1)
  9196  1479  3040               	movlw	040h
  9197  147A  00D2               	movwf	(?_delay)
  9198                           
  9199  147B  160A  158A  26DE   	fcall	_delay
              160A  118A         
  9200                           	line	965
  9201                           ;PR28.c: 965: PR2 = 0x7D;
  9202  1480  307D               	movlw	(07Dh)
  9203  1481  1683               	bsf	status, 5	;RP0=1, select bank1
  9204  1482  1303               	bcf	status, 6	;RP1=0, select bank1
  9205  1483  0092               	movwf	(146)^080h	;volatile
  9206                           	line	966
  9207                           ;PR28.c: 966: CCPR1L = 100;
  9208  1484  3064               	movlw	(064h)
  9209  1485  1283               	bcf	status, 5	;RP0=0, select bank0
  9210  1486  1303               	bcf	status, 6	;RP1=0, select bank0
  9211  1487  0095               	movwf	(21)	;volatile
  9212                           	line	967
  9213                           	
  9214  1488                     l4502:	
  9215                           ;PR28.c: 967: delay(8000);
  9216  1488  3000               	movlw	0
  9217  1489  00D5               	movwf	(?_delay+3)
  9218  148A  3000               	movlw	0
  9219  148B  00D4               	movwf	(?_delay+2)
  9220  148C  301F               	movlw	01Fh
  9221  148D  00D3               	movwf	(?_delay+1)
  9222  148E  3040               	movlw	040h
  9223  148F  00D2               	movwf	(?_delay)
  9224                           
  9225  1490  160A  158A  26DE   	fcall	_delay
              160A  118A         
  9226                           	line	968
  9227                           	
  9228  1495                     l4504:	
  9229                           ;PR28.c: 968: PR2 = 0xBD;
  9230  1495  30BD               	movlw	(0BDh)
  9231  1496  1683               	bsf	status, 5	;RP0=1, select bank1
  9232  1497  1303               	bcf	status, 6	;RP1=0, select bank1
  9233  1498  0092               	movwf	(146)^080h	;volatile
  9234                           	line	969
  9235                           	
  9236  1499                     l4506:	
  9237                           ;PR28.c: 969: CCPR1L = 50;
  9238  1499  3032               	movlw	(032h)
  9239  149A  1283               	bcf	status, 5	;RP0=0, select bank0
  9240  149B  1303               	bcf	status, 6	;RP1=0, select bank0
  9241  149C  0095               	movwf	(21)	;volatile
  9242                           	line	970
  9243                           	
  9244  149D                     l4508:	
  9245                           ;PR28.c: 970: delay(4000);
  9246  149D  3000               	movlw	0
  9247  149E  00D5               	movwf	(?_delay+3)
  9248  149F  3000               	movlw	0
  9249  14A0  00D4               	movwf	(?_delay+2)
  9250  14A1  300F               	movlw	0Fh
  9251  14A2  00D3               	movwf	(?_delay+1)
  9252  14A3  30A0               	movlw	0A0h
  9253  14A4  00D2               	movwf	(?_delay)
  9254                           
  9255  14A5  160A  158A  26DE   	fcall	_delay
              160A  118A         
  9256                           	line	971
  9257                           	
  9258  14AA                     l4510:	
  9259                           ;PR28.c: 971: PR2 = 0x00;
  9260  14AA  1683               	bsf	status, 5	;RP0=1, select bank1
  9261  14AB  1303               	bcf	status, 6	;RP1=0, select bank1
  9262  14AC  0192               	clrf	(146)^080h	;volatile
  9263                           	line	972
  9264                           	
  9265  14AD                     l4512:	
  9266                           ;PR28.c: 972: CCPR1L = 50;
  9267  14AD  3032               	movlw	(032h)
  9268  14AE  1283               	bcf	status, 5	;RP0=0, select bank0
  9269  14AF  1303               	bcf	status, 6	;RP1=0, select bank0
  9270  14B0  0095               	movwf	(21)	;volatile
  9271                           	line	973
  9272                           	
  9273  14B1                     l4514:	
  9274                           ;PR28.c: 973: delay(2000);
  9275  14B1  3000               	movlw	0
  9276  14B2  00D5               	movwf	(?_delay+3)
  9277  14B3  3000               	movlw	0
  9278  14B4  00D4               	movwf	(?_delay+2)
  9279  14B5  3007               	movlw	07h
  9280  14B6  00D3               	movwf	(?_delay+1)
  9281  14B7  30D0               	movlw	0D0h
  9282  14B8  00D2               	movwf	(?_delay)
  9283                           
  9284  14B9  160A  158A  26DE   	fcall	_delay
              160A  118A         
  9285                           	line	974
  9286                           	
  9287  14BE                     l4516:	
  9288                           ;PR28.c: 974: PR2 = 0x76;
  9289  14BE  3076               	movlw	(076h)
  9290  14BF  1683               	bsf	status, 5	;RP0=1, select bank1
  9291  14C0  1303               	bcf	status, 6	;RP1=0, select bank1
  9292  14C1  0092               	movwf	(146)^080h	;volatile
  9293                           	line	975
  9294                           	
  9295  14C2                     l4518:	
  9296                           ;PR28.c: 975: CCPR1L = 50;
  9297  14C2  3032               	movlw	(032h)
  9298  14C3  1283               	bcf	status, 5	;RP0=0, select bank0
  9299  14C4  1303               	bcf	status, 6	;RP1=0, select bank0
  9300  14C5  0095               	movwf	(21)	;volatile
  9301                           	line	976
  9302                           	
  9303  14C6                     l4520:	
  9304                           ;PR28.c: 976: delay(4000);
  9305  14C6  3000               	movlw	0
  9306  14C7  00D5               	movwf	(?_delay+3)
  9307  14C8  3000               	movlw	0
  9308  14C9  00D4               	movwf	(?_delay+2)
  9309  14CA  300F               	movlw	0Fh
  9310  14CB  00D3               	movwf	(?_delay+1)
  9311  14CC  30A0               	movlw	0A0h
  9312  14CD  00D2               	movwf	(?_delay)
  9313                           
  9314  14CE  160A  158A  26DE   	fcall	_delay
              160A  118A         
  9315                           	line	977
  9316                           	
  9317  14D3                     l4522:	
  9318                           ;PR28.c: 977: PR2 = 0xEE;
  9319  14D3  30EE               	movlw	(0EEh)
  9320  14D4  1683               	bsf	status, 5	;RP0=1, select bank1
  9321  14D5  1303               	bcf	status, 6	;RP1=0, select bank1
  9322  14D6  0092               	movwf	(146)^080h	;volatile
  9323                           	line	978
  9324                           	
  9325  14D7                     l4524:	
  9326                           ;PR28.c: 978: CCPR1L = 50;
  9327  14D7  3032               	movlw	(032h)
  9328  14D8  1283               	bcf	status, 5	;RP0=0, select bank0
  9329  14D9  1303               	bcf	status, 6	;RP1=0, select bank0
  9330  14DA  0095               	movwf	(21)	;volatile
  9331                           	line	979
  9332                           	
  9333  14DB                     l4526:	
  9334                           ;PR28.c: 979: delay(4000);
  9335  14DB  3000               	movlw	0
  9336  14DC  00D5               	movwf	(?_delay+3)
  9337  14DD  3000               	movlw	0
  9338  14DE  00D4               	movwf	(?_delay+2)
  9339  14DF  300F               	movlw	0Fh
  9340  14E0  00D3               	movwf	(?_delay+1)
  9341  14E1  30A0               	movlw	0A0h
  9342  14E2  00D2               	movwf	(?_delay)
  9343                           
  9344  14E3  160A  158A  26DE   	fcall	_delay
              160A  118A         
  9345                           	line	980
  9346                           	
  9347  14E8                     l4528:	
  9348                           ;PR28.c: 980: PR2 = 0x9E;
  9349  14E8  309E               	movlw	(09Eh)
  9350  14E9  1683               	bsf	status, 5	;RP0=1, select bank1
  9351  14EA  1303               	bcf	status, 6	;RP1=0, select bank1
  9352  14EB  0092               	movwf	(146)^080h	;volatile
  9353                           	line	981
  9354                           	
  9355  14EC                     l4530:	
  9356                           ;PR28.c: 981: CCPR1L = 50;
  9357  14EC  3032               	movlw	(032h)
  9358  14ED  1283               	bcf	status, 5	;RP0=0, select bank0
  9359  14EE  1303               	bcf	status, 6	;RP1=0, select bank0
  9360  14EF  0095               	movwf	(21)	;volatile
  9361                           	line	982
  9362                           	
  9363  14F0                     l4532:	
  9364                           ;PR28.c: 982: delay(4000);
  9365  14F0  3000               	movlw	0
  9366  14F1  00D5               	movwf	(?_delay+3)
  9367  14F2  3000               	movlw	0
  9368  14F3  00D4               	movwf	(?_delay+2)
  9369  14F4  300F               	movlw	0Fh
  9370  14F5  00D3               	movwf	(?_delay+1)
  9371  14F6  30A0               	movlw	0A0h
  9372  14F7  00D2               	movwf	(?_delay)
  9373                           
  9374  14F8  160A  158A  26DE   	fcall	_delay
              160A  118A         
  9375                           	line	983
  9376                           	
  9377  14FD                     l4534:	
  9378                           ;PR28.c: 983: PR2 = 0x8D;
  9379  14FD  308D               	movlw	(08Dh)
  9380  14FE  1683               	bsf	status, 5	;RP0=1, select bank1
  9381  14FF  1303               	bcf	status, 6	;RP1=0, select bank1
  9382  1500  0092               	movwf	(146)^080h	;volatile
  9383                           	line	984
  9384                           	
  9385  1501                     l4536:	
  9386                           ;PR28.c: 984: CCPR1L = 50;
  9387  1501  3032               	movlw	(032h)
  9388  1502  1283               	bcf	status, 5	;RP0=0, select bank0
  9389  1503  1303               	bcf	status, 6	;RP1=0, select bank0
  9390  1504  0095               	movwf	(21)	;volatile
  9391                           	line	985
  9392                           	
  9393  1505                     l4538:	
  9394                           ;PR28.c: 985: delay(8000);
  9395  1505  3000               	movlw	0
  9396  1506  00D5               	movwf	(?_delay+3)
  9397  1507  3000               	movlw	0
  9398  1508  00D4               	movwf	(?_delay+2)
  9399  1509  301F               	movlw	01Fh
  9400  150A  00D3               	movwf	(?_delay+1)
  9401  150B  3040               	movlw	040h
  9402  150C  00D2               	movwf	(?_delay)
  9403                           
  9404  150D  160A  158A  26DE   	fcall	_delay
              160A  118A         
  9405                           	line	986
  9406                           	
  9407  1512                     l4540:	
  9408                           ;PR28.c: 986: PR2 = 0x76;
  9409  1512  3076               	movlw	(076h)
  9410  1513  1683               	bsf	status, 5	;RP0=1, select bank1
  9411  1514  1303               	bcf	status, 6	;RP1=0, select bank1
  9412  1515  0092               	movwf	(146)^080h	;volatile
  9413                           	line	987
  9414                           	
  9415  1516                     l4542:	
  9416                           ;PR28.c: 987: CCPR1L = 50;
  9417  1516  3032               	movlw	(032h)
  9418  1517  1283               	bcf	status, 5	;RP0=0, select bank0
  9419  1518  1303               	bcf	status, 6	;RP1=0, select bank0
  9420  1519  0095               	movwf	(21)	;volatile
  9421                           	line	988
  9422                           	
  9423  151A                     l4544:	
  9424                           ;PR28.c: 988: delay(8000);
  9425  151A  3000               	movlw	0
  9426  151B  00D5               	movwf	(?_delay+3)
  9427  151C  3000               	movlw	0
  9428  151D  00D4               	movwf	(?_delay+2)
  9429  151E  301F               	movlw	01Fh
  9430  151F  00D3               	movwf	(?_delay+1)
  9431  1520  3040               	movlw	040h
  9432  1521  00D2               	movwf	(?_delay)
  9433                           
  9434  1522  160A  158A  26DE   	fcall	_delay
              160A  118A         
  9435                           	line	990
  9436                           ;PR28.c: 990: CCP1CON = 0x00;
  9437  1527  1283               	bcf	status, 5	;RP0=0, select bank0
  9438  1528  1303               	bcf	status, 6	;RP1=0, select bank0
  9439  1529  0197               	clrf	(23)	;volatile
  9440                           	line	991
  9441                           	
  9442  152A                     l4546:	
  9443                           ;PR28.c: 991: T2CON=0b01110110;
  9444  152A  3076               	movlw	(076h)
  9445  152B  0092               	movwf	(18)	;volatile
  9446                           	line	992
  9447                           	
  9448  152C                     l4548:	
  9449                           ;PR28.c: 992: PR2 = 0xB4;
  9450  152C  30B4               	movlw	(0B4h)
  9451  152D  1683               	bsf	status, 5	;RP0=1, select bank1
  9452  152E  1303               	bcf	status, 6	;RP1=0, select bank1
  9453  152F  0092               	movwf	(146)^080h	;volatile
  9454                           	line	993
  9455                           ;PR28.c: 993: CCPR1L = 0;
  9456  1530  1283               	bcf	status, 5	;RP0=0, select bank0
  9457  1531  1303               	bcf	status, 6	;RP1=0, select bank0
  9458  1532  0195               	clrf	(21)	;volatile
  9459                           	line	995
  9460                           	
  9461  1533                     l4550:	
  9462                           ;PR28.c: 995: TMR2IF = 0;
  9463  1533  108C               	bcf	(97/8),(97)&7
  9464                           	line	996
  9465                           	
  9466  1534                     l4552:	
  9467                           ;PR28.c: 996: TMR2IE = 1;
  9468  1534  1683               	bsf	status, 5	;RP0=1, select bank1
  9469  1535  1303               	bcf	status, 6	;RP1=0, select bank1
  9470  1536  148C               	bsf	(1121/8)^080h,(1121)&7
  9471                           	line	997
  9472                           	
  9473  1537                     l4554:	
  9474                           ;PR28.c: 997: T1CON = 0b11000101;
  9475  1537  30C5               	movlw	(0C5h)
  9476  1538  1283               	bcf	status, 5	;RP0=0, select bank0
  9477  1539  1303               	bcf	status, 6	;RP1=0, select bank0
  9478  153A  0090               	movwf	(16)	;volatile
  9479                           	line	998
  9480                           	
  9481  153B                     l4556:	
  9482                           ;PR28.c: 998: T1GCON = 0b11100010;
  9483  153B  30E2               	movlw	(0E2h)
  9484  153C  1683               	bsf	status, 5	;RP0=1, select bank1
  9485  153D  1303               	bcf	status, 6	;RP1=0, select bank1
  9486  153E  008F               	movwf	(143)^080h	;volatile
  9487                           	line	999
  9488                           	
  9489  153F                     l4558:	
  9490                           ;PR28.c: 999: TMR1GIF = 0;
  9491  153F  1283               	bcf	status, 5	;RP0=0, select bank0
  9492  1540  1303               	bcf	status, 6	;RP1=0, select bank0
  9493  1541  138C               	bcf	(103/8),(103)&7
  9494                           	line	1000
  9495                           	
  9496  1542                     l4560:	
  9497                           ;PR28.c: 1000: TMR1GIE = 1;
  9498  1542  1683               	bsf	status, 5	;RP0=1, select bank1
  9499  1543  1303               	bcf	status, 6	;RP1=0, select bank1
  9500  1544  178C               	bsf	(1127/8)^080h,(1127)&7
  9501                           	line	1002
  9502                           	
  9503  1545                     l4562:	
  9504                           ;PR28.c: 1002: RestartTimer1();
  9505  1545  160A  158A  256C   	fcall	_RestartTimer1
              160A  118A         
  9506                           	line	1003
  9507                           	
  9508  154A                     l4564:	
  9509                           ;PR28.c: 1003: GIE = 1;
  9510  154A  178B               	bsf	(95/8),(95)&7
  9511                           	line	1004
  9512                           	
  9513  154B                     l1186:	
  9514  154B  0008               	return
  9515                           	opt stack 0
  9516                           GLOBAL	__end_of_PIEZO
  9517  154C                     	__end_of_PIEZO:
  9518 ;; =============== function _PIEZO ends ============
  9519                           
  9520                           	signat	_PIEZO,88
  9521                           	global	_winlose
  9522                           psect	text711,local,class=CODE,delta=2
  9523                           global __ptext711
  9524  169F                     __ptext711:
  9525                           
  9526 ;; *************** function _winlose *****************
  9527 ;; Defined at:
  9528 ;;		line 1184 in file "C:\Users\Phang\Desktop\9.80\PR 28\PR28.c"
  9529 ;; Parameters:    Size  Location     Type
  9530 ;;		None
  9531 ;; Auto vars:     Size  Location     Type
  9532 ;;  j               2   13[BANK0 ] int 
  9533 ;;  i               2   11[BANK0 ] int 
  9534 ;;  i               2   15[BANK0 ] int 
  9535 ;;  status          2    8[BANK0 ] int 
  9536 ;;  j               2    0        int 
  9537 ;;  i               2    0        int 
  9538 ;;  flag_w          1   10[BANK0 ] unsigned char 
  9539 ;; Return value:  Size  Location     Type
  9540 ;;                  1    wreg      unsigned char 
  9541 ;; Registers used:
  9542 ;;		wreg, fsr0l, fsr0h, status,2, status,0, btemp+1, pclath, cstack
  9543 ;; Tracked objects:
  9544 ;;		On entry : 0/0
  9545 ;;		On exit  : 0/0
  9546 ;;		Unchanged: 0/0
  9547 ;; Data sizes:     COMMON   BANK0   BANK1   BANK3   BANK2
  9548 ;;      Params:         0       0       0       0       0
  9549 ;;      Locals:         0       9       0       0       0
  9550 ;;      Temps:          0       4       0       0       0
  9551 ;;      Totals:         0      13       0       0       0
  9552 ;;Total ram usage:       13 bytes
  9553 ;; Hardware stack levels used:    1
  9554 ;; Hardware stack levels required when called:    4
  9555 ;; This function calls:
  9556 ;;		___bmul
  9557 ;; This function is called by:
  9558 ;;		_main
  9559 ;;		_Init
  9560 ;; This function uses a non-reentrant model
  9561 ;;
  9562                           psect	text711
  9563                           	file	"C:\Users\Phang\Desktop\9.80\PR 28\PR28.c"
  9564                           	line	1184
  9565                           	global	__size_of_winlose
  9566  0161                     	__size_of_winlose	equ	__end_of_winlose-_winlose
  9567                           	
  9568  169F                     _winlose:	
  9569                           	opt	stack 3
  9570                           ; Regs used in _winlose: [wreg-fsr0h+status,2+status,0+btemp+1+pclath+cstack]
  9571                           	line	1187
  9572                           	
  9573  169F                     l4404:	
  9574                           ;PR28.c: 1185: int status;
  9575                           ;PR28.c: 1186: int i,j;
  9576                           ;PR28.c: 1187: status =0;
  9577  169F  3000               	movlw	low(0)
  9578  16A0  1283               	bcf	status, 5	;RP0=0, select bank0
  9579  16A1  1303               	bcf	status, 6	;RP1=0, select bank0
  9580  16A2  00DA               	movwf	(winlose@status)
  9581  16A3  3000               	movlw	high(0)
  9582  16A4  00DB               	movwf	((winlose@status))+1
  9583                           	line	1189
  9584                           ;PR28.c: 1188: char flag_w;
  9585                           ;PR28.c: 1189: for(int i=0; i<3; i++)
  9586  16A5  3000               	movlw	low(0)
  9587  16A6  00E1               	movwf	(winlose@i_568)
  9588  16A7  3000               	movlw	high(0)
  9589  16A8  00E2               	movwf	((winlose@i_568))+1
  9590                           	
  9591  16A9                     l4406:	
  9592  16A9  0862               	movf	(winlose@i_568+1),w
  9593  16AA  3A80               	xorlw	80h
  9594  16AB  00FF               	movwf	btemp+1
  9595  16AC  3080               	movlw	(high(03h))^80h
  9596  16AD  027F               	subwf	btemp+1,w
  9597  16AE  1D03               	skipz
  9598  16AF  2EB2               	goto	u6455
  9599  16B0  3003               	movlw	low(03h)
  9600  16B1  0261               	subwf	(winlose@i_568),w
  9601  16B2                     u6455:
  9602                           
  9603  16B2  1C03               	skipc
  9604  16B3  2EB5               	goto	u6451
  9605  16B4  2EB6               	goto	u6450
  9606  16B5                     u6451:
  9607  16B5  2EB8               	goto	l4410
  9608  16B6                     u6450:
  9609  16B6  2F6E               	goto	l4446
  9610                           	
  9611  16B7                     l4408:	
  9612  16B7  2F6E               	goto	l4446
  9613                           	line	1190
  9614                           	
  9615  16B8                     l1195:	
  9616                           	line	1192
  9617                           	
  9618  16B8                     l4410:	
  9619                           ;PR28.c: 1190: {
  9620                           ;PR28.c: 1192: if((matrix[i][0]== matrix[i][1]) & (matrix[i][0] == matrix[i][2])){
  9621  16B8  3003               	movlw	(03h)
  9622  16B9  1283               	bcf	status, 5	;RP0=0, select bank0
  9623  16BA  1303               	bcf	status, 6	;RP1=0, select bank0
  9624  16BB  00D6               	movwf	(??_winlose+0)+0
  9625  16BC  0856               	movf	(??_winlose+0)+0,w
  9626  16BD  00D2               	movwf	(?___bmul)
  9627  16BE  0861               	movf	(winlose@i_568),w
  9628  16BF  160A  158A  262F   	fcall	___bmul
              160A  118A         
  9629  16C4  3E01               	addlw	01h
  9630  16C5  3E3B               	addlw	_matrix&0ffh
  9631  16C6  0084               	movwf	fsr
  9632  16C7  1383               	bcf	status, 7	;select IRP bank0
  9633  16C8  0800               	movf	indf,w
  9634  16C9  1283               	bcf	status, 5	;RP0=0, select bank0
  9635  16CA  1303               	bcf	status, 6	;RP1=0, select bank0
  9636  16CB  00D7               	movwf	(??_winlose+1)+0
  9637  16CC  3003               	movlw	(03h)
  9638  16CD  00D8               	movwf	(??_winlose+2)+0
  9639  16CE  0858               	movf	(??_winlose+2)+0,w
  9640  16CF  00D2               	movwf	(?___bmul)
  9641  16D0  0861               	movf	(winlose@i_568),w
  9642  16D1  160A  158A  262F   	fcall	___bmul
              160A  118A         
  9643  16D6  3E3B               	addlw	_matrix&0ffh
  9644  16D7  0084               	movwf	fsr0
  9645  16D8  1383               	bcf	status, 7	;select IRP bank0
  9646  16D9  0800               	movf	indf,w
  9647  16DA  1283               	bcf	status, 5	;RP0=0, select bank0
  9648  16DB  1303               	bcf	status, 6	;RP1=0, select bank0
  9649  16DC  0657               	xorwf	(??_winlose+1)+0,w
  9650  16DD  1D03               	skipz
  9651  16DE  2EE0               	goto	u6461
  9652  16DF  2EE1               	goto	u6460
  9653  16E0                     u6461:
  9654  16E0  2F18               	goto	l4418
  9655  16E1                     u6460:
  9656                           	
  9657  16E1                     l4412:	
  9658  16E1  3003               	movlw	(03h)
  9659  16E2  00D6               	movwf	(??_winlose+0)+0
  9660  16E3  0856               	movf	(??_winlose+0)+0,w
  9661  16E4  00D2               	movwf	(?___bmul)
  9662  16E5  0861               	movf	(winlose@i_568),w
  9663  16E6  160A  158A  262F   	fcall	___bmul
              160A  118A         
  9664  16EB  3E02               	addlw	02h
  9665  16EC  3E3B               	addlw	_matrix&0ffh
  9666  16ED  0084               	movwf	fsr
  9667  16EE  1383               	bcf	status, 7	;select IRP bank0
  9668  16EF  0800               	movf	indf,w
  9669  16F0  1283               	bcf	status, 5	;RP0=0, select bank0
  9670  16F1  1303               	bcf	status, 6	;RP1=0, select bank0
  9671  16F2  00D7               	movwf	(??_winlose+1)+0
  9672  16F3  3003               	movlw	(03h)
  9673  16F4  00D8               	movwf	(??_winlose+2)+0
  9674  16F5  0858               	movf	(??_winlose+2)+0,w
  9675  16F6  00D2               	movwf	(?___bmul)
  9676  16F7  0861               	movf	(winlose@i_568),w
  9677  16F8  160A  158A  262F   	fcall	___bmul
              160A  118A         
  9678  16FD  3E3B               	addlw	_matrix&0ffh
  9679  16FE  0084               	movwf	fsr0
  9680  16FF  1383               	bcf	status, 7	;select IRP bank0
  9681  1700  0800               	movf	indf,w
  9682  1701  1283               	bcf	status, 5	;RP0=0, select bank0
  9683  1702  1303               	bcf	status, 6	;RP1=0, select bank0
  9684  1703  0657               	xorwf	(??_winlose+1)+0,w
  9685  1704  1D03               	skipz
  9686  1705  2F07               	goto	u6471
  9687  1706  2F08               	goto	u6470
  9688  1707                     u6471:
  9689  1707  2F18               	goto	l4418
  9690  1708                     u6470:
  9691                           	line	1193
  9692                           	
  9693  1708                     l4414:	
  9694                           ;PR28.c: 1193: return matrix[i][0];
  9695  1708  3003               	movlw	(03h)
  9696  1709  00D6               	movwf	(??_winlose+0)+0
  9697  170A  0856               	movf	(??_winlose+0)+0,w
  9698  170B  00D2               	movwf	(?___bmul)
  9699  170C  0861               	movf	(winlose@i_568),w
  9700  170D  160A  158A  262F   	fcall	___bmul
              160A  118A         
  9701  1712  3E3B               	addlw	_matrix&0ffh
  9702  1713  0084               	movwf	fsr0
  9703  1714  1383               	bcf	status, 7	;select IRP bank0
  9704  1715  0800               	movf	indf,w
  9705  1716  2FFF               	goto	l1198
  9706                           	
  9707  1717                     l4416:	
  9708  1717  2FFF               	goto	l1198
  9709                           	line	1194
  9710                           	
  9711  1718                     l1197:	
  9712                           	line	1196
  9713                           	
  9714  1718                     l4418:	
  9715                           ;PR28.c: 1194: }
  9716                           ;PR28.c: 1196: if(matrix[0][i] == matrix[1][i] & matrix[0][i] == matrix[2][i]){
  9717  1718  1283               	bcf	status, 5	;RP0=0, select bank0
  9718  1719  1303               	bcf	status, 6	;RP1=0, select bank0
  9719  171A  0861               	movf	(winlose@i_568),w
  9720  171B  3E3E               	addlw	_matrix+03h&0ffh
  9721  171C  0084               	movwf	fsr
  9722  171D  0800               	movf	indf,w
  9723  171E  00D6               	movwf	(??_winlose+0)+0
  9724  171F  0861               	movf	(winlose@i_568),w
  9725  1720  3E3B               	addlw	_matrix&0ffh
  9726  1721  0084               	movwf	fsr0
  9727  1722  0800               	movf	indf,w
  9728  1723  0656               	xorwf	(??_winlose+0)+0,w
  9729  1724  1D03               	skipz
  9730  1725  2F27               	goto	u6481
  9731  1726  2F28               	goto	u6480
  9732  1727                     u6481:
  9733  1727  2F3C               	goto	l4426
  9734  1728                     u6480:
  9735                           	
  9736  1728                     l4420:	
  9737  1728  0861               	movf	(winlose@i_568),w
  9738  1729  3E41               	addlw	_matrix+06h&0ffh
  9739  172A  0084               	movwf	fsr
  9740  172B  0800               	movf	indf,w
  9741  172C  00D6               	movwf	(??_winlose+0)+0
  9742  172D  0861               	movf	(winlose@i_568),w
  9743  172E  3E3B               	addlw	_matrix&0ffh
  9744  172F  0084               	movwf	fsr0
  9745  1730  0800               	movf	indf,w
  9746  1731  0656               	xorwf	(??_winlose+0)+0,w
  9747  1732  1D03               	skipz
  9748  1733  2F35               	goto	u6491
  9749  1734  2F36               	goto	u6490
  9750  1735                     u6491:
  9751  1735  2F3C               	goto	l4426
  9752  1736                     u6490:
  9753                           	line	1197
  9754                           	
  9755  1736                     l4422:	
  9756                           ;PR28.c: 1197: return matrix[0][i];
  9757  1736  0861               	movf	(winlose@i_568),w
  9758  1737  3E3B               	addlw	_matrix&0ffh
  9759  1738  0084               	movwf	fsr0
  9760  1739  0800               	movf	indf,w
  9761  173A  2FFF               	goto	l1198
  9762                           	
  9763  173B                     l4424:	
  9764  173B  2FFF               	goto	l1198
  9765                           	line	1198
  9766                           	
  9767  173C                     l1199:	
  9768                           	line	1200
  9769                           	
  9770  173C                     l4426:	
  9771                           ;PR28.c: 1198: }
  9772                           ;PR28.c: 1200: if(matrix[0][0] == matrix[1][1] & matrix[0][0] == matrix[2][2]){
  9773  173C  083F               	movf	0+(_matrix)+04h,w
  9774  173D  063B               	xorwf	(_matrix),w
  9775  173E  1D03               	skipz
  9776  173F  2F41               	goto	u6501
  9777  1740  2F42               	goto	u6500
  9778  1741                     u6501:
  9779  1741  2F4B               	goto	l4434
  9780  1742                     u6500:
  9781                           	
  9782  1742                     l4428:	
  9783  1742  0843               	movf	0+(_matrix)+08h,w
  9784  1743  063B               	xorwf	(_matrix),w
  9785  1744  1D03               	skipz
  9786  1745  2F47               	goto	u6511
  9787  1746  2F48               	goto	u6510
  9788  1747                     u6511:
  9789  1747  2F4B               	goto	l4434
  9790  1748                     u6510:
  9791                           	line	1201
  9792                           	
  9793  1748                     l4430:	
  9794                           ;PR28.c: 1201: return matrix[0][0];
  9795  1748  083B               	movf	(_matrix),w
  9796  1749  2FFF               	goto	l1198
  9797                           	
  9798  174A                     l4432:	
  9799  174A  2FFF               	goto	l1198
  9800                           	line	1202
  9801                           	
  9802  174B                     l1200:	
  9803                           	line	1203
  9804                           	
  9805  174B                     l4434:	
  9806                           ;PR28.c: 1202: }
  9807                           ;PR28.c: 1203: if(matrix[0][2] == matrix[1][1] & matrix[0][2] == matrix[2][0]){
  9808  174B  083D               	movf	0+(_matrix)+02h,w
  9809  174C  063F               	xorwf	0+(_matrix)+04h,w
  9810  174D  1D03               	skipz
  9811  174E  2F50               	goto	u6521
  9812  174F  2F51               	goto	u6520
  9813  1750                     u6521:
  9814  1750  2F5A               	goto	l4442
  9815  1751                     u6520:
  9816                           	
  9817  1751                     l4436:	
  9818  1751  083D               	movf	0+(_matrix)+02h,w
  9819  1752  0641               	xorwf	0+(_matrix)+06h,w
  9820  1753  1D03               	skipz
  9821  1754  2F56               	goto	u6531
  9822  1755  2F57               	goto	u6530
  9823  1756                     u6531:
  9824  1756  2F5A               	goto	l4442
  9825  1757                     u6530:
  9826                           	line	1204
  9827                           	
  9828  1757                     l4438:	
  9829                           ;PR28.c: 1204: return matrix[0][2];
  9830  1757  083D               	movf	0+(_matrix)+02h,w
  9831  1758  2FFF               	goto	l1198
  9832                           	
  9833  1759                     l4440:	
  9834  1759  2FFF               	goto	l1198
  9835                           	line	1205
  9836                           	
  9837  175A                     l1201:	
  9838                           	line	1189
  9839                           	
  9840  175A                     l4442:	
  9841  175A  3001               	movlw	low(01h)
  9842  175B  07E1               	addwf	(winlose@i_568),f
  9843  175C  1803               	skipnc
  9844  175D  0AE2               	incf	(winlose@i_568+1),f
  9845  175E  3000               	movlw	high(01h)
  9846  175F  07E2               	addwf	(winlose@i_568+1),f
  9847                           	
  9848  1760                     l4444:	
  9849  1760  0862               	movf	(winlose@i_568+1),w
  9850  1761  3A80               	xorlw	80h
  9851  1762  00FF               	movwf	btemp+1
  9852  1763  3080               	movlw	(high(03h))^80h
  9853  1764  027F               	subwf	btemp+1,w
  9854  1765  1D03               	skipz
  9855  1766  2F69               	goto	u6545
  9856  1767  3003               	movlw	low(03h)
  9857  1768  0261               	subwf	(winlose@i_568),w
  9858  1769                     u6545:
  9859                           
  9860  1769  1C03               	skipc
  9861  176A  2F6C               	goto	u6541
  9862  176B  2F6D               	goto	u6540
  9863  176C                     u6541:
  9864  176C  2EB8               	goto	l4410
  9865  176D                     u6540:
  9866  176D  2F6E               	goto	l4446
  9867                           	
  9868  176E                     l1196:	
  9869                           	line	1209
  9870                           	
  9871  176E                     l4446:	
  9872                           ;PR28.c: 1205: }
  9873                           ;PR28.c: 1208: }
  9874                           ;PR28.c: 1209: for(int i=0; i<3; i++){
  9875  176E  3000               	movlw	low(0)
  9876  176F  1283               	bcf	status, 5	;RP0=0, select bank0
  9877  1770  1303               	bcf	status, 6	;RP1=0, select bank0
  9878  1771  00DD               	movwf	(winlose@i_569)
  9879  1772  3000               	movlw	high(0)
  9880  1773  00DE               	movwf	((winlose@i_569))+1
  9881                           	
  9882  1774                     l4448:	
  9883  1774  085E               	movf	(winlose@i_569+1),w
  9884  1775  3A80               	xorlw	80h
  9885  1776  00FF               	movwf	btemp+1
  9886  1777  3080               	movlw	(high(03h))^80h
  9887  1778  027F               	subwf	btemp+1,w
  9888  1779  1D03               	skipz
  9889  177A  2F7D               	goto	u6555
  9890  177B  3003               	movlw	low(03h)
  9891  177C  025D               	subwf	(winlose@i_569),w
  9892  177D                     u6555:
  9893                           
  9894  177D  1C03               	skipc
  9895  177E  2F80               	goto	u6551
  9896  177F  2F81               	goto	u6550
  9897  1780                     u6551:
  9898  1780  2F83               	goto	l4452
  9899  1781                     u6550:
  9900  1781  2FE8               	goto	l4470
  9901                           	
  9902  1782                     l4450:	
  9903  1782  2FE8               	goto	l4470
  9904                           	
  9905  1783                     l1202:	
  9906                           	line	1210
  9907                           	
  9908  1783                     l4452:	
  9909                           ;PR28.c: 1210: for(int j=0; j<3; j++){
  9910  1783  3000               	movlw	low(0)
  9911  1784  1283               	bcf	status, 5	;RP0=0, select bank0
  9912  1785  1303               	bcf	status, 6	;RP1=0, select bank0
  9913  1786  00DF               	movwf	(winlose@j_570)
  9914  1787  3000               	movlw	high(0)
  9915  1788  00E0               	movwf	((winlose@j_570))+1
  9916                           	
  9917  1789                     l4454:	
  9918  1789  0860               	movf	(winlose@j_570+1),w
  9919  178A  3A80               	xorlw	80h
  9920  178B  00FF               	movwf	btemp+1
  9921  178C  3080               	movlw	(high(03h))^80h
  9922  178D  027F               	subwf	btemp+1,w
  9923  178E  1D03               	skipz
  9924  178F  2F92               	goto	u6565
  9925  1790  3003               	movlw	low(03h)
  9926  1791  025F               	subwf	(winlose@j_570),w
  9927  1792                     u6565:
  9928                           
  9929  1792  1C03               	skipc
  9930  1793  2F95               	goto	u6561
  9931  1794  2F96               	goto	u6560
  9932  1795                     u6561:
  9933  1795  2F98               	goto	l4458
  9934  1796                     u6560:
  9935  1796  2FD2               	goto	l4466
  9936                           	
  9937  1797                     l4456:	
  9938  1797  2FD2               	goto	l4466
  9939                           	
  9940  1798                     l1204:	
  9941                           	line	1211
  9942                           	
  9943  1798                     l4458:	
  9944                           ;PR28.c: 1211: if(matrix[i][j] == ' '){
  9945  1798  3003               	movlw	(03h)
  9946  1799  1283               	bcf	status, 5	;RP0=0, select bank0
  9947  179A  1303               	bcf	status, 6	;RP1=0, select bank0
  9948  179B  00D6               	movwf	(??_winlose+0)+0
  9949  179C  0856               	movf	(??_winlose+0)+0,w
  9950  179D  00D2               	movwf	(?___bmul)
  9951  179E  085D               	movf	(winlose@i_569),w
  9952  179F  160A  158A  262F   	fcall	___bmul
              160A  118A         
  9953  17A4  1283               	bcf	status, 5	;RP0=0, select bank0
  9954  17A5  1303               	bcf	status, 6	;RP1=0, select bank0
  9955  17A6  00D7               	movwf	(??_winlose+1)+0
  9956  17A7  303B               	movlw	(_matrix)&0ffh
  9957  17A8  0757               	addwf	0+(??_winlose+1)+0,w
  9958  17A9  00D8               	movwf	(??_winlose+2)+0
  9959  17AA  085F               	movf	(winlose@j_570),w
  9960  17AB  0758               	addwf	0+(??_winlose+2)+0,w
  9961  17AC  00D9               	movwf	(??_winlose+3)+0
  9962  17AD  0859               	movf	0+(??_winlose+3)+0,w
  9963  17AE  0084               	movwf	fsr0
  9964  17AF  1383               	bcf	status, 7	;select IRP bank0
  9965  17B0  0800               	movf	indf,w
  9966  17B1  3A20               	xorlw	020h
  9967  17B2  1D03               	skipz
  9968  17B3  2FB5               	goto	u6571
  9969  17B4  2FB6               	goto	u6570
  9970  17B5                     u6571:
  9971  17B5  2FBE               	goto	l4462
  9972  17B6                     u6570:
  9973                           	line	1212
  9974                           	
  9975  17B6                     l4460:	
  9976                           ;PR28.c: 1212: status++;
  9977  17B6  3001               	movlw	low(01h)
  9978  17B7  07DA               	addwf	(winlose@status),f
  9979  17B8  1803               	skipnc
  9980  17B9  0ADB               	incf	(winlose@status+1),f
  9981  17BA  3000               	movlw	high(01h)
  9982  17BB  07DB               	addwf	(winlose@status+1),f
  9983                           	line	1213
  9984                           ;PR28.c: 1213: }else{
  9985  17BC  2FBE               	goto	l4462
  9986                           	
  9987  17BD                     l1206:	
  9988  17BD  2FBE               	goto	l4462
  9989                           	line	1215
  9990                           	
  9991  17BE                     l1207:	
  9992                           	line	1210
  9993                           	
  9994  17BE                     l4462:	
  9995  17BE  3001               	movlw	low(01h)
  9996  17BF  07DF               	addwf	(winlose@j_570),f
  9997  17C0  1803               	skipnc
  9998  17C1  0AE0               	incf	(winlose@j_570+1),f
  9999  17C2  3000               	movlw	high(01h)
 10000  17C3  07E0               	addwf	(winlose@j_570+1),f
 10001                           	
 10002  17C4                     l4464:	
 10003  17C4  0860               	movf	(winlose@j_570+1),w
 10004  17C5  3A80               	xorlw	80h
 10005  17C6  00FF               	movwf	btemp+1
 10006  17C7  3080               	movlw	(high(03h))^80h
 10007  17C8  027F               	subwf	btemp+1,w
 10008  17C9  1D03               	skipz
 10009  17CA  2FCD               	goto	u6585
 10010  17CB  3003               	movlw	low(03h)
 10011  17CC  025F               	subwf	(winlose@j_570),w
 10012  17CD                     u6585:
 10013                           
 10014  17CD  1C03               	skipc
 10015  17CE  2FD0               	goto	u6581
 10016  17CF  2FD1               	goto	u6580
 10017  17D0                     u6581:
 10018  17D0  2F98               	goto	l4458
 10019  17D1                     u6580:
 10020  17D1  2FD2               	goto	l4466
 10021                           	
 10022  17D2                     l1205:	
 10023                           	line	1209
 10024                           	
 10025  17D2                     l4466:	
 10026  17D2  3001               	movlw	low(01h)
 10027  17D3  1283               	bcf	status, 5	;RP0=0, select bank0
 10028  17D4  1303               	bcf	status, 6	;RP1=0, select bank0
 10029  17D5  07DD               	addwf	(winlose@i_569),f
 10030  17D6  1803               	skipnc
 10031  17D7  0ADE               	incf	(winlose@i_569+1),f
 10032  17D8  3000               	movlw	high(01h)
 10033  17D9  07DE               	addwf	(winlose@i_569+1),f
 10034                           	
 10035  17DA                     l4468:	
 10036  17DA  085E               	movf	(winlose@i_569+1),w
 10037  17DB  3A80               	xorlw	80h
 10038  17DC  00FF               	movwf	btemp+1
 10039  17DD  3080               	movlw	(high(03h))^80h
 10040  17DE  027F               	subwf	btemp+1,w
 10041  17DF  1D03               	skipz
 10042  17E0  2FE3               	goto	u6595
 10043  17E1  3003               	movlw	low(03h)
 10044  17E2  025D               	subwf	(winlose@i_569),w
 10045  17E3                     u6595:
 10046                           
 10047  17E3  1C03               	skipc
 10048  17E4  2FE6               	goto	u6591
 10049  17E5  2FE7               	goto	u6590
 10050  17E6                     u6591:
 10051  17E6  2F83               	goto	l4452
 10052  17E7                     u6590:
 10053  17E7  2FE8               	goto	l4470
 10054                           	
 10055  17E8                     l1203:	
 10056                           	line	1218
 10057                           	
 10058  17E8                     l4470:	
 10059                           ;PR28.c: 1215: }
 10060                           ;PR28.c: 1216: }
 10061                           ;PR28.c: 1217: }
 10062                           ;PR28.c: 1218: if(status == 0){
 10063  17E8  1283               	bcf	status, 5	;RP0=0, select bank0
 10064  17E9  1303               	bcf	status, 6	;RP1=0, select bank0
 10065  17EA  085B               	movf	((winlose@status+1)),w
 10066  17EB  045A               	iorwf	((winlose@status)),w
 10067  17EC  1D03               	skipz
 10068  17ED  2FEF               	goto	u6601
 10069  17EE  2FF0               	goto	u6600
 10070  17EF                     u6601:
 10071  17EF  2FF8               	goto	l4478
 10072  17F0                     u6600:
 10073                           	line	1219
 10074                           	
 10075  17F0                     l4472:	
 10076                           ;PR28.c: 1219: flag_w = 'd';
 10077  17F0  3064               	movlw	(064h)
 10078  17F1  00D6               	movwf	(??_winlose+0)+0
 10079  17F2  0856               	movf	(??_winlose+0)+0,w
 10080  17F3  00DC               	movwf	(winlose@flag_w)
 10081                           	line	1220
 10082                           ;PR28.c: 1220: return flag_w;
 10083  17F4  085C               	movf	(winlose@flag_w),w
 10084  17F5  2FFF               	goto	l1198
 10085                           	
 10086  17F6                     l4474:	
 10087  17F6  2FFF               	goto	l1198
 10088                           	line	1221
 10089                           	
 10090  17F7                     l4476:	
 10091                           ;PR28.c: 1221: }else{
 10092  17F7  2FFF               	goto	l1198
 10093                           	
 10094  17F8                     l1208:	
 10095                           	line	1222
 10096                           	
 10097  17F8                     l4478:	
 10098                           ;PR28.c: 1222: flag_w = ' ';
 10099  17F8  3020               	movlw	(020h)
 10100  17F9  00D6               	movwf	(??_winlose+0)+0
 10101  17FA  0856               	movf	(??_winlose+0)+0,w
 10102  17FB  00DC               	movwf	(winlose@flag_w)
 10103                           	line	1223
 10104                           ;PR28.c: 1223: return flag_w;
 10105  17FC  085C               	movf	(winlose@flag_w),w
 10106  17FD  2FFF               	goto	l1198
 10107                           	
 10108  17FE                     l4480:	
 10109  17FE  2FFF               	goto	l1198
 10110                           	line	1224
 10111                           	
 10112  17FF                     l1209:	
 10113                           	line	1225
 10114                           	
 10115  17FF                     l1198:	
 10116  17FF  0008               	return
 10117                           	opt stack 0
 10118                           GLOBAL	__end_of_winlose
 10119  1800                     	__end_of_winlose:
 10120 ;; =============== function _winlose ends ============
 10121                           
 10122                           	signat	_winlose,89
 10123                           	global	_PIEZO_S
 10124                           psect	text712,local,class=CODE,delta=2
 10125                           global __ptext712
 10126  123F                     __ptext712:
 10127                           
 10128 ;; *************** function _PIEZO_S *****************
 10129 ;; Defined at:
 10130 ;;		line 1129 in file "C:\Users\Phang\Desktop\9.80\PR 28\PR28.c"
 10131 ;; Parameters:    Size  Location     Type
 10132 ;;		None
 10133 ;; Auto vars:     Size  Location     Type
 10134 ;;		None
 10135 ;; Return value:  Size  Location     Type
 10136 ;;		None               void
 10137 ;; Registers used:
 10138 ;;		wreg, status,2, status,0, pclath, cstack
 10139 ;; Tracked objects:
 10140 ;;		On entry : 0/0
 10141 ;;		On exit  : 0/0
 10142 ;;		Unchanged: 0/0
 10143 ;; Data sizes:     COMMON   BANK0   BANK1   BANK3   BANK2
 10144 ;;      Params:         0       0       0       0       0
 10145 ;;      Locals:         0       0       0       0       0
 10146 ;;      Temps:          0       0       0       0       0
 10147 ;;      Totals:         0       0       0       0       0
 10148 ;;Total ram usage:        0 bytes
 10149 ;; Hardware stack levels used:    1
 10150 ;; Hardware stack levels required when called:    4
 10151 ;; This function calls:
 10152 ;;		_delay
 10153 ;;		_RestartTimer1
 10154 ;; This function is called by:
 10155 ;;		_main
 10156 ;; This function uses a non-reentrant model
 10157 ;;
 10158                           psect	text712
 10159                           	file	"C:\Users\Phang\Desktop\9.80\PR 28\PR28.c"
 10160                           	line	1129
 10161                           	global	__size_of_PIEZO_S
 10162  00D6                     	__size_of_PIEZO_S	equ	__end_of_PIEZO_S-_PIEZO_S
 10163                           	
 10164  123F                     _PIEZO_S:	
 10165                           	opt	stack 3
 10166                           ; Regs used in _PIEZO_S: [wreg+status,2+status,0+pclath+cstack]
 10167                           	line	1130
 10168                           	
 10169  123F                     l4348:	
 10170                           ;PR28.c: 1130: GIE=0;
 10171  123F  138B               	bcf	(95/8),(95)&7
 10172                           	line	1131
 10173                           ;PR28.c: 1131: TMR2ON = 0;
 10174  1240  1283               	bcf	status, 5	;RP0=0, select bank0
 10175  1241  1303               	bcf	status, 6	;RP1=0, select bank0
 10176  1242  1112               	bcf	(146/8),(146)&7
 10177                           	line	1132
 10178                           ;PR28.c: 1132: TMR1ON = 0;
 10179  1243  1010               	bcf	(128/8),(128)&7
 10180                           	line	1134
 10181                           	
 10182  1244                     l4350:	
 10183                           ;PR28.c: 1134: CCP1CON = 0b00001100;
 10184  1244  300C               	movlw	(0Ch)
 10185  1245  0097               	movwf	(23)	;volatile
 10186                           	line	1135
 10187                           ;PR28.c: 1135: T2CON = 0b00000111;
 10188  1246  3007               	movlw	(07h)
 10189  1247  0092               	movwf	(18)	;volatile
 10190                           	line	1137
 10191                           ;PR28.c: 1137: PR2 = 0xEE;
 10192  1248  30EE               	movlw	(0EEh)
 10193  1249  1683               	bsf	status, 5	;RP0=1, select bank1
 10194  124A  1303               	bcf	status, 6	;RP1=0, select bank1
 10195  124B  0092               	movwf	(146)^080h	;volatile
 10196                           	line	1138
 10197                           ;PR28.c: 1138: CCPR1L = 50;
 10198  124C  3032               	movlw	(032h)
 10199  124D  1283               	bcf	status, 5	;RP0=0, select bank0
 10200  124E  1303               	bcf	status, 6	;RP1=0, select bank0
 10201  124F  0095               	movwf	(21)	;volatile
 10202                           	line	1139
 10203                           	
 10204  1250                     l4352:	
 10205                           ;PR28.c: 1139: delay(2000);
 10206  1250  3000               	movlw	0
 10207  1251  00D5               	movwf	(?_delay+3)
 10208  1252  3000               	movlw	0
 10209  1253  00D4               	movwf	(?_delay+2)
 10210  1254  3007               	movlw	07h
 10211  1255  00D3               	movwf	(?_delay+1)
 10212  1256  30D0               	movlw	0D0h
 10213  1257  00D2               	movwf	(?_delay)
 10214                           
 10215  1258  160A  158A  26DE   	fcall	_delay
              160A  118A         
 10216                           	line	1140
 10217                           	
 10218  125D                     l4354:	
 10219                           ;PR28.c: 1140: PR2 = 0xD3;
 10220  125D  30D3               	movlw	(0D3h)
 10221  125E  1683               	bsf	status, 5	;RP0=1, select bank1
 10222  125F  1303               	bcf	status, 6	;RP1=0, select bank1
 10223  1260  0092               	movwf	(146)^080h	;volatile
 10224                           	line	1141
 10225                           	
 10226  1261                     l4356:	
 10227                           ;PR28.c: 1141: CCPR1L = 50;
 10228  1261  3032               	movlw	(032h)
 10229  1262  1283               	bcf	status, 5	;RP0=0, select bank0
 10230  1263  1303               	bcf	status, 6	;RP1=0, select bank0
 10231  1264  0095               	movwf	(21)	;volatile
 10232                           	line	1142
 10233                           	
 10234  1265                     l4358:	
 10235                           ;PR28.c: 1142: delay(2000);
 10236  1265  3000               	movlw	0
 10237  1266  00D5               	movwf	(?_delay+3)
 10238  1267  3000               	movlw	0
 10239  1268  00D4               	movwf	(?_delay+2)
 10240  1269  3007               	movlw	07h
 10241  126A  00D3               	movwf	(?_delay+1)
 10242  126B  30D0               	movlw	0D0h
 10243  126C  00D2               	movwf	(?_delay)
 10244                           
 10245  126D  160A  158A  26DE   	fcall	_delay
              160A  118A         
 10246                           	line	1143
 10247                           ;PR28.c: 1143: PR2 = 0xBD;
 10248  1272  30BD               	movlw	(0BDh)
 10249  1273  1683               	bsf	status, 5	;RP0=1, select bank1
 10250  1274  1303               	bcf	status, 6	;RP1=0, select bank1
 10251  1275  0092               	movwf	(146)^080h	;volatile
 10252                           	line	1144
 10253                           ;PR28.c: 1144: CCPR1L = 100;
 10254  1276  3064               	movlw	(064h)
 10255  1277  1283               	bcf	status, 5	;RP0=0, select bank0
 10256  1278  1303               	bcf	status, 6	;RP1=0, select bank0
 10257  1279  0095               	movwf	(21)	;volatile
 10258                           	line	1145
 10259                           	
 10260  127A                     l4360:	
 10261                           ;PR28.c: 1145: delay(2000);
 10262  127A  3000               	movlw	0
 10263  127B  00D5               	movwf	(?_delay+3)
 10264  127C  3000               	movlw	0
 10265  127D  00D4               	movwf	(?_delay+2)
 10266  127E  3007               	movlw	07h
 10267  127F  00D3               	movwf	(?_delay+1)
 10268  1280  30D0               	movlw	0D0h
 10269  1281  00D2               	movwf	(?_delay)
 10270                           
 10271  1282  160A  158A  26DE   	fcall	_delay
              160A  118A         
 10272                           	line	1146
 10273                           	
 10274  1287                     l4362:	
 10275                           ;PR28.c: 1146: PR2 = 0xB2;
 10276  1287  30B2               	movlw	(0B2h)
 10277  1288  1683               	bsf	status, 5	;RP0=1, select bank1
 10278  1289  1303               	bcf	status, 6	;RP1=0, select bank1
 10279  128A  0092               	movwf	(146)^080h	;volatile
 10280                           	line	1147
 10281                           	
 10282  128B                     l4364:	
 10283                           ;PR28.c: 1147: CCPR1L = 100;
 10284  128B  3064               	movlw	(064h)
 10285  128C  1283               	bcf	status, 5	;RP0=0, select bank0
 10286  128D  1303               	bcf	status, 6	;RP1=0, select bank0
 10287  128E  0095               	movwf	(21)	;volatile
 10288                           	line	1148
 10289                           	
 10290  128F                     l4366:	
 10291                           ;PR28.c: 1148: delay(2000);
 10292  128F  3000               	movlw	0
 10293  1290  00D5               	movwf	(?_delay+3)
 10294  1291  3000               	movlw	0
 10295  1292  00D4               	movwf	(?_delay+2)
 10296  1293  3007               	movlw	07h
 10297  1294  00D3               	movwf	(?_delay+1)
 10298  1295  30D0               	movlw	0D0h
 10299  1296  00D2               	movwf	(?_delay)
 10300                           
 10301  1297  160A  158A  26DE   	fcall	_delay
              160A  118A         
 10302                           	line	1149
 10303                           ;PR28.c: 1149: PR2 = 0x9E;
 10304  129C  309E               	movlw	(09Eh)
 10305  129D  1683               	bsf	status, 5	;RP0=1, select bank1
 10306  129E  1303               	bcf	status, 6	;RP1=0, select bank1
 10307  129F  0092               	movwf	(146)^080h	;volatile
 10308                           	line	1150
 10309                           ;PR28.c: 1150: CCPR1L = 50;
 10310  12A0  3032               	movlw	(032h)
 10311  12A1  1283               	bcf	status, 5	;RP0=0, select bank0
 10312  12A2  1303               	bcf	status, 6	;RP1=0, select bank0
 10313  12A3  0095               	movwf	(21)	;volatile
 10314                           	line	1151
 10315                           	
 10316  12A4                     l4368:	
 10317                           ;PR28.c: 1151: delay(2000);
 10318  12A4  3000               	movlw	0
 10319  12A5  00D5               	movwf	(?_delay+3)
 10320  12A6  3000               	movlw	0
 10321  12A7  00D4               	movwf	(?_delay+2)
 10322  12A8  3007               	movlw	07h
 10323  12A9  00D3               	movwf	(?_delay+1)
 10324  12AA  30D0               	movlw	0D0h
 10325  12AB  00D2               	movwf	(?_delay)
 10326                           
 10327  12AC  160A  158A  26DE   	fcall	_delay
              160A  118A         
 10328                           	line	1152
 10329                           	
 10330  12B1                     l4370:	
 10331                           ;PR28.c: 1152: PR2 = 0x8D;
 10332  12B1  308D               	movlw	(08Dh)
 10333  12B2  1683               	bsf	status, 5	;RP0=1, select bank1
 10334  12B3  1303               	bcf	status, 6	;RP1=0, select bank1
 10335  12B4  0092               	movwf	(146)^080h	;volatile
 10336                           	line	1153
 10337                           	
 10338  12B5                     l4372:	
 10339                           ;PR28.c: 1153: CCPR1L = 50;
 10340  12B5  3032               	movlw	(032h)
 10341  12B6  1283               	bcf	status, 5	;RP0=0, select bank0
 10342  12B7  1303               	bcf	status, 6	;RP1=0, select bank0
 10343  12B8  0095               	movwf	(21)	;volatile
 10344                           	line	1154
 10345                           	
 10346  12B9                     l4374:	
 10347                           ;PR28.c: 1154: delay(2000);
 10348  12B9  3000               	movlw	0
 10349  12BA  00D5               	movwf	(?_delay+3)
 10350  12BB  3000               	movlw	0
 10351  12BC  00D4               	movwf	(?_delay+2)
 10352  12BD  3007               	movlw	07h
 10353  12BE  00D3               	movwf	(?_delay+1)
 10354  12BF  30D0               	movlw	0D0h
 10355  12C0  00D2               	movwf	(?_delay)
 10356                           
 10357  12C1  160A  158A  26DE   	fcall	_delay
              160A  118A         
 10358                           	line	1155
 10359                           ;PR28.c: 1155: PR2 = 0x7D;
 10360  12C6  307D               	movlw	(07Dh)
 10361  12C7  1683               	bsf	status, 5	;RP0=1, select bank1
 10362  12C8  1303               	bcf	status, 6	;RP1=0, select bank1
 10363  12C9  0092               	movwf	(146)^080h	;volatile
 10364                           	line	1156
 10365                           ;PR28.c: 1156: CCPR1L = 50;
 10366  12CA  3032               	movlw	(032h)
 10367  12CB  1283               	bcf	status, 5	;RP0=0, select bank0
 10368  12CC  1303               	bcf	status, 6	;RP1=0, select bank0
 10369  12CD  0095               	movwf	(21)	;volatile
 10370                           	line	1157
 10371                           	
 10372  12CE                     l4376:	
 10373                           ;PR28.c: 1157: delay(2000);
 10374  12CE  3000               	movlw	0
 10375  12CF  00D5               	movwf	(?_delay+3)
 10376  12D0  3000               	movlw	0
 10377  12D1  00D4               	movwf	(?_delay+2)
 10378  12D2  3007               	movlw	07h
 10379  12D3  00D3               	movwf	(?_delay+1)
 10380  12D4  30D0               	movlw	0D0h
 10381  12D5  00D2               	movwf	(?_delay)
 10382                           
 10383  12D6  160A  158A  26DE   	fcall	_delay
              160A  118A         
 10384                           	line	1158
 10385                           	
 10386  12DB                     l4378:	
 10387                           ;PR28.c: 1158: PR2 = 0x76;
 10388  12DB  3076               	movlw	(076h)
 10389  12DC  1683               	bsf	status, 5	;RP0=1, select bank1
 10390  12DD  1303               	bcf	status, 6	;RP1=0, select bank1
 10391  12DE  0092               	movwf	(146)^080h	;volatile
 10392                           	line	1159
 10393                           	
 10394  12DF                     l4380:	
 10395                           ;PR28.c: 1159: CCPR1L = 50;
 10396  12DF  3032               	movlw	(032h)
 10397  12E0  1283               	bcf	status, 5	;RP0=0, select bank0
 10398  12E1  1303               	bcf	status, 6	;RP1=0, select bank0
 10399  12E2  0095               	movwf	(21)	;volatile
 10400                           	line	1160
 10401                           	
 10402  12E3                     l4382:	
 10403                           ;PR28.c: 1160: delay(4000);
 10404  12E3  3000               	movlw	0
 10405  12E4  00D5               	movwf	(?_delay+3)
 10406  12E5  3000               	movlw	0
 10407  12E6  00D4               	movwf	(?_delay+2)
 10408  12E7  300F               	movlw	0Fh
 10409  12E8  00D3               	movwf	(?_delay+1)
 10410  12E9  30A0               	movlw	0A0h
 10411  12EA  00D2               	movwf	(?_delay)
 10412                           
 10413  12EB  160A  158A  26DE   	fcall	_delay
              160A  118A         
 10414                           	line	1163
 10415                           	
 10416  12F0                     l4384:	
 10417                           ;PR28.c: 1163: CCP1CON = 0x00;
 10418  12F0  1283               	bcf	status, 5	;RP0=0, select bank0
 10419  12F1  1303               	bcf	status, 6	;RP1=0, select bank0
 10420  12F2  0197               	clrf	(23)	;volatile
 10421                           	line	1164
 10422                           	
 10423  12F3                     l4386:	
 10424                           ;PR28.c: 1164: T2CON=0b01110110;
 10425  12F3  3076               	movlw	(076h)
 10426  12F4  0092               	movwf	(18)	;volatile
 10427                           	line	1165
 10428                           	
 10429  12F5                     l4388:	
 10430                           ;PR28.c: 1165: PR2 = 0xB4;
 10431  12F5  30B4               	movlw	(0B4h)
 10432  12F6  1683               	bsf	status, 5	;RP0=1, select bank1
 10433  12F7  1303               	bcf	status, 6	;RP1=0, select bank1
 10434  12F8  0092               	movwf	(146)^080h	;volatile
 10435                           	line	1166
 10436                           	
 10437  12F9                     l4390:	
 10438                           ;PR28.c: 1166: CCPR1L = 0;
 10439  12F9  1283               	bcf	status, 5	;RP0=0, select bank0
 10440  12FA  1303               	bcf	status, 6	;RP1=0, select bank0
 10441  12FB  0195               	clrf	(21)	;volatile
 10442                           	line	1168
 10443                           	
 10444  12FC                     l4392:	
 10445                           ;PR28.c: 1168: TMR2IF = 0;
 10446  12FC  108C               	bcf	(97/8),(97)&7
 10447                           	line	1169
 10448                           	
 10449  12FD                     l4394:	
 10450                           ;PR28.c: 1169: TMR2IE = 1;
 10451  12FD  1683               	bsf	status, 5	;RP0=1, select bank1
 10452  12FE  1303               	bcf	status, 6	;RP1=0, select bank1
 10453  12FF  148C               	bsf	(1121/8)^080h,(1121)&7
 10454                           	line	1170
 10455                           ;PR28.c: 1170: T1CON = 0b11000101;
 10456  1300  30C5               	movlw	(0C5h)
 10457  1301  1283               	bcf	status, 5	;RP0=0, select bank0
 10458  1302  1303               	bcf	status, 6	;RP1=0, select bank0
 10459  1303  0090               	movwf	(16)	;volatile
 10460                           	line	1171
 10461                           ;PR28.c: 1171: T1GCON = 0b11100010;
 10462  1304  30E2               	movlw	(0E2h)
 10463  1305  1683               	bsf	status, 5	;RP0=1, select bank1
 10464  1306  1303               	bcf	status, 6	;RP1=0, select bank1
 10465  1307  008F               	movwf	(143)^080h	;volatile
 10466                           	line	1172
 10467                           	
 10468  1308                     l4396:	
 10469                           ;PR28.c: 1172: TMR1GIF = 0;
 10470  1308  1283               	bcf	status, 5	;RP0=0, select bank0
 10471  1309  1303               	bcf	status, 6	;RP1=0, select bank0
 10472  130A  138C               	bcf	(103/8),(103)&7
 10473                           	line	1173
 10474                           	
 10475  130B                     l4398:	
 10476                           ;PR28.c: 1173: TMR1GIE = 1;
 10477  130B  1683               	bsf	status, 5	;RP0=1, select bank1
 10478  130C  1303               	bcf	status, 6	;RP1=0, select bank1
 10479  130D  178C               	bsf	(1127/8)^080h,(1127)&7
 10480                           	line	1175
 10481                           	
 10482  130E                     l4400:	
 10483                           ;PR28.c: 1175: RestartTimer1();
 10484  130E  160A  158A  256C   	fcall	_RestartTimer1
              160A  118A         
 10485                           	line	1176
 10486                           	
 10487  1313                     l4402:	
 10488                           ;PR28.c: 1176: GIE = 1;
 10489  1313  178B               	bsf	(95/8),(95)&7
 10490                           	line	1177
 10491                           	
 10492  1314                     l1192:	
 10493  1314  0008               	return
 10494                           	opt stack 0
 10495                           GLOBAL	__end_of_PIEZO_S
 10496  1315                     	__end_of_PIEZO_S:
 10497 ;; =============== function _PIEZO_S ends ============
 10498                           
 10499                           	signat	_PIEZO_S,88
 10500                           	global	___bmul
 10501                           psect	text713,local,class=CODE,delta=2
 10502                           global __ptext713
 10503  1E2F                     __ptext713:
 10504                           
 10505 ;; *************** function ___bmul *****************
 10506 ;; Defined at:
 10507 ;;		line 3 in file "bmul.c"
 10508 ;; Parameters:    Size  Location     Type
 10509 ;;  multiplier      1    wreg     unsigned char 
 10510 ;;  multiplicand    1    0[BANK0 ] unsigned char 
 10511 ;; Auto vars:     Size  Location     Type
 10512 ;;  multiplier      1    3[BANK0 ] unsigned char 
 10513 ;;  product         1    2[BANK0 ] unsigned char 
 10514 ;; Return value:  Size  Location     Type
 10515 ;;                  1    wreg      unsigned char 
 10516 ;; Registers used:
 10517 ;;		wreg, status,2, status,0
 10518 ;; Tracked objects:
 10519 ;;		On entry : 0/0
 10520 ;;		On exit  : 0/0
 10521 ;;		Unchanged: 0/0
 10522 ;; Data sizes:     COMMON   BANK0   BANK1   BANK3   BANK2
 10523 ;;      Params:         0       1       0       0       0
 10524 ;;      Locals:         0       2       0       0       0
 10525 ;;      Temps:          0       1       0       0       0
 10526 ;;      Totals:         0       4       0       0       0
 10527 ;;Total ram usage:        4 bytes
 10528 ;; Hardware stack levels used:    1
 10529 ;; Hardware stack levels required when called:    3
 10530 ;; This function calls:
 10531 ;;		Nothing
 10532 ;; This function is called by:
 10533 ;;		_CapInit
 10534 ;;		_winlose
 10535 ;; This function uses a non-reentrant model
 10536 ;;
 10537                           psect	text713
 10538                           	file	"C:\Program Files\HI-TECH Software\sources\bmul.c"
 10539                           	line	3
 10540                           	global	__size_of___bmul
 10541  001F                     	__size_of___bmul	equ	__end_of___bmul-___bmul
 10542                           	
 10543  1E2F                     ___bmul:	
 10544                           	opt	stack 3
 10545                           ; Regs used in ___bmul: [wreg+status,2+status,0]
 10546                           ;___bmul@multiplier stored from wreg
 10547  1E2F  1283               	bcf	status, 5	;RP0=0, select bank0
 10548  1E30  1303               	bcf	status, 6	;RP1=0, select bank0
 10549  1E31  00D5               	movwf	(___bmul@multiplier)
 10550                           	line	4
 10551                           	
 10552  1E32                     l4312:	
 10553  1E32  1003               	clrc
 10554  1E33  3000               	movlw	0
 10555  1E34  1803               	btfsc	status,0
 10556  1E35  3001               	movlw	1
 10557  1E36  00D4               	movwf	(___bmul@product)
 10558  1E37  2E38               	goto	l4314
 10559                           	line	6
 10560                           	
 10561  1E38                     l1212:	
 10562                           	line	7
 10563                           	
 10564  1E38                     l4314:	
 10565  1E38  1C55               	btfss	(___bmul@multiplier),(0)&7
 10566  1E39  2E3B               	goto	u6391
 10567  1E3A  2E3C               	goto	u6390
 10568  1E3B                     u6391:
 10569  1E3B  2E41               	goto	l4318
 10570  1E3C                     u6390:
 10571                           	line	8
 10572                           	
 10573  1E3C                     l4316:	
 10574  1E3C  0852               	movf	(___bmul@multiplicand),w
 10575  1E3D  00D3               	movwf	(??___bmul+0)+0
 10576  1E3E  0853               	movf	(??___bmul+0)+0,w
 10577  1E3F  07D4               	addwf	(___bmul@product),f
 10578  1E40  2E41               	goto	l4318
 10579                           	
 10580  1E41                     l1213:	
 10581                           	line	9
 10582                           	
 10583  1E41                     l4318:	
 10584  1E41  1003               	clrc
 10585  1E42  0DD2               	rlf	(___bmul@multiplicand),f
 10586                           
 10587                           	line	10
 10588                           	
 10589  1E43                     l4320:	
 10590  1E43  1003               	clrc
 10591  1E44  0CD5               	rrf	(___bmul@multiplier),f
 10592                           
 10593                           	line	11
 10594                           	
 10595  1E45                     l4322:	
 10596  1E45  08D5               	movf	(___bmul@multiplier),f
 10597  1E46  1D03               	skipz
 10598  1E47  2E49               	goto	u6401
 10599  1E48  2E4A               	goto	u6400
 10600  1E49                     u6401:
 10601  1E49  2E38               	goto	l4314
 10602  1E4A                     u6400:
 10603  1E4A  2E4B               	goto	l4324
 10604                           	
 10605  1E4B                     l1214:	
 10606                           	line	12
 10607                           	
 10608  1E4B                     l4324:	
 10609  1E4B  0854               	movf	(___bmul@product),w
 10610  1E4C  2E4D               	goto	l1215
 10611                           	
 10612  1E4D                     l4326:	
 10613                           	line	13
 10614                           	
 10615  1E4D                     l1215:	
 10616  1E4D  0008               	return
 10617                           	opt stack 0
 10618                           GLOBAL	__end_of___bmul
 10619  1E4E                     	__end_of___bmul:
 10620 ;; =============== function ___bmul ends ============
 10621                           
 10622                           	signat	___bmul,8313
 10623                           	global	_led_display3
 10624                           psect	text714,local,class=CODE,delta=2
 10625                           global __ptext714
 10626  10FF                     __ptext714:
 10627                           
 10628 ;; *************** function _led_display3 *****************
 10629 ;; Defined at:
 10630 ;;		line 772 in file "C:\Users\Phang\Desktop\9.80\PR 28\PR28.c"
 10631 ;; Parameters:    Size  Location     Type
 10632 ;;  value3          1    wreg     unsigned char 
 10633 ;; Auto vars:     Size  Location     Type
 10634 ;;  value3          1    1[BANK0 ] unsigned char 
 10635 ;; Return value:  Size  Location     Type
 10636 ;;		None               void
 10637 ;; Registers used:
 10638 ;;		wreg, status,2, status,0
 10639 ;; Tracked objects:
 10640 ;;		On entry : 0/0
 10641 ;;		On exit  : 0/0
 10642 ;;		Unchanged: 0/0
 10643 ;; Data sizes:     COMMON   BANK0   BANK1   BANK3   BANK2
 10644 ;;      Params:         0       0       0       0       0
 10645 ;;      Locals:         0       1       0       0       0
 10646 ;;      Temps:          0       1       0       0       0
 10647 ;;      Totals:         0       2       0       0       0
 10648 ;;Total ram usage:        2 bytes
 10649 ;; Hardware stack levels used:    1
 10650 ;; Hardware stack levels required when called:    3
 10651 ;; This function calls:
 10652 ;;		Nothing
 10653 ;; This function is called by:
 10654 ;;		_DisplayLEDs
 10655 ;;		_draw
 10656 ;;		_led_off
 10657 ;; This function uses a non-reentrant model
 10658 ;;
 10659                           psect	text714
 10660                           	file	"C:\Users\Phang\Desktop\9.80\PR 28\PR28.c"
 10661                           	line	772
 10662                           	global	__size_of_led_display3
 10663  0086                     	__size_of_led_display3	equ	__end_of_led_display3-_led_display3
 10664                           	
 10665  10FF                     _led_display3:	
 10666                           	opt	stack 2
 10667                           ; Regs used in _led_display3: [wreg+status,2+status,0]
 10668                           ;led_display3@value3 stored from wreg
 10669  10FF  1283               	bcf	status, 5	;RP0=0, select bank0
 10670  1100  1303               	bcf	status, 6	;RP1=0, select bank0
 10671  1101  00D3               	movwf	(led_display3@value3)
 10672                           	line	773
 10673                           	
 10674  1102                     l4280:	
 10675                           ;PR28.c: 773: if((value3&0b00000001)==1) RA1=1;
 10676  1102  1C53               	btfss	(led_display3@value3),(0)&7
 10677  1103  2905               	goto	u6241
 10678  1104  2906               	goto	u6240
 10679  1105                     u6241:
 10680  1105  2908               	goto	l1128
 10681  1106                     u6240:
 10682                           	
 10683  1106                     l4282:	
 10684  1106  1485               	bsf	(41/8),(41)&7
 10685  1107  2909               	goto	l1129
 10686                           	line	774
 10687                           	
 10688  1108                     l1128:	
 10689                           ;PR28.c: 774: else RA1=0;
 10690  1108  1085               	bcf	(41/8),(41)&7
 10691                           	
 10692  1109                     l1129:	
 10693                           	line	775
 10694                           ;PR28.c: 775: RA3=1;
 10695  1109  1585               	bsf	(43/8),(43)&7
 10696                           	line	776
 10697                           ;PR28.c: 776: RA3=0;
 10698  110A  1185               	bcf	(43/8),(43)&7
 10699                           	line	778
 10700                           	
 10701  110B                     l4284:	
 10702                           ;PR28.c: 778: if(((value3&0b00000010)>>1)==1) RA1=1;
 10703  110B  0853               	movf	(led_display3@value3),w
 10704  110C  00D2               	movwf	(??_led_display3+0)+0
 10705  110D  3001               	movlw	01h
 10706  110E                     u6255:
 10707  110E  1003               	clrc
 10708  110F  0CD2               	rrf	(??_led_display3+0)+0,f
 10709  1110  3EFF               	addlw	-1
 10710  1111  1D03               	skipz
 10711  1112  290E               	goto	u6255
 10712  1113  1C52               	btfss	0+(??_led_display3+0)+0,(0)&7
 10713  1114  2916               	goto	u6261
 10714  1115  2917               	goto	u6260
 10715  1116                     u6261:
 10716  1116  2919               	goto	l1130
 10717  1117                     u6260:
 10718                           	
 10719  1117                     l4286:	
 10720  1117  1485               	bsf	(41/8),(41)&7
 10721  1118  291A               	goto	l1131
 10722                           	line	779
 10723                           	
 10724  1119                     l1130:	
 10725                           ;PR28.c: 779: else RA1=0;
 10726  1119  1085               	bcf	(41/8),(41)&7
 10727                           	
 10728  111A                     l1131:	
 10729                           	line	780
 10730                           ;PR28.c: 780: RA3=1;
 10731  111A  1585               	bsf	(43/8),(43)&7
 10732                           	line	781
 10733                           ;PR28.c: 781: RA3=0;
 10734  111B  1185               	bcf	(43/8),(43)&7
 10735                           	line	783
 10736                           	
 10737  111C                     l4288:	
 10738                           ;PR28.c: 783: if(((value3&0b00000100)>>2)==1) RA1=1;
 10739  111C  0853               	movf	(led_display3@value3),w
 10740  111D  00D2               	movwf	(??_led_display3+0)+0
 10741  111E  3002               	movlw	02h
 10742  111F                     u6275:
 10743  111F  1003               	clrc
 10744  1120  0CD2               	rrf	(??_led_display3+0)+0,f
 10745  1121  3EFF               	addlw	-1
 10746  1122  1D03               	skipz
 10747  1123  291F               	goto	u6275
 10748  1124  1C52               	btfss	0+(??_led_display3+0)+0,(0)&7
 10749  1125  2927               	goto	u6281
 10750  1126  2928               	goto	u6280
 10751  1127                     u6281:
 10752  1127  292A               	goto	l1132
 10753  1128                     u6280:
 10754                           	
 10755  1128                     l4290:	
 10756  1128  1485               	bsf	(41/8),(41)&7
 10757  1129  292B               	goto	l1133
 10758                           	line	784
 10759                           	
 10760  112A                     l1132:	
 10761                           ;PR28.c: 784: else RA1=0;
 10762  112A  1085               	bcf	(41/8),(41)&7
 10763                           	
 10764  112B                     l1133:	
 10765                           	line	785
 10766                           ;PR28.c: 785: RA3=1;
 10767  112B  1585               	bsf	(43/8),(43)&7
 10768                           	line	786
 10769                           ;PR28.c: 786: RA3=0;
 10770  112C  1185               	bcf	(43/8),(43)&7
 10771                           	line	788
 10772                           	
 10773  112D                     l4292:	
 10774                           ;PR28.c: 788: if(((value3&0b00001000)>>3)==1) RA1=1;
 10775  112D  0853               	movf	(led_display3@value3),w
 10776  112E  00D2               	movwf	(??_led_display3+0)+0
 10777  112F  3003               	movlw	03h
 10778  1130                     u6295:
 10779  1130  1003               	clrc
 10780  1131  0CD2               	rrf	(??_led_display3+0)+0,f
 10781  1132  3EFF               	addlw	-1
 10782  1133  1D03               	skipz
 10783  1134  2930               	goto	u6295
 10784  1135  1C52               	btfss	0+(??_led_display3+0)+0,(0)&7
 10785  1136  2938               	goto	u6301
 10786  1137  2939               	goto	u6300
 10787  1138                     u6301:
 10788  1138  293B               	goto	l1134
 10789  1139                     u6300:
 10790                           	
 10791  1139                     l4294:	
 10792  1139  1485               	bsf	(41/8),(41)&7
 10793  113A  293C               	goto	l1135
 10794                           	line	789
 10795                           	
 10796  113B                     l1134:	
 10797                           ;PR28.c: 789: else RA1=0;
 10798  113B  1085               	bcf	(41/8),(41)&7
 10799                           	
 10800  113C                     l1135:	
 10801                           	line	790
 10802                           ;PR28.c: 790: RA3=1;
 10803  113C  1585               	bsf	(43/8),(43)&7
 10804                           	line	791
 10805                           ;PR28.c: 791: RA3=0;
 10806  113D  1185               	bcf	(43/8),(43)&7
 10807                           	line	793
 10808                           	
 10809  113E                     l4296:	
 10810                           ;PR28.c: 793: if(((value3&0b00010000)>>4)==1) RA1=1;
 10811  113E  0853               	movf	(led_display3@value3),w
 10812  113F  00D2               	movwf	(??_led_display3+0)+0
 10813  1140  3004               	movlw	04h
 10814  1141                     u6315:
 10815  1141  1003               	clrc
 10816  1142  0CD2               	rrf	(??_led_display3+0)+0,f
 10817  1143  3EFF               	addlw	-1
 10818  1144  1D03               	skipz
 10819  1145  2941               	goto	u6315
 10820  1146  1C52               	btfss	0+(??_led_display3+0)+0,(0)&7
 10821  1147  2949               	goto	u6321
 10822  1148  294A               	goto	u6320
 10823  1149                     u6321:
 10824  1149  294C               	goto	l1136
 10825  114A                     u6320:
 10826                           	
 10827  114A                     l4298:	
 10828  114A  1485               	bsf	(41/8),(41)&7
 10829  114B  294D               	goto	l1137
 10830                           	line	794
 10831                           	
 10832  114C                     l1136:	
 10833                           ;PR28.c: 794: else RA1=0;
 10834  114C  1085               	bcf	(41/8),(41)&7
 10835                           	
 10836  114D                     l1137:	
 10837                           	line	795
 10838                           ;PR28.c: 795: RA3=1;
 10839  114D  1585               	bsf	(43/8),(43)&7
 10840                           	line	796
 10841                           ;PR28.c: 796: RA3=0;
 10842  114E  1185               	bcf	(43/8),(43)&7
 10843                           	line	798
 10844                           	
 10845  114F                     l4300:	
 10846                           ;PR28.c: 798: if(((value3&0b00100000)>>5)==1) RA1=1;
 10847  114F  0853               	movf	(led_display3@value3),w
 10848  1150  00D2               	movwf	(??_led_display3+0)+0
 10849  1151  3005               	movlw	05h
 10850  1152                     u6335:
 10851  1152  1003               	clrc
 10852  1153  0CD2               	rrf	(??_led_display3+0)+0,f
 10853  1154  3EFF               	addlw	-1
 10854  1155  1D03               	skipz
 10855  1156  2952               	goto	u6335
 10856  1157  1C52               	btfss	0+(??_led_display3+0)+0,(0)&7
 10857  1158  295A               	goto	u6341
 10858  1159  295B               	goto	u6340
 10859  115A                     u6341:
 10860  115A  295D               	goto	l1138
 10861  115B                     u6340:
 10862                           	
 10863  115B                     l4302:	
 10864  115B  1485               	bsf	(41/8),(41)&7
 10865  115C  295E               	goto	l1139
 10866                           	line	799
 10867                           	
 10868  115D                     l1138:	
 10869                           ;PR28.c: 799: else RA1=0;
 10870  115D  1085               	bcf	(41/8),(41)&7
 10871                           	
 10872  115E                     l1139:	
 10873                           	line	800
 10874                           ;PR28.c: 800: RA3=1;
 10875  115E  1585               	bsf	(43/8),(43)&7
 10876                           	line	801
 10877                           ;PR28.c: 801: RA3=0;
 10878  115F  1185               	bcf	(43/8),(43)&7
 10879                           	line	803
 10880                           	
 10881  1160                     l4304:	
 10882                           ;PR28.c: 803: if(((value3&0b01000000)>>6)==1) RA1=1;
 10883  1160  0853               	movf	(led_display3@value3),w
 10884  1161  00D2               	movwf	(??_led_display3+0)+0
 10885  1162  3006               	movlw	06h
 10886  1163                     u6355:
 10887  1163  1003               	clrc
 10888  1164  0CD2               	rrf	(??_led_display3+0)+0,f
 10889  1165  3EFF               	addlw	-1
 10890  1166  1D03               	skipz
 10891  1167  2963               	goto	u6355
 10892  1168  1C52               	btfss	0+(??_led_display3+0)+0,(0)&7
 10893  1169  296B               	goto	u6361
 10894  116A  296C               	goto	u6360
 10895  116B                     u6361:
 10896  116B  296E               	goto	l1140
 10897  116C                     u6360:
 10898                           	
 10899  116C                     l4306:	
 10900  116C  1485               	bsf	(41/8),(41)&7
 10901  116D  296F               	goto	l1141
 10902                           	line	804
 10903                           	
 10904  116E                     l1140:	
 10905                           ;PR28.c: 804: else RA1=0;
 10906  116E  1085               	bcf	(41/8),(41)&7
 10907                           	
 10908  116F                     l1141:	
 10909                           	line	805
 10910                           ;PR28.c: 805: RA3=1;
 10911  116F  1585               	bsf	(43/8),(43)&7
 10912                           	line	806
 10913                           ;PR28.c: 806: RA3=0;
 10914  1170  1185               	bcf	(43/8),(43)&7
 10915                           	line	808
 10916                           	
 10917  1171                     l4308:	
 10918                           ;PR28.c: 808: if(((value3&0b10000000)>>7)==1) RA1=1;
 10919  1171  0853               	movf	(led_display3@value3),w
 10920  1172  00D2               	movwf	(??_led_display3+0)+0
 10921  1173  3007               	movlw	07h
 10922  1174                     u6375:
 10923  1174  1003               	clrc
 10924  1175  0CD2               	rrf	(??_led_display3+0)+0,f
 10925  1176  3EFF               	addlw	-1
 10926  1177  1D03               	skipz
 10927  1178  2974               	goto	u6375
 10928  1179  1C52               	btfss	0+(??_led_display3+0)+0,(0)&7
 10929  117A  297C               	goto	u6381
 10930  117B  297D               	goto	u6380
 10931  117C                     u6381:
 10932  117C  297F               	goto	l1142
 10933  117D                     u6380:
 10934                           	
 10935  117D                     l4310:	
 10936  117D  1485               	bsf	(41/8),(41)&7
 10937  117E  2980               	goto	l1143
 10938                           	line	809
 10939                           	
 10940  117F                     l1142:	
 10941                           ;PR28.c: 809: else RA1=0;
 10942  117F  1085               	bcf	(41/8),(41)&7
 10943                           	
 10944  1180                     l1143:	
 10945                           	line	810
 10946                           ;PR28.c: 810: RA3=1;
 10947  1180  1585               	bsf	(43/8),(43)&7
 10948                           	line	811
 10949                           ;PR28.c: 811: RA3=0;
 10950  1181  1185               	bcf	(43/8),(43)&7
 10951                           	line	813
 10952                           ;PR28.c: 813: RA2=1;
 10953  1182  1505               	bsf	(42/8),(42)&7
 10954                           	line	814
 10955                           ;PR28.c: 814: RA2=0;
 10956  1183  1105               	bcf	(42/8),(42)&7
 10957                           	line	815
 10958                           	
 10959  1184                     l1144:	
 10960  1184  0008               	return
 10961                           	opt stack 0
 10962                           GLOBAL	__end_of_led_display3
 10963  1185                     	__end_of_led_display3:
 10964 ;; =============== function _led_display3 ends ============
 10965                           
 10966                           	signat	_led_display3,4216
 10967                           	global	_led_display2
 10968                           psect	text715,local,class=CODE,delta=2
 10969                           global __ptext715
 10970  1079                     __ptext715:
 10971                           
 10972 ;; *************** function _led_display2 *****************
 10973 ;; Defined at:
 10974 ;;		line 722 in file "C:\Users\Phang\Desktop\9.80\PR 28\PR28.c"
 10975 ;; Parameters:    Size  Location     Type
 10976 ;;  value2          1    wreg     unsigned char 
 10977 ;; Auto vars:     Size  Location     Type
 10978 ;;  value2          1    1[BANK0 ] unsigned char 
 10979 ;; Return value:  Size  Location     Type
 10980 ;;		None               void
 10981 ;; Registers used:
 10982 ;;		wreg, status,2, status,0
 10983 ;; Tracked objects:
 10984 ;;		On entry : 0/0
 10985 ;;		On exit  : 0/0
 10986 ;;		Unchanged: 0/0
 10987 ;; Data sizes:     COMMON   BANK0   BANK1   BANK3   BANK2
 10988 ;;      Params:         0       0       0       0       0
 10989 ;;      Locals:         0       1       0       0       0
 10990 ;;      Temps:          0       1       0       0       0
 10991 ;;      Totals:         0       2       0       0       0
 10992 ;;Total ram usage:        2 bytes
 10993 ;; Hardware stack levels used:    1
 10994 ;; Hardware stack levels required when called:    3
 10995 ;; This function calls:
 10996 ;;		Nothing
 10997 ;; This function is called by:
 10998 ;;		_DisplayLEDs
 10999 ;;		_draw
 11000 ;;		_led_off
 11001 ;; This function uses a non-reentrant model
 11002 ;;
 11003                           psect	text715
 11004                           	file	"C:\Users\Phang\Desktop\9.80\PR 28\PR28.c"
 11005                           	line	722
 11006                           	global	__size_of_led_display2
 11007  0086                     	__size_of_led_display2	equ	__end_of_led_display2-_led_display2
 11008                           	
 11009  1079                     _led_display2:	
 11010                           	opt	stack 2
 11011                           ; Regs used in _led_display2: [wreg+status,2+status,0]
 11012                           ;led_display2@value2 stored from wreg
 11013  1079  1283               	bcf	status, 5	;RP0=0, select bank0
 11014  107A  1303               	bcf	status, 6	;RP1=0, select bank0
 11015  107B  00D3               	movwf	(led_display2@value2)
 11016                           	line	723
 11017                           	
 11018  107C                     l4248:	
 11019                           ;PR28.c: 723: if((value2&0b00000001)==1) RA5=1;
 11020  107C  1C53               	btfss	(led_display2@value2),(0)&7
 11021  107D  287F               	goto	u6091
 11022  107E  2880               	goto	u6090
 11023  107F                     u6091:
 11024  107F  2882               	goto	l1109
 11025  1080                     u6090:
 11026                           	
 11027  1080                     l4250:	
 11028  1080  1685               	bsf	(45/8),(45)&7
 11029  1081  2883               	goto	l1110
 11030                           	line	724
 11031                           	
 11032  1082                     l1109:	
 11033                           ;PR28.c: 724: else RA5=0;
 11034  1082  1285               	bcf	(45/8),(45)&7
 11035                           	
 11036  1083                     l1110:	
 11037                           	line	725
 11038                           ;PR28.c: 725: RC0=1;
 11039  1083  1407               	bsf	(56/8),(56)&7
 11040                           	line	726
 11041                           ;PR28.c: 726: RC0=0;
 11042  1084  1007               	bcf	(56/8),(56)&7
 11043                           	line	728
 11044                           	
 11045  1085                     l4252:	
 11046                           ;PR28.c: 728: if(((value2&0b00000010)>>1)==1) RA5=1;
 11047  1085  0853               	movf	(led_display2@value2),w
 11048  1086  00D2               	movwf	(??_led_display2+0)+0
 11049  1087  3001               	movlw	01h
 11050  1088                     u6105:
 11051  1088  1003               	clrc
 11052  1089  0CD2               	rrf	(??_led_display2+0)+0,f
 11053  108A  3EFF               	addlw	-1
 11054  108B  1D03               	skipz
 11055  108C  2888               	goto	u6105
 11056  108D  1C52               	btfss	0+(??_led_display2+0)+0,(0)&7
 11057  108E  2890               	goto	u6111
 11058  108F  2891               	goto	u6110
 11059  1090                     u6111:
 11060  1090  2893               	goto	l1111
 11061  1091                     u6110:
 11062                           	
 11063  1091                     l4254:	
 11064  1091  1685               	bsf	(45/8),(45)&7
 11065  1092  2894               	goto	l1112
 11066                           	line	729
 11067                           	
 11068  1093                     l1111:	
 11069                           ;PR28.c: 729: else RA5=0;
 11070  1093  1285               	bcf	(45/8),(45)&7
 11071                           	
 11072  1094                     l1112:	
 11073                           	line	730
 11074                           ;PR28.c: 730: RC0=1;
 11075  1094  1407               	bsf	(56/8),(56)&7
 11076                           	line	731
 11077                           ;PR28.c: 731: RC0=0;
 11078  1095  1007               	bcf	(56/8),(56)&7
 11079                           	line	733
 11080                           	
 11081  1096                     l4256:	
 11082                           ;PR28.c: 733: if(((value2&0b00000100)>>2)==1) RA5=1;
 11083  1096  0853               	movf	(led_display2@value2),w
 11084  1097  00D2               	movwf	(??_led_display2+0)+0
 11085  1098  3002               	movlw	02h
 11086  1099                     u6125:
 11087  1099  1003               	clrc
 11088  109A  0CD2               	rrf	(??_led_display2+0)+0,f
 11089  109B  3EFF               	addlw	-1
 11090  109C  1D03               	skipz
 11091  109D  2899               	goto	u6125
 11092  109E  1C52               	btfss	0+(??_led_display2+0)+0,(0)&7
 11093  109F  28A1               	goto	u6131
 11094  10A0  28A2               	goto	u6130
 11095  10A1                     u6131:
 11096  10A1  28A4               	goto	l1113
 11097  10A2                     u6130:
 11098                           	
 11099  10A2                     l4258:	
 11100  10A2  1685               	bsf	(45/8),(45)&7
 11101  10A3  28A5               	goto	l1114
 11102                           	line	734
 11103                           	
 11104  10A4                     l1113:	
 11105                           ;PR28.c: 734: else RA5=0;
 11106  10A4  1285               	bcf	(45/8),(45)&7
 11107                           	
 11108  10A5                     l1114:	
 11109                           	line	735
 11110                           ;PR28.c: 735: RC0=1;
 11111  10A5  1407               	bsf	(56/8),(56)&7
 11112                           	line	736
 11113                           ;PR28.c: 736: RC0=0;
 11114  10A6  1007               	bcf	(56/8),(56)&7
 11115                           	line	738
 11116                           	
 11117  10A7                     l4260:	
 11118                           ;PR28.c: 738: if(((value2&0b00001000)>>3)==1) RA5=1;
 11119  10A7  0853               	movf	(led_display2@value2),w
 11120  10A8  00D2               	movwf	(??_led_display2+0)+0
 11121  10A9  3003               	movlw	03h
 11122  10AA                     u6145:
 11123  10AA  1003               	clrc
 11124  10AB  0CD2               	rrf	(??_led_display2+0)+0,f
 11125  10AC  3EFF               	addlw	-1
 11126  10AD  1D03               	skipz
 11127  10AE  28AA               	goto	u6145
 11128  10AF  1C52               	btfss	0+(??_led_display2+0)+0,(0)&7
 11129  10B0  28B2               	goto	u6151
 11130  10B1  28B3               	goto	u6150
 11131  10B2                     u6151:
 11132  10B2  28B5               	goto	l1115
 11133  10B3                     u6150:
 11134                           	
 11135  10B3                     l4262:	
 11136  10B3  1685               	bsf	(45/8),(45)&7
 11137  10B4  28B6               	goto	l1116
 11138                           	line	739
 11139                           	
 11140  10B5                     l1115:	
 11141                           ;PR28.c: 739: else RA5=0;
 11142  10B5  1285               	bcf	(45/8),(45)&7
 11143                           	
 11144  10B6                     l1116:	
 11145                           	line	740
 11146                           ;PR28.c: 740: RC0=1;
 11147  10B6  1407               	bsf	(56/8),(56)&7
 11148                           	line	741
 11149                           ;PR28.c: 741: RC0=0;
 11150  10B7  1007               	bcf	(56/8),(56)&7
 11151                           	line	743
 11152                           	
 11153  10B8                     l4264:	
 11154                           ;PR28.c: 743: if(((value2&0b00010000)>>4)==1) RA5=1;
 11155  10B8  0853               	movf	(led_display2@value2),w
 11156  10B9  00D2               	movwf	(??_led_display2+0)+0
 11157  10BA  3004               	movlw	04h
 11158  10BB                     u6165:
 11159  10BB  1003               	clrc
 11160  10BC  0CD2               	rrf	(??_led_display2+0)+0,f
 11161  10BD  3EFF               	addlw	-1
 11162  10BE  1D03               	skipz
 11163  10BF  28BB               	goto	u6165
 11164  10C0  1C52               	btfss	0+(??_led_display2+0)+0,(0)&7
 11165  10C1  28C3               	goto	u6171
 11166  10C2  28C4               	goto	u6170
 11167  10C3                     u6171:
 11168  10C3  28C6               	goto	l1117
 11169  10C4                     u6170:
 11170                           	
 11171  10C4                     l4266:	
 11172  10C4  1685               	bsf	(45/8),(45)&7
 11173  10C5  28C7               	goto	l1118
 11174                           	line	744
 11175                           	
 11176  10C6                     l1117:	
 11177                           ;PR28.c: 744: else RA5=0;
 11178  10C6  1285               	bcf	(45/8),(45)&7
 11179                           	
 11180  10C7                     l1118:	
 11181                           	line	745
 11182                           ;PR28.c: 745: RC0=1;
 11183  10C7  1407               	bsf	(56/8),(56)&7
 11184                           	line	746
 11185                           ;PR28.c: 746: RC0=0;
 11186  10C8  1007               	bcf	(56/8),(56)&7
 11187                           	line	748
 11188                           	
 11189  10C9                     l4268:	
 11190                           ;PR28.c: 748: if(((value2&0b00100000)>>5)==1) RA5=1;
 11191  10C9  0853               	movf	(led_display2@value2),w
 11192  10CA  00D2               	movwf	(??_led_display2+0)+0
 11193  10CB  3005               	movlw	05h
 11194  10CC                     u6185:
 11195  10CC  1003               	clrc
 11196  10CD  0CD2               	rrf	(??_led_display2+0)+0,f
 11197  10CE  3EFF               	addlw	-1
 11198  10CF  1D03               	skipz
 11199  10D0  28CC               	goto	u6185
 11200  10D1  1C52               	btfss	0+(??_led_display2+0)+0,(0)&7
 11201  10D2  28D4               	goto	u6191
 11202  10D3  28D5               	goto	u6190
 11203  10D4                     u6191:
 11204  10D4  28D7               	goto	l1119
 11205  10D5                     u6190:
 11206                           	
 11207  10D5                     l4270:	
 11208  10D5  1685               	bsf	(45/8),(45)&7
 11209  10D6  28D8               	goto	l1120
 11210                           	line	749
 11211                           	
 11212  10D7                     l1119:	
 11213                           ;PR28.c: 749: else RA5=0;
 11214  10D7  1285               	bcf	(45/8),(45)&7
 11215                           	
 11216  10D8                     l1120:	
 11217                           	line	750
 11218                           ;PR28.c: 750: RC0=1;
 11219  10D8  1407               	bsf	(56/8),(56)&7
 11220                           	line	751
 11221                           ;PR28.c: 751: RC0=0;
 11222  10D9  1007               	bcf	(56/8),(56)&7
 11223                           	line	753
 11224                           	
 11225  10DA                     l4272:	
 11226                           ;PR28.c: 753: if(((value2&0b01000000)>>6)==1) RA5=1;
 11227  10DA  0853               	movf	(led_display2@value2),w
 11228  10DB  00D2               	movwf	(??_led_display2+0)+0
 11229  10DC  3006               	movlw	06h
 11230  10DD                     u6205:
 11231  10DD  1003               	clrc
 11232  10DE  0CD2               	rrf	(??_led_display2+0)+0,f
 11233  10DF  3EFF               	addlw	-1
 11234  10E0  1D03               	skipz
 11235  10E1  28DD               	goto	u6205
 11236  10E2  1C52               	btfss	0+(??_led_display2+0)+0,(0)&7
 11237  10E3  28E5               	goto	u6211
 11238  10E4  28E6               	goto	u6210
 11239  10E5                     u6211:
 11240  10E5  28E8               	goto	l1121
 11241  10E6                     u6210:
 11242                           	
 11243  10E6                     l4274:	
 11244  10E6  1685               	bsf	(45/8),(45)&7
 11245  10E7  28E9               	goto	l1122
 11246                           	line	754
 11247                           	
 11248  10E8                     l1121:	
 11249                           ;PR28.c: 754: else RA5=0;
 11250  10E8  1285               	bcf	(45/8),(45)&7
 11251                           	
 11252  10E9                     l1122:	
 11253                           	line	755
 11254                           ;PR28.c: 755: RC0=1;
 11255  10E9  1407               	bsf	(56/8),(56)&7
 11256                           	line	756
 11257                           ;PR28.c: 756: RC0=0;
 11258  10EA  1007               	bcf	(56/8),(56)&7
 11259                           	line	758
 11260                           	
 11261  10EB                     l4276:	
 11262                           ;PR28.c: 758: if(((value2&0b10000000)>>7)==1) RA5=1;
 11263  10EB  0853               	movf	(led_display2@value2),w
 11264  10EC  00D2               	movwf	(??_led_display2+0)+0
 11265  10ED  3007               	movlw	07h
 11266  10EE                     u6225:
 11267  10EE  1003               	clrc
 11268  10EF  0CD2               	rrf	(??_led_display2+0)+0,f
 11269  10F0  3EFF               	addlw	-1
 11270  10F1  1D03               	skipz
 11271  10F2  28EE               	goto	u6225
 11272  10F3  1C52               	btfss	0+(??_led_display2+0)+0,(0)&7
 11273  10F4  28F6               	goto	u6231
 11274  10F5  28F7               	goto	u6230
 11275  10F6                     u6231:
 11276  10F6  28F9               	goto	l1123
 11277  10F7                     u6230:
 11278                           	
 11279  10F7                     l4278:	
 11280  10F7  1685               	bsf	(45/8),(45)&7
 11281  10F8  28FA               	goto	l1124
 11282                           	line	759
 11283                           	
 11284  10F9                     l1123:	
 11285                           ;PR28.c: 759: else RA5=0;
 11286  10F9  1285               	bcf	(45/8),(45)&7
 11287                           	
 11288  10FA                     l1124:	
 11289                           	line	760
 11290                           ;PR28.c: 760: RC0=1;
 11291  10FA  1407               	bsf	(56/8),(56)&7
 11292                           	line	761
 11293                           ;PR28.c: 761: RC0=0;
 11294  10FB  1007               	bcf	(56/8),(56)&7
 11295                           	line	763
 11296                           ;PR28.c: 763: RE2=1;
 11297  10FC  1509               	bsf	(74/8),(74)&7
 11298                           	line	764
 11299                           ;PR28.c: 764: RE2=0;
 11300  10FD  1109               	bcf	(74/8),(74)&7
 11301                           	line	765
 11302                           	
 11303  10FE                     l1125:	
 11304  10FE  0008               	return
 11305                           	opt stack 0
 11306                           GLOBAL	__end_of_led_display2
 11307  10FF                     	__end_of_led_display2:
 11308 ;; =============== function _led_display2 ends ============
 11309                           
 11310                           	signat	_led_display2,4216
 11311                           	global	_led_display1
 11312                           psect	text716,local,class=CODE,delta=2
 11313                           global __ptext716
 11314  1F7A                     __ptext716:
 11315                           
 11316 ;; *************** function _led_display1 *****************
 11317 ;; Defined at:
 11318 ;;		line 672 in file "C:\Users\Phang\Desktop\9.80\PR 28\PR28.c"
 11319 ;; Parameters:    Size  Location     Type
 11320 ;;  value1          1    wreg     unsigned char 
 11321 ;; Auto vars:     Size  Location     Type
 11322 ;;  value1          1    1[BANK0 ] unsigned char 
 11323 ;; Return value:  Size  Location     Type
 11324 ;;		None               void
 11325 ;; Registers used:
 11326 ;;		wreg, status,2, status,0
 11327 ;; Tracked objects:
 11328 ;;		On entry : 0/0
 11329 ;;		On exit  : 0/0
 11330 ;;		Unchanged: 0/0
 11331 ;; Data sizes:     COMMON   BANK0   BANK1   BANK3   BANK2
 11332 ;;      Params:         0       0       0       0       0
 11333 ;;      Locals:         0       1       0       0       0
 11334 ;;      Temps:          0       1       0       0       0
 11335 ;;      Totals:         0       2       0       0       0
 11336 ;;Total ram usage:        2 bytes
 11337 ;; Hardware stack levels used:    1
 11338 ;; Hardware stack levels required when called:    3
 11339 ;; This function calls:
 11340 ;;		Nothing
 11341 ;; This function is called by:
 11342 ;;		_DisplayLEDs
 11343 ;;		_draw
 11344 ;;		_led_off
 11345 ;; This function uses a non-reentrant model
 11346 ;;
 11347                           psect	text716
 11348                           	file	"C:\Users\Phang\Desktop\9.80\PR 28\PR28.c"
 11349                           	line	672
 11350                           	global	__size_of_led_display1
 11351  0086                     	__size_of_led_display1	equ	__end_of_led_display1-_led_display1
 11352                           	
 11353  1F7A                     _led_display1:	
 11354                           	opt	stack 2
 11355                           ; Regs used in _led_display1: [wreg+status,2+status,0]
 11356                           ;led_display1@value1 stored from wreg
 11357  1F7A  1283               	bcf	status, 5	;RP0=0, select bank0
 11358  1F7B  1303               	bcf	status, 6	;RP1=0, select bank0
 11359  1F7C  00D3               	movwf	(led_display1@value1)
 11360                           	line	673
 11361                           	
 11362  1F7D                     l4216:	
 11363                           ;PR28.c: 673: if((value1&0b00000001)==1) RC1=1;
 11364  1F7D  1C53               	btfss	(led_display1@value1),(0)&7
 11365  1F7E  2F80               	goto	u5941
 11366  1F7F  2F81               	goto	u5940
 11367  1F80                     u5941:
 11368  1F80  2F83               	goto	l1090
 11369  1F81                     u5940:
 11370                           	
 11371  1F81                     l4218:	
 11372  1F81  1487               	bsf	(57/8),(57)&7
 11373  1F82  2F84               	goto	l1091
 11374                           	line	674
 11375                           	
 11376  1F83                     l1090:	
 11377                           ;PR28.c: 674: else RC1=0;
 11378  1F83  1087               	bcf	(57/8),(57)&7
 11379                           	
 11380  1F84                     l1091:	
 11381                           	line	675
 11382                           ;PR28.c: 675: RC3=1;
 11383  1F84  1587               	bsf	(59/8),(59)&7
 11384                           	line	676
 11385                           ;PR28.c: 676: RC3=0;
 11386  1F85  1187               	bcf	(59/8),(59)&7
 11387                           	line	678
 11388                           	
 11389  1F86                     l4220:	
 11390                           ;PR28.c: 678: if(((value1&0b00000010)>>1)==1) RC1=1;
 11391  1F86  0853               	movf	(led_display1@value1),w
 11392  1F87  00D2               	movwf	(??_led_display1+0)+0
 11393  1F88  3001               	movlw	01h
 11394  1F89                     u5955:
 11395  1F89  1003               	clrc
 11396  1F8A  0CD2               	rrf	(??_led_display1+0)+0,f
 11397  1F8B  3EFF               	addlw	-1
 11398  1F8C  1D03               	skipz
 11399  1F8D  2F89               	goto	u5955
 11400  1F8E  1C52               	btfss	0+(??_led_display1+0)+0,(0)&7
 11401  1F8F  2F91               	goto	u5961
 11402  1F90  2F92               	goto	u5960
 11403  1F91                     u5961:
 11404  1F91  2F94               	goto	l1092
 11405  1F92                     u5960:
 11406                           	
 11407  1F92                     l4222:	
 11408  1F92  1487               	bsf	(57/8),(57)&7
 11409  1F93  2F95               	goto	l1093
 11410                           	line	679
 11411                           	
 11412  1F94                     l1092:	
 11413                           ;PR28.c: 679: else RC1=0;
 11414  1F94  1087               	bcf	(57/8),(57)&7
 11415                           	
 11416  1F95                     l1093:	
 11417                           	line	680
 11418                           ;PR28.c: 680: RC3=1;
 11419  1F95  1587               	bsf	(59/8),(59)&7
 11420                           	line	681
 11421                           ;PR28.c: 681: RC3=0;
 11422  1F96  1187               	bcf	(59/8),(59)&7
 11423                           	line	683
 11424                           	
 11425  1F97                     l4224:	
 11426                           ;PR28.c: 683: if(((value1&0b00000100)>>2)==1) RC1=1;
 11427  1F97  0853               	movf	(led_display1@value1),w
 11428  1F98  00D2               	movwf	(??_led_display1+0)+0
 11429  1F99  3002               	movlw	02h
 11430  1F9A                     u5975:
 11431  1F9A  1003               	clrc
 11432  1F9B  0CD2               	rrf	(??_led_display1+0)+0,f
 11433  1F9C  3EFF               	addlw	-1
 11434  1F9D  1D03               	skipz
 11435  1F9E  2F9A               	goto	u5975
 11436  1F9F  1C52               	btfss	0+(??_led_display1+0)+0,(0)&7
 11437  1FA0  2FA2               	goto	u5981
 11438  1FA1  2FA3               	goto	u5980
 11439  1FA2                     u5981:
 11440  1FA2  2FA5               	goto	l1094
 11441  1FA3                     u5980:
 11442                           	
 11443  1FA3                     l4226:	
 11444  1FA3  1487               	bsf	(57/8),(57)&7
 11445  1FA4  2FA6               	goto	l1095
 11446                           	line	684
 11447                           	
 11448  1FA5                     l1094:	
 11449                           ;PR28.c: 684: else RC1=0;
 11450  1FA5  1087               	bcf	(57/8),(57)&7
 11451                           	
 11452  1FA6                     l1095:	
 11453                           	line	685
 11454                           ;PR28.c: 685: RC3=1;
 11455  1FA6  1587               	bsf	(59/8),(59)&7
 11456                           	line	686
 11457                           ;PR28.c: 686: RC3=0;
 11458  1FA7  1187               	bcf	(59/8),(59)&7
 11459                           	line	688
 11460                           	
 11461  1FA8                     l4228:	
 11462                           ;PR28.c: 688: if(((value1&0b00001000)>>3)==1) RC1=1;
 11463  1FA8  0853               	movf	(led_display1@value1),w
 11464  1FA9  00D2               	movwf	(??_led_display1+0)+0
 11465  1FAA  3003               	movlw	03h
 11466  1FAB                     u5995:
 11467  1FAB  1003               	clrc
 11468  1FAC  0CD2               	rrf	(??_led_display1+0)+0,f
 11469  1FAD  3EFF               	addlw	-1
 11470  1FAE  1D03               	skipz
 11471  1FAF  2FAB               	goto	u5995
 11472  1FB0  1C52               	btfss	0+(??_led_display1+0)+0,(0)&7
 11473  1FB1  2FB3               	goto	u6001
 11474  1FB2  2FB4               	goto	u6000
 11475  1FB3                     u6001:
 11476  1FB3  2FB6               	goto	l1096
 11477  1FB4                     u6000:
 11478                           	
 11479  1FB4                     l4230:	
 11480  1FB4  1487               	bsf	(57/8),(57)&7
 11481  1FB5  2FB7               	goto	l1097
 11482                           	line	689
 11483                           	
 11484  1FB6                     l1096:	
 11485                           ;PR28.c: 689: else RC1=0;
 11486  1FB6  1087               	bcf	(57/8),(57)&7
 11487                           	
 11488  1FB7                     l1097:	
 11489                           	line	690
 11490                           ;PR28.c: 690: RC3=1;
 11491  1FB7  1587               	bsf	(59/8),(59)&7
 11492                           	line	691
 11493                           ;PR28.c: 691: RC3=0;
 11494  1FB8  1187               	bcf	(59/8),(59)&7
 11495                           	line	693
 11496                           	
 11497  1FB9                     l4232:	
 11498                           ;PR28.c: 693: if(((value1&0b00010000)>>4)==1) RC1=1;
 11499  1FB9  0853               	movf	(led_display1@value1),w
 11500  1FBA  00D2               	movwf	(??_led_display1+0)+0
 11501  1FBB  3004               	movlw	04h
 11502  1FBC                     u6015:
 11503  1FBC  1003               	clrc
 11504  1FBD  0CD2               	rrf	(??_led_display1+0)+0,f
 11505  1FBE  3EFF               	addlw	-1
 11506  1FBF  1D03               	skipz
 11507  1FC0  2FBC               	goto	u6015
 11508  1FC1  1C52               	btfss	0+(??_led_display1+0)+0,(0)&7
 11509  1FC2  2FC4               	goto	u6021
 11510  1FC3  2FC5               	goto	u6020
 11511  1FC4                     u6021:
 11512  1FC4  2FC7               	goto	l1098
 11513  1FC5                     u6020:
 11514                           	
 11515  1FC5                     l4234:	
 11516  1FC5  1487               	bsf	(57/8),(57)&7
 11517  1FC6  2FC8               	goto	l1099
 11518                           	line	694
 11519                           	
 11520  1FC7                     l1098:	
 11521                           ;PR28.c: 694: else RC1=0;
 11522  1FC7  1087               	bcf	(57/8),(57)&7
 11523                           	
 11524  1FC8                     l1099:	
 11525                           	line	695
 11526                           ;PR28.c: 695: RC3=1;
 11527  1FC8  1587               	bsf	(59/8),(59)&7
 11528                           	line	696
 11529                           ;PR28.c: 696: RC3=0;
 11530  1FC9  1187               	bcf	(59/8),(59)&7
 11531                           	line	698
 11532                           	
 11533  1FCA                     l4236:	
 11534                           ;PR28.c: 698: if(((value1&0b00100000)>>5)==1) RC1=1;
 11535  1FCA  0853               	movf	(led_display1@value1),w
 11536  1FCB  00D2               	movwf	(??_led_display1+0)+0
 11537  1FCC  3005               	movlw	05h
 11538  1FCD                     u6035:
 11539  1FCD  1003               	clrc
 11540  1FCE  0CD2               	rrf	(??_led_display1+0)+0,f
 11541  1FCF  3EFF               	addlw	-1
 11542  1FD0  1D03               	skipz
 11543  1FD1  2FCD               	goto	u6035
 11544  1FD2  1C52               	btfss	0+(??_led_display1+0)+0,(0)&7
 11545  1FD3  2FD5               	goto	u6041
 11546  1FD4  2FD6               	goto	u6040
 11547  1FD5                     u6041:
 11548  1FD5  2FD8               	goto	l1100
 11549  1FD6                     u6040:
 11550                           	
 11551  1FD6                     l4238:	
 11552  1FD6  1487               	bsf	(57/8),(57)&7
 11553  1FD7  2FD9               	goto	l1101
 11554                           	line	699
 11555                           	
 11556  1FD8                     l1100:	
 11557                           ;PR28.c: 699: else RC1=0;
 11558  1FD8  1087               	bcf	(57/8),(57)&7
 11559                           	
 11560  1FD9                     l1101:	
 11561                           	line	700
 11562                           ;PR28.c: 700: RC3=1;
 11563  1FD9  1587               	bsf	(59/8),(59)&7
 11564                           	line	701
 11565                           ;PR28.c: 701: RC3=0;
 11566  1FDA  1187               	bcf	(59/8),(59)&7
 11567                           	line	703
 11568                           	
 11569  1FDB                     l4240:	
 11570                           ;PR28.c: 703: if(((value1&0b01000000)>>6)==1) RC1=1;
 11571  1FDB  0853               	movf	(led_display1@value1),w
 11572  1FDC  00D2               	movwf	(??_led_display1+0)+0
 11573  1FDD  3006               	movlw	06h
 11574  1FDE                     u6055:
 11575  1FDE  1003               	clrc
 11576  1FDF  0CD2               	rrf	(??_led_display1+0)+0,f
 11577  1FE0  3EFF               	addlw	-1
 11578  1FE1  1D03               	skipz
 11579  1FE2  2FDE               	goto	u6055
 11580  1FE3  1C52               	btfss	0+(??_led_display1+0)+0,(0)&7
 11581  1FE4  2FE6               	goto	u6061
 11582  1FE5  2FE7               	goto	u6060
 11583  1FE6                     u6061:
 11584  1FE6  2FE9               	goto	l1102
 11585  1FE7                     u6060:
 11586                           	
 11587  1FE7                     l4242:	
 11588  1FE7  1487               	bsf	(57/8),(57)&7
 11589  1FE8  2FEA               	goto	l1103
 11590                           	line	704
 11591                           	
 11592  1FE9                     l1102:	
 11593                           ;PR28.c: 704: else RC1=0;
 11594  1FE9  1087               	bcf	(57/8),(57)&7
 11595                           	
 11596  1FEA                     l1103:	
 11597                           	line	705
 11598                           ;PR28.c: 705: RC3=1;
 11599  1FEA  1587               	bsf	(59/8),(59)&7
 11600                           	line	706
 11601                           ;PR28.c: 706: RC3=0;
 11602  1FEB  1187               	bcf	(59/8),(59)&7
 11603                           	line	708
 11604                           	
 11605  1FEC                     l4244:	
 11606                           ;PR28.c: 708: if(((value1&0b10000000)>>7)==1) RC1=1;
 11607  1FEC  0853               	movf	(led_display1@value1),w
 11608  1FED  00D2               	movwf	(??_led_display1+0)+0
 11609  1FEE  3007               	movlw	07h
 11610  1FEF                     u6075:
 11611  1FEF  1003               	clrc
 11612  1FF0  0CD2               	rrf	(??_led_display1+0)+0,f
 11613  1FF1  3EFF               	addlw	-1
 11614  1FF2  1D03               	skipz
 11615  1FF3  2FEF               	goto	u6075
 11616  1FF4  1C52               	btfss	0+(??_led_display1+0)+0,(0)&7
 11617  1FF5  2FF7               	goto	u6081
 11618  1FF6  2FF8               	goto	u6080
 11619  1FF7                     u6081:
 11620  1FF7  2FFA               	goto	l1104
 11621  1FF8                     u6080:
 11622                           	
 11623  1FF8                     l4246:	
 11624  1FF8  1487               	bsf	(57/8),(57)&7
 11625  1FF9  2FFB               	goto	l1105
 11626                           	line	709
 11627                           	
 11628  1FFA                     l1104:	
 11629                           ;PR28.c: 709: else RC1=0;
 11630  1FFA  1087               	bcf	(57/8),(57)&7
 11631                           	
 11632  1FFB                     l1105:	
 11633                           	line	710
 11634                           ;PR28.c: 710: RC3=1;
 11635  1FFB  1587               	bsf	(59/8),(59)&7
 11636                           	line	711
 11637                           ;PR28.c: 711: RC3=0;
 11638  1FFC  1187               	bcf	(59/8),(59)&7
 11639                           	line	713
 11640                           ;PR28.c: 713: RC4=1;
 11641  1FFD  1607               	bsf	(60/8),(60)&7
 11642                           	line	714
 11643                           ;PR28.c: 714: RC4=0;
 11644  1FFE  1207               	bcf	(60/8),(60)&7
 11645                           	line	715
 11646                           	
 11647  1FFF                     l1106:	
 11648  1FFF  0008               	return
 11649                           	opt stack 0
 11650                           GLOBAL	__end_of_led_display1
 11651  2000                     	__end_of_led_display1:
 11652 ;; =============== function _led_display1 ends ============
 11653                           
 11654                           	signat	_led_display1,4216
 11655                           	global	_RestartTimer1
 11656                           psect	text717,local,class=CODE,delta=2
 11657                           global __ptext717
 11658  1D6C                     __ptext717:
 11659                           
 11660 ;; *************** function _RestartTimer1 *****************
 11661 ;; Defined at:
 11662 ;;		line 544 in file "C:\Users\Phang\Desktop\9.80\PR 28\PR28.c"
 11663 ;; Parameters:    Size  Location     Type
 11664 ;;		None
 11665 ;; Auto vars:     Size  Location     Type
 11666 ;;		None
 11667 ;; Return value:  Size  Location     Type
 11668 ;;		None               void
 11669 ;; Registers used:
 11670 ;;		status,2
 11671 ;; Tracked objects:
 11672 ;;		On entry : 0/0
 11673 ;;		On exit  : 0/0
 11674 ;;		Unchanged: 0/0
 11675 ;; Data sizes:     COMMON   BANK0   BANK1   BANK3   BANK2
 11676 ;;      Params:         0       0       0       0       0
 11677 ;;      Locals:         0       0       0       0       0
 11678 ;;      Temps:          0       0       0       0       0
 11679 ;;      Totals:         0       0       0       0       0
 11680 ;;Total ram usage:        0 bytes
 11681 ;; Hardware stack levels used:    1
 11682 ;; Hardware stack levels required when called:    3
 11683 ;; This function calls:
 11684 ;;		Nothing
 11685 ;; This function is called by:
 11686 ;;		_PIEZO
 11687 ;;		_PIEZO_D
 11688 ;;		_PIEZO_S
 11689 ;; This function uses a non-reentrant model
 11690 ;;
 11691                           psect	text717
 11692                           	file	"C:\Users\Phang\Desktop\9.80\PR 28\PR28.c"
 11693                           	line	544
 11694                           	global	__size_of_RestartTimer1
 11695  0009                     	__size_of_RestartTimer1	equ	__end_of_RestartTimer1-_RestartTimer1
 11696                           	
 11697  1D6C                     _RestartTimer1:	
 11698                           	opt	stack 3
 11699                           ; Regs used in _RestartTimer1: [status,2]
 11700                           	line	545
 11701                           	
 11702  1D6C                     l4208:	
 11703                           ;PR28.c: 545: TMR1L = 0;
 11704  1D6C  1283               	bcf	status, 5	;RP0=0, select bank0
 11705  1D6D  1303               	bcf	status, 6	;RP1=0, select bank0
 11706  1D6E  018E               	clrf	(14)	;volatile
 11707                           	line	546
 11708                           ;PR28.c: 546: TMR1H = 0;
 11709  1D6F  018F               	clrf	(15)	;volatile
 11710                           	line	547
 11711                           ;PR28.c: 547: TMR2 = 0;
 11712  1D70  0191               	clrf	(17)	;volatile
 11713                           	line	548
 11714                           	
 11715  1D71                     l4210:	
 11716                           ;PR28.c: 548: TMR2IF = 0;
 11717  1D71  108C               	bcf	(97/8),(97)&7
 11718                           	line	549
 11719                           	
 11720  1D72                     l4212:	
 11721                           ;PR28.c: 549: TMR1ON = 1;
 11722  1D72  1410               	bsf	(128/8),(128)&7
 11723                           	line	550
 11724                           	
 11725  1D73                     l4214:	
 11726                           ;PR28.c: 550: TMR2ON = 1;
 11727  1D73  1512               	bsf	(146/8),(146)&7
 11728                           	line	551
 11729                           	
 11730  1D74                     l957:	
 11731  1D74  0008               	return
 11732                           	opt stack 0
 11733                           GLOBAL	__end_of_RestartTimer1
 11734  1D75                     	__end_of_RestartTimer1:
 11735 ;; =============== function _RestartTimer1 ends ============
 11736                           
 11737                           	signat	_RestartTimer1,88
 11738                           	global	_store
 11739                           psect	text718,local,class=CODE,delta=2
 11740                           global __ptext718
 11741  0801                     __ptext718:
 11742                           
 11743 ;; *************** function _store *****************
 11744 ;; Defined at:
 11745 ;;		line 331 in file "C:\Users\Phang\Desktop\9.80\PR 28\PR28.c"
 11746 ;; Parameters:    Size  Location     Type
 11747 ;;		None
 11748 ;; Auto vars:     Size  Location     Type
 11749 ;;		None
 11750 ;; Return value:  Size  Location     Type
 11751 ;;		None               void
 11752 ;; Registers used:
 11753 ;;		wreg, status,2, status,0
 11754 ;; Tracked objects:
 11755 ;;		On entry : 0/0
 11756 ;;		On exit  : 0/0
 11757 ;;		Unchanged: 0/0
 11758 ;; Data sizes:     COMMON   BANK0   BANK1   BANK3   BANK2
 11759 ;;      Params:         0       0       0       0       0
 11760 ;;      Locals:         0       0       0       0       0
 11761 ;;      Temps:          0       1       0       0       0
 11762 ;;      Totals:         0       1       0       0       0
 11763 ;;Total ram usage:        1 bytes
 11764 ;; Hardware stack levels used:    1
 11765 ;; Hardware stack levels required when called:    3
 11766 ;; This function calls:
 11767 ;;		Nothing
 11768 ;; This function is called by:
 11769 ;;		_checkstatus
 11770 ;; This function uses a non-reentrant model
 11771 ;;
 11772                           psect	text718
 11773                           	file	"C:\Users\Phang\Desktop\9.80\PR 28\PR28.c"
 11774                           	line	331
 11775                           	global	__size_of_store
 11776  00C7                     	__size_of_store	equ	__end_of_store-_store
 11777                           	
 11778  0801                     _store:	
 11779                           	opt	stack 1
 11780                           ; Regs used in _store: [wreg+status,2+status,0]
 11781                           	line	332
 11782                           	
 11783  0801                     l4140:	
 11784                           ;PR28.c: 332: if (flag ==0){
 11785  0801  1283               	bcf	status, 5	;RP0=0, select bank0
 11786  0802  1303               	bcf	status, 6	;RP1=0, select bank0
 11787  0803  08CF               	movf	(_flag),f
 11788  0804  1D03               	skipz
 11789  0805  2807               	goto	u5641
 11790  0806  2808               	goto	u5640
 11791  0807                     u5641:
 11792  0807  2864               	goto	l4162
 11793  0808                     u5640:
 11794                           	line	333
 11795                           	
 11796  0808                     l4142:	
 11797                           ;PR28.c: 333: if(Buttons.BTN0 == 1) { matrix[0][0] = 'X';}
 11798  0808  0832               	movf	(_Buttons),w
 11799  0809  3A01               	xorlw	01h
 11800  080A  1D03               	skipz
 11801  080B  280D               	goto	u5651
 11802  080C  280E               	goto	u5650
 11803  080D                     u5651:
 11804  080D  2812               	goto	l821
 11805  080E                     u5650:
 11806                           	
 11807  080E                     l4144:	
 11808  080E  3058               	movlw	(058h)
 11809  080F  00D2               	movwf	(??_store+0)+0
 11810  0810  0852               	movf	(??_store+0)+0,w
 11811  0811  00BB               	movwf	(_matrix)
 11812                           	
 11813  0812                     l821:	
 11814                           	line	334
 11815                           ;PR28.c: 334: if(Buttons.BTN1 == 1) { matrix[0][1] = 'X';}
 11816  0812  0833               	movf	0+(_Buttons)+01h,w
 11817  0813  3A01               	xorlw	01h
 11818  0814  1D03               	skipz
 11819  0815  2817               	goto	u5661
 11820  0816  2818               	goto	u5660
 11821  0817                     u5661:
 11822  0817  281C               	goto	l822
 11823  0818                     u5660:
 11824                           	
 11825  0818                     l4146:	
 11826  0818  3058               	movlw	(058h)
 11827  0819  00D2               	movwf	(??_store+0)+0
 11828  081A  0852               	movf	(??_store+0)+0,w
 11829  081B  00BC               	movwf	0+(_matrix)+01h
 11830                           	
 11831  081C                     l822:	
 11832                           	line	335
 11833                           ;PR28.c: 335: if(Buttons.BTN2 == 1) { matrix[0][2] = 'X';}
 11834  081C  0834               	movf	0+(_Buttons)+02h,w
 11835  081D  3A01               	xorlw	01h
 11836  081E  1D03               	skipz
 11837  081F  2821               	goto	u5671
 11838  0820  2822               	goto	u5670
 11839  0821                     u5671:
 11840  0821  2826               	goto	l823
 11841  0822                     u5670:
 11842                           	
 11843  0822                     l4148:	
 11844  0822  3058               	movlw	(058h)
 11845  0823  00D2               	movwf	(??_store+0)+0
 11846  0824  0852               	movf	(??_store+0)+0,w
 11847  0825  00BD               	movwf	0+(_matrix)+02h
 11848                           	
 11849  0826                     l823:	
 11850                           	line	336
 11851                           ;PR28.c: 336: if(Buttons.BTN3 == 1) { matrix[1][0] = 'X';}
 11852  0826  0835               	movf	0+(_Buttons)+03h,w
 11853  0827  3A01               	xorlw	01h
 11854  0828  1D03               	skipz
 11855  0829  282B               	goto	u5681
 11856  082A  282C               	goto	u5680
 11857  082B                     u5681:
 11858  082B  2830               	goto	l824
 11859  082C                     u5680:
 11860                           	
 11861  082C                     l4150:	
 11862  082C  3058               	movlw	(058h)
 11863  082D  00D2               	movwf	(??_store+0)+0
 11864  082E  0852               	movf	(??_store+0)+0,w
 11865  082F  00BE               	movwf	0+(_matrix)+03h
 11866                           	
 11867  0830                     l824:	
 11868                           	line	337
 11869                           ;PR28.c: 337: if(Buttons.BTN4 == 1) { matrix[1][1] = 'X';}
 11870  0830  0836               	movf	0+(_Buttons)+04h,w
 11871  0831  3A01               	xorlw	01h
 11872  0832  1D03               	skipz
 11873  0833  2835               	goto	u5691
 11874  0834  2836               	goto	u5690
 11875  0835                     u5691:
 11876  0835  283A               	goto	l825
 11877  0836                     u5690:
 11878                           	
 11879  0836                     l4152:	
 11880  0836  3058               	movlw	(058h)
 11881  0837  00D2               	movwf	(??_store+0)+0
 11882  0838  0852               	movf	(??_store+0)+0,w
 11883  0839  00BF               	movwf	0+(_matrix)+04h
 11884                           	
 11885  083A                     l825:	
 11886                           	line	338
 11887                           ;PR28.c: 338: if(Buttons.BTN5 == 1) { matrix[1][2] = 'X';}
 11888  083A  0837               	movf	0+(_Buttons)+05h,w
 11889  083B  3A01               	xorlw	01h
 11890  083C  1D03               	skipz
 11891  083D  283F               	goto	u5701
 11892  083E  2840               	goto	u5700
 11893  083F                     u5701:
 11894  083F  2844               	goto	l826
 11895  0840                     u5700:
 11896                           	
 11897  0840                     l4154:	
 11898  0840  3058               	movlw	(058h)
 11899  0841  00D2               	movwf	(??_store+0)+0
 11900  0842  0852               	movf	(??_store+0)+0,w
 11901  0843  00C0               	movwf	0+(_matrix)+05h
 11902                           	
 11903  0844                     l826:	
 11904                           	line	339
 11905                           ;PR28.c: 339: if(Buttons.BTN6 == 1) { matrix[2][0] = 'X';}
 11906  0844  0838               	movf	0+(_Buttons)+06h,w
 11907  0845  3A01               	xorlw	01h
 11908  0846  1D03               	skipz
 11909  0847  2849               	goto	u5711
 11910  0848  284A               	goto	u5710
 11911  0849                     u5711:
 11912  0849  284E               	goto	l827
 11913  084A                     u5710:
 11914                           	
 11915  084A                     l4156:	
 11916  084A  3058               	movlw	(058h)
 11917  084B  00D2               	movwf	(??_store+0)+0
 11918  084C  0852               	movf	(??_store+0)+0,w
 11919  084D  00C1               	movwf	0+(_matrix)+06h
 11920                           	
 11921  084E                     l827:	
 11922                           	line	340
 11923                           ;PR28.c: 340: if(Buttons.BTN7 == 1) { matrix[2][1] = 'X';}
 11924  084E  0839               	movf	0+(_Buttons)+07h,w
 11925  084F  3A01               	xorlw	01h
 11926  0850  1D03               	skipz
 11927  0851  2853               	goto	u5721
 11928  0852  2854               	goto	u5720
 11929  0853                     u5721:
 11930  0853  2858               	goto	l828
 11931  0854                     u5720:
 11932                           	
 11933  0854                     l4158:	
 11934  0854  3058               	movlw	(058h)
 11935  0855  00D2               	movwf	(??_store+0)+0
 11936  0856  0852               	movf	(??_store+0)+0,w
 11937  0857  00C2               	movwf	0+(_matrix)+07h
 11938                           	
 11939  0858                     l828:	
 11940                           	line	341
 11941                           ;PR28.c: 341: if(Buttons.BTN8 == 1) { matrix[2][2] = 'X';}
 11942  0858  083A               	movf	0+(_Buttons)+08h,w
 11943  0859  3A01               	xorlw	01h
 11944  085A  1D03               	skipz
 11945  085B  285D               	goto	u5731
 11946  085C  285E               	goto	u5730
 11947  085D                     u5731:
 11948  085D  28C7               	goto	l841
 11949  085E                     u5730:
 11950                           	
 11951  085E                     l4160:	
 11952  085E  3058               	movlw	(058h)
 11953  085F  00D2               	movwf	(??_store+0)+0
 11954  0860  0852               	movf	(??_store+0)+0,w
 11955  0861  00C3               	movwf	0+(_matrix)+08h
 11956  0862  28C7               	goto	l841
 11957                           	
 11958  0863                     l829:	
 11959                           	line	342
 11960                           ;PR28.c: 342: }
 11961  0863  28C7               	goto	l841
 11962                           	line	343
 11963                           	
 11964  0864                     l820:	
 11965                           	
 11966  0864                     l4162:	
 11967                           ;PR28.c: 343: else if(flag == 1){
 11968  0864  084F               	movf	(_flag),w
 11969  0865  3A01               	xorlw	01h
 11970  0866  1D03               	skipz
 11971  0867  2869               	goto	u5741
 11972  0868  286A               	goto	u5740
 11973  0869                     u5741:
 11974  0869  28C7               	goto	l841
 11975  086A                     u5740:
 11976                           	line	344
 11977                           	
 11978  086A                     l4164:	
 11979                           ;PR28.c: 344: if(Buttons.BTN0 == 1) { matrix[0][0] = 'O';}
 11980  086A  0832               	movf	(_Buttons),w
 11981  086B  3A01               	xorlw	01h
 11982  086C  1D03               	skipz
 11983  086D  286F               	goto	u5751
 11984  086E  2870               	goto	u5750
 11985  086F                     u5751:
 11986  086F  2874               	goto	l832
 11987  0870                     u5750:
 11988                           	
 11989  0870                     l4166:	
 11990  0870  304F               	movlw	(04Fh)
 11991  0871  00D2               	movwf	(??_store+0)+0
 11992  0872  0852               	movf	(??_store+0)+0,w
 11993  0873  00BB               	movwf	(_matrix)
 11994                           	
 11995  0874                     l832:	
 11996                           	line	345
 11997                           ;PR28.c: 345: if(Buttons.BTN1 == 1) { matrix[0][1] = 'O';}
 11998  0874  0833               	movf	0+(_Buttons)+01h,w
 11999  0875  3A01               	xorlw	01h
 12000  0876  1D03               	skipz
 12001  0877  2879               	goto	u5761
 12002  0878  287A               	goto	u5760
 12003  0879                     u5761:
 12004  0879  287E               	goto	l833
 12005  087A                     u5760:
 12006                           	
 12007  087A                     l4168:	
 12008  087A  304F               	movlw	(04Fh)
 12009  087B  00D2               	movwf	(??_store+0)+0
 12010  087C  0852               	movf	(??_store+0)+0,w
 12011  087D  00BC               	movwf	0+(_matrix)+01h
 12012                           	
 12013  087E                     l833:	
 12014                           	line	346
 12015                           ;PR28.c: 346: if(Buttons.BTN2 == 1) { matrix[0][2] = 'O';}
 12016  087E  0834               	movf	0+(_Buttons)+02h,w
 12017  087F  3A01               	xorlw	01h
 12018  0880  1D03               	skipz
 12019  0881  2883               	goto	u5771
 12020  0882  2884               	goto	u5770
 12021  0883                     u5771:
 12022  0883  2888               	goto	l834
 12023  0884                     u5770:
 12024                           	
 12025  0884                     l4170:	
 12026  0884  304F               	movlw	(04Fh)
 12027  0885  00D2               	movwf	(??_store+0)+0
 12028  0886  0852               	movf	(??_store+0)+0,w
 12029  0887  00BD               	movwf	0+(_matrix)+02h
 12030                           	
 12031  0888                     l834:	
 12032                           	line	347
 12033                           ;PR28.c: 347: if(Buttons.BTN3 == 1) { matrix[1][0] = 'O';}
 12034  0888  0835               	movf	0+(_Buttons)+03h,w
 12035  0889  3A01               	xorlw	01h
 12036  088A  1D03               	skipz
 12037  088B  288D               	goto	u5781
 12038  088C  288E               	goto	u5780
 12039  088D                     u5781:
 12040  088D  2892               	goto	l835
 12041  088E                     u5780:
 12042                           	
 12043  088E                     l4172:	
 12044  088E  304F               	movlw	(04Fh)
 12045  088F  00D2               	movwf	(??_store+0)+0
 12046  0890  0852               	movf	(??_store+0)+0,w
 12047  0891  00BE               	movwf	0+(_matrix)+03h
 12048                           	
 12049  0892                     l835:	
 12050                           	line	348
 12051                           ;PR28.c: 348: if(Buttons.BTN4 == 1) { matrix[1][1] = 'O';}
 12052  0892  0836               	movf	0+(_Buttons)+04h,w
 12053  0893  3A01               	xorlw	01h
 12054  0894  1D03               	skipz
 12055  0895  2897               	goto	u5791
 12056  0896  2898               	goto	u5790
 12057  0897                     u5791:
 12058  0897  289C               	goto	l836
 12059  0898                     u5790:
 12060                           	
 12061  0898                     l4174:	
 12062  0898  304F               	movlw	(04Fh)
 12063  0899  00D2               	movwf	(??_store+0)+0
 12064  089A  0852               	movf	(??_store+0)+0,w
 12065  089B  00BF               	movwf	0+(_matrix)+04h
 12066                           	
 12067  089C                     l836:	
 12068                           	line	349
 12069                           ;PR28.c: 349: if(Buttons.BTN5 == 1) { matrix[1][2] = 'O';}
 12070  089C  0837               	movf	0+(_Buttons)+05h,w
 12071  089D  3A01               	xorlw	01h
 12072  089E  1D03               	skipz
 12073  089F  28A1               	goto	u5801
 12074  08A0  28A2               	goto	u5800
 12075  08A1                     u5801:
 12076  08A1  28A6               	goto	l837
 12077  08A2                     u5800:
 12078                           	
 12079  08A2                     l4176:	
 12080  08A2  304F               	movlw	(04Fh)
 12081  08A3  00D2               	movwf	(??_store+0)+0
 12082  08A4  0852               	movf	(??_store+0)+0,w
 12083  08A5  00C0               	movwf	0+(_matrix)+05h
 12084                           	
 12085  08A6                     l837:	
 12086                           	line	350
 12087                           ;PR28.c: 350: if(Buttons.BTN6 == 1) { matrix[2][0] = 'O';}
 12088  08A6  0838               	movf	0+(_Buttons)+06h,w
 12089  08A7  3A01               	xorlw	01h
 12090  08A8  1D03               	skipz
 12091  08A9  28AB               	goto	u5811
 12092  08AA  28AC               	goto	u5810
 12093  08AB                     u5811:
 12094  08AB  28B0               	goto	l838
 12095  08AC                     u5810:
 12096                           	
 12097  08AC                     l4178:	
 12098  08AC  304F               	movlw	(04Fh)
 12099  08AD  00D2               	movwf	(??_store+0)+0
 12100  08AE  0852               	movf	(??_store+0)+0,w
 12101  08AF  00C1               	movwf	0+(_matrix)+06h
 12102                           	
 12103  08B0                     l838:	
 12104                           	line	351
 12105                           ;PR28.c: 351: if(Buttons.BTN7 == 1) { matrix[2][1] = 'O';}
 12106  08B0  0839               	movf	0+(_Buttons)+07h,w
 12107  08B1  3A01               	xorlw	01h
 12108  08B2  1D03               	skipz
 12109  08B3  28B5               	goto	u5821
 12110  08B4  28B6               	goto	u5820
 12111  08B5                     u5821:
 12112  08B5  28BA               	goto	l839
 12113  08B6                     u5820:
 12114                           	
 12115  08B6                     l4180:	
 12116  08B6  304F               	movlw	(04Fh)
 12117  08B7  00D2               	movwf	(??_store+0)+0
 12118  08B8  0852               	movf	(??_store+0)+0,w
 12119  08B9  00C2               	movwf	0+(_matrix)+07h
 12120                           	
 12121  08BA                     l839:	
 12122                           	line	352
 12123                           ;PR28.c: 352: if(Buttons.BTN8 == 1) { matrix[2][2] = 'O';}
 12124  08BA  083A               	movf	0+(_Buttons)+08h,w
 12125  08BB  3A01               	xorlw	01h
 12126  08BC  1D03               	skipz
 12127  08BD  28BF               	goto	u5831
 12128  08BE  28C0               	goto	u5830
 12129  08BF                     u5831:
 12130  08BF  28C7               	goto	l841
 12131  08C0                     u5830:
 12132                           	
 12133  08C0                     l4182:	
 12134  08C0  304F               	movlw	(04Fh)
 12135  08C1  00D2               	movwf	(??_store+0)+0
 12136  08C2  0852               	movf	(??_store+0)+0,w
 12137  08C3  00C3               	movwf	0+(_matrix)+08h
 12138  08C4  28C7               	goto	l841
 12139                           	
 12140  08C5                     l840:	
 12141  08C5  28C7               	goto	l841
 12142                           	line	353
 12143                           	
 12144  08C6                     l831:	
 12145  08C6  28C7               	goto	l841
 12146                           	line	354
 12147                           	
 12148  08C7                     l830:	
 12149                           	
 12150  08C7                     l841:	
 12151  08C7  0008               	return
 12152                           	opt stack 0
 12153                           GLOBAL	__end_of_store
 12154  08C8                     	__end_of_store:
 12155 ;; =============== function _store ends ============
 12156                           
 12157                           	signat	_store,88
 12158                           	global	_delay
 12159                           psect	text719,local,class=CODE,delta=2
 12160                           global __ptext719
 12161  1EDE                     __ptext719:
 12162                           
 12163 ;; *************** function _delay *****************
 12164 ;; Defined at:
 12165 ;;		line 822 in file "C:\Users\Phang\Desktop\9.80\PR 28\PR28.c"
 12166 ;; Parameters:    Size  Location     Type
 12167 ;;  data            4    0[BANK0 ] unsigned long 
 12168 ;; Auto vars:     Size  Location     Type
 12169 ;;		None
 12170 ;; Return value:  Size  Location     Type
 12171 ;;		None               void
 12172 ;; Registers used:
 12173 ;;		wreg
 12174 ;; Tracked objects:
 12175 ;;		On entry : 0/0
 12176 ;;		On exit  : 0/0
 12177 ;;		Unchanged: 0/0
 12178 ;; Data sizes:     COMMON   BANK0   BANK1   BANK3   BANK2
 12179 ;;      Params:         0       4       0       0       0
 12180 ;;      Locals:         0       0       0       0       0
 12181 ;;      Temps:          0       4       0       0       0
 12182 ;;      Totals:         0       8       0       0       0
 12183 ;;Total ram usage:        8 bytes
 12184 ;; Hardware stack levels used:    1
 12185 ;; Hardware stack levels required when called:    3
 12186 ;; This function calls:
 12187 ;;		Nothing
 12188 ;; This function is called by:
 12189 ;;		_main
 12190 ;;		_send_config
 12191 ;;		_send_char
 12192 ;;		_e_pulse
 12193 ;;		_lcd_shift
 12194 ;;		_lcd_clr
 12195 ;;		_draw
 12196 ;;		_PIEZO
 12197 ;;		_PIEZO_D
 12198 ;;		_PIEZO_S
 12199 ;; This function uses a non-reentrant model
 12200 ;;
 12201                           psect	text719
 12202                           	file	"C:\Users\Phang\Desktop\9.80\PR 28\PR28.c"
 12203                           	line	822
 12204                           	global	__size_of_delay
 12205  0032                     	__size_of_delay	equ	__end_of_delay-_delay
 12206                           	
 12207  1EDE                     _delay:	
 12208                           	opt	stack 3
 12209                           ; Regs used in _delay: [wreg]
 12210                           	line	823
 12211                           	
 12212  1EDE                     l4064:	
 12213                           ;PR28.c: 823: for( ;data>0;data-=1);
 12214  1EDE  1283               	bcf	status, 5	;RP0=0, select bank0
 12215  1EDF  1303               	bcf	status, 6	;RP1=0, select bank0
 12216  1EE0  0855               	movf	(delay@data+3),w
 12217  1EE1  0454               	iorwf	(delay@data+2),w
 12218  1EE2  0453               	iorwf	(delay@data+1),w
 12219  1EE3  0452               	iorwf	(delay@data),w
 12220  1EE4  1D03               	skipz
 12221  1EE5  2EE7               	goto	u5541
 12222  1EE6  2EE8               	goto	u5540
 12223  1EE7                     u5541:
 12224  1EE7  2EEA               	goto	l4068
 12225  1EE8                     u5540:
 12226  1EE8  2F0F               	goto	l1149
 12227                           	
 12228  1EE9                     l4066:	
 12229  1EE9  2F0F               	goto	l1149
 12230                           	
 12231  1EEA                     l1147:	
 12232                           	
 12233  1EEA                     l4068:	
 12234  1EEA  3001               	movlw	01h
 12235  1EEB  00D6               	movwf	((??_delay+0)+0)
 12236  1EEC  3000               	movlw	0
 12237  1EED  00D7               	movwf	((??_delay+0)+0+1)
 12238  1EEE  3000               	movlw	0
 12239  1EEF  00D8               	movwf	((??_delay+0)+0+2)
 12240  1EF0  3000               	movlw	0
 12241  1EF1  00D9               	movwf	((??_delay+0)+0+3)
 12242  1EF2  0856               	movf	0+(??_delay+0)+0,w
 12243  1EF3  02D2               	subwf	(delay@data),f
 12244  1EF4  0857               	movf	1+(??_delay+0)+0,w
 12245  1EF5  1C03               	skipc
 12246  1EF6  0F57               	incfsz	1+(??_delay+0)+0,w
 12247  1EF7  2EF9               	goto	u5555
 12248  1EF8  2EFA               	goto	u5556
 12249  1EF9                     u5555:
 12250  1EF9  02D3               	subwf	(delay@data+1),f
 12251  1EFA                     u5556:
 12252  1EFA  0858               	movf	2+(??_delay+0)+0,w
 12253  1EFB  1C03               	skipc
 12254  1EFC  0F58               	incfsz	2+(??_delay+0)+0,w
 12255  1EFD  2EFF               	goto	u5557
 12256  1EFE  2F00               	goto	u5558
 12257  1EFF                     u5557:
 12258  1EFF  02D4               	subwf	(delay@data+2),f
 12259  1F00                     u5558:
 12260  1F00  0859               	movf	3+(??_delay+0)+0,w
 12261  1F01  1C03               	skipc
 12262  1F02  0F59               	incfsz	3+(??_delay+0)+0,w
 12263  1F03  2F05               	goto	u5559
 12264  1F04  2F06               	goto	u5550
 12265  1F05                     u5559:
 12266  1F05  02D5               	subwf	(delay@data+3),f
 12267  1F06                     u5550:
 12268                           
 12269  1F06  0855               	movf	(delay@data+3),w
 12270  1F07  0454               	iorwf	(delay@data+2),w
 12271  1F08  0453               	iorwf	(delay@data+1),w
 12272  1F09  0452               	iorwf	(delay@data),w
 12273  1F0A  1D03               	skipz
 12274  1F0B  2F0D               	goto	u5561
 12275  1F0C  2F0E               	goto	u5560
 12276  1F0D                     u5561:
 12277  1F0D  2EEA               	goto	l4068
 12278  1F0E                     u5560:
 12279  1F0E  2F0F               	goto	l1149
 12280                           	
 12281  1F0F                     l1148:	
 12282                           	line	824
 12283                           	
 12284  1F0F                     l1149:	
 12285  1F0F  0008               	return
 12286                           	opt stack 0
 12287                           GLOBAL	__end_of_delay
 12288  1F10                     	__end_of_delay:
 12289 ;; =============== function _delay ends ============
 12290                           
 12291                           	signat	_delay,4216
 12292                           	global	_isr
 12293                           psect	text720,local,class=CODE,delta=2
 12294                           global __ptext720
 12295  1E13                     __ptext720:
 12296                           
 12297 ;; *************** function _isr *****************
 12298 ;; Defined at:
 12299 ;;		line 271 in file "C:\Users\Phang\Desktop\9.80\PR 28\PR28.c"
 12300 ;; Parameters:    Size  Location     Type
 12301 ;;		None
 12302 ;; Auto vars:     Size  Location     Type
 12303 ;;		None
 12304 ;; Return value:  Size  Location     Type
 12305 ;;		None               void
 12306 ;; Registers used:
 12307 ;;		wreg, fsr0l, fsr0h, fsr1l, fsr1h, status,2, status,0, btemp+1, pclath, cstack
 12308 ;; Tracked objects:
 12309 ;;		On entry : 0/0
 12310 ;;		On exit  : 0/0
 12311 ;;		Unchanged: 0/0
 12312 ;; Data sizes:     COMMON   BANK0   BANK1   BANK3   BANK2
 12313 ;;      Params:         0       0       0       0       0
 12314 ;;      Locals:         0       0       0       0       0
 12315 ;;      Temps:          4       0       0       0       0
 12316 ;;      Totals:         4       0       0       0       0
 12317 ;;Total ram usage:        4 bytes
 12318 ;; Hardware stack levels used:    1
 12319 ;; Hardware stack levels required when called:    2
 12320 ;; This function calls:
 12321 ;;		_GetReading
 12322 ;; This function is called by:
 12323 ;;		Interrupt level 1
 12324 ;; This function uses a non-reentrant model
 12325 ;;
 12326                           psect	text720
 12327                           	file	"C:\Users\Phang\Desktop\9.80\PR 28\PR28.c"
 12328                           	line	271
 12329                           	global	__size_of_isr
 12330  001C                     	__size_of_isr	equ	__end_of_isr-_isr
 12331                           	
 12332  1E13                     _isr:	
 12333                           	opt	stack 0
 12334                           ; Regs used in _isr: [allreg]
 12335                           psect	intentry,class=CODE,delta=2
 12336                           global __pintentry
 12337  0004                     __pintentry:
 12338                           global interrupt_function
 12339  0004                     interrupt_function:
 12340                           	global saved_w
 12341  007E                     	saved_w	set	btemp+0
 12342  0004  00FE               	movwf	saved_w
 12343  0005  0803               	movf	status,w
 12344  0006  00F8               	movwf	(??_isr+0)
 12345  0007  0804               	movf	fsr0,w
 12346  0008  00F9               	movwf	(??_isr+1)
 12347  0009  080A               	movf	pclath,w
 12348  000A  00FA               	movwf	(??_isr+2)
 12349  000B  1283               	bcf	status, 5	;RP0=0, select bank0
 12350  000C  1303               	bcf	status, 6	;RP1=0, select bank0
 12351  000D  087F               	movf	btemp+1,w
 12352  000E  00FB               	movwf	(??_isr+3)
 12353  000F  160A  158A  2E13   	ljmp	_isr
 12354                           psect	text720
 12355                           	line	273
 12356                           	
 12357  1E13                     i1l4070:	
 12358                           ;PR28.c: 273: while (TMR1GIF )
 12359  1E13  2E1D               	goto	i1l4074
 12360                           	
 12361  1E14                     i1l795:	
 12362                           	line	276
 12363                           ;PR28.c: 274: {
 12364                           ;PR28.c: 276: TMR2ON =0;
 12365  1E14  1112               	bcf	(146/8),(146)&7
 12366                           	line	277
 12367                           ;PR28.c: 277: TMR1ON = 0;
 12368  1E15  1010               	bcf	(128/8),(128)&7
 12369                           	line	278
 12370                           ;PR28.c: 278: TMR1GIF = 0;
 12371  1E16  138C               	bcf	(103/8),(103)&7
 12372                           	line	280
 12373                           	
 12374  1E17                     i1l4072:	
 12375                           ;PR28.c: 280: GetReading();
 12376  1E17  160A  118A  254C   	fcall	_GetReading
              160A  158A         
 12377  1E1C  2E1D               	goto	i1l4074
 12378                           	line	281
 12379                           	
 12380  1E1D                     i1l794:	
 12381                           	line	273
 12382                           	
 12383  1E1D                     i1l4074:	
 12384  1E1D  1283               	bcf	status, 5	;RP0=0, select bank0
 12385  1E1E  1303               	bcf	status, 6	;RP1=0, select bank0
 12386  1E1F  1B8C               	btfsc	(103/8),(103)&7
 12387  1E20  2E22               	goto	u557_21
 12388  1E21  2E23               	goto	u557_20
 12389  1E22                     u557_21:
 12390  1E22  2E14               	goto	i1l795
 12391  1E23                     u557_20:
 12392  1E23  2E24               	goto	i1l797
 12393                           	
 12394  1E24                     i1l796:	
 12395                           	line	282
 12396                           	
 12397  1E24                     i1l797:	
 12398  1E24  087B               	movf	(??_isr+3),w
 12399  1E25  00FF               	movwf	btemp+1
 12400  1E26  087A               	movf	(??_isr+2),w
 12401  1E27  008A               	movwf	pclath
 12402  1E28  0879               	movf	(??_isr+1),w
 12403  1E29  0084               	movwf	fsr0
 12404  1E2A  0878               	movf	(??_isr+0),w
 12405  1E2B  0083               	movwf	status
 12406  1E2C  0EFE               	swapf	saved_w,f
 12407  1E2D  0E7E               	swapf	saved_w,w
 12408  1E2E  0009               	retfie
 12409                           	opt stack 0
 12410                           GLOBAL	__end_of_isr
 12411  1E2F                     	__end_of_isr:
 12412 ;; =============== function _isr ends ============
 12413                           
 12414                           	signat	_isr,88
 12415                           	global	_GetReading
 12416                           psect	text721,local,class=CODE,delta=2
 12417                           global __ptext721
 12418  154C                     __ptext721:
 12419                           
 12420 ;; *************** function _GetReading *****************
 12421 ;; Defined at:
 12422 ;;		line 488 in file "C:\Users\Phang\Desktop\9.80\PR 28\PR28.c"
 12423 ;; Parameters:    Size  Location     Type
 12424 ;;		None
 12425 ;; Auto vars:     Size  Location     Type
 12426 ;;		None
 12427 ;; Return value:  Size  Location     Type
 12428 ;;		None               void
 12429 ;; Registers used:
 12430 ;;		wreg, fsr0l, fsr0h, status,2, status,0, btemp+1, pclath, cstack
 12431 ;; Tracked objects:
 12432 ;;		On entry : 0/0
 12433 ;;		On exit  : 0/0
 12434 ;;		Unchanged: 0/0
 12435 ;; Data sizes:     COMMON   BANK0   BANK1   BANK3   BANK2
 12436 ;;      Params:         0       0       0       0       0
 12437 ;;      Locals:         0       0       0       0       0
 12438 ;;      Temps:          7       0       0       0       0
 12439 ;;      Totals:         7       0       0       0       0
 12440 ;;Total ram usage:        7 bytes
 12441 ;; Hardware stack levels used:    1
 12442 ;; Hardware stack levels required when called:    1
 12443 ;; This function calls:
 12444 ;;		_SetNextChannel
 12445 ;;		i1_RestartTimer1
 12446 ;; This function is called by:
 12447 ;;		_isr
 12448 ;; This function uses a non-reentrant model
 12449 ;;
 12450                           psect	text721
 12451                           	file	"C:\Users\Phang\Desktop\9.80\PR 28\PR28.c"
 12452                           	line	488
 12453                           	global	__size_of_GetReading
 12454  0153                     	__size_of_GetReading	equ	__end_of_GetReading-_GetReading
 12455                           	
 12456  154C                     _GetReading:	
 12457                           	opt	stack 0
 12458                           ; Regs used in _GetReading: [wreg-fsr0h+status,2+status,0+btemp+1+pclath+cstack]
 12459                           	line	489
 12460                           	
 12461  154C                     i1l4076:	
 12462                           ;PR28.c: 489: bigval = TMR1L + (unsigned int)(TMR1H << 8);
 12463  154C  1283               	bcf	status, 5	;RP0=0, select bank0
 12464  154D  1303               	bcf	status, 6	;RP1=0, select bank0
 12465  154E  080F               	movf	(15),w	;volatile
 12466  154F  00F1               	movwf	(??_GetReading+0)+0
 12467  1550  01F2               	clrf	(??_GetReading+0)+0+1
 12468  1551  3008               	movlw	08h
 12469  1552  00FF               	movwf	btemp+1
 12470  1553                     u558_25:
 12471  1553  1003               	clrc
 12472  1554  0DF1               	rlf	(??_GetReading+0)+0,f
 12473  1555  0DF2               	rlf	(??_GetReading+0)+1,f
 12474  1556  0BFF               	decfsz	btemp+1,f
 12475  1557  2D53               	goto	u558_25
 12476  1558  080E               	movf	(14),w	;volatile
 12477  1559  0771               	addwf	0+(??_GetReading+0)+0,w
 12478  155A  00FC               	movwf	(_bigval)
 12479  155B  0872               	movf	1+(??_GetReading+0)+0,w
 12480  155C  1803               	skipnc
 12481  155D  0A72               	incf	1+(??_GetReading+0)+0,w
 12482  155E  00FD               	movwf	((_bigval))+1
 12483                           	line	490
 12484                           ;PR28.c: 490: bigval = bigval * 16;
 12485  155F  087D               	movf	(_bigval+1),w
 12486  1560  00F2               	movwf	(??_GetReading+0)+0+1
 12487  1561  087C               	movf	(_bigval),w
 12488  1562  00F1               	movwf	(??_GetReading+0)+0
 12489  1563  3004               	movlw	04h
 12490  1564  00FF               	movwf	btemp+1
 12491  1565                     u559_25:
 12492  1565  1003               	clrc
 12493  1566  0DF1               	rlf	(??_GetReading+0)+0,f
 12494  1567  0DF2               	rlf	(??_GetReading+0)+1,f
 12495  1568  0BFF               	decfsz	btemp+1,f
 12496  1569  2D65               	goto	u559_25
 12497  156A  0871               	movf	0+(??_GetReading+0)+0,w
 12498  156B  00FC               	movwf	(_bigval)
 12499  156C  0872               	movf	1+(??_GetReading+0)+0,w
 12500  156D  00FD               	movwf	(_bigval+1)
 12501                           	line	491
 12502                           	
 12503  156E                     i1l4078:	
 12504                           ;PR28.c: 491: reading[index] = bigval;
 12505  156E  0850               	movf	(_index),w
 12506  156F  00F1               	movwf	(??_GetReading+0)+0
 12507  1570  0771               	addwf	(??_GetReading+0)+0,w
 12508  1571  3EA0               	addlw	_reading&0ffh
 12509  1572  0084               	movwf	fsr0
 12510  1573  087C               	movf	(_bigval),w
 12511  1574  1383               	bcf	status, 7	;select IRP bank1
 12512  1575  0080               	movwf	indf
 12513  1576  0A84               	incf	fsr0,f
 12514  1577  087D               	movf	(_bigval+1),w
 12515  1578  0080               	movwf	indf
 12516                           	line	492
 12517                           	
 12518  1579                     i1l4080:	
 12519                           ;PR28.c: 492: smallavg = average[index] / 16;
 12520  1579  0850               	movf	(_index),w
 12521  157A  00F1               	movwf	(??_GetReading+0)+0
 12522  157B  0771               	addwf	(??_GetReading+0)+0,w
 12523  157C  3E20               	addlw	_average&0ffh
 12524  157D  0084               	movwf	fsr0
 12525  157E  0800               	movf	indf,w
 12526  157F  00F2               	movwf	(??_GetReading+1)+0+0
 12527  1580  0A84               	incf	fsr0,f
 12528  1581  0800               	movf	indf,w
 12529  1582  00F3               	movwf	(??_GetReading+1)+0+1
 12530  1583  3004               	movlw	04h
 12531  1584                     u560_25:
 12532  1584  1003               	clrc
 12533  1585  0CF3               	rrf	(??_GetReading+1)+1,f
 12534  1586  0CF2               	rrf	(??_GetReading+1)+0,f
 12535  1587  3EFF               	addlw	-1
 12536  1588  1D03               	skipz
 12537  1589  2D84               	goto	u560_25
 12538  158A  0872               	movf	0+(??_GetReading+1)+0,w
 12539  158B  00C7               	movwf	(_smallavg)
 12540  158C  0873               	movf	1+(??_GetReading+1)+0,w
 12541  158D  00C8               	movwf	(_smallavg+1)
 12542                           	line	493
 12543                           	
 12544  158E                     i1l4082:	
 12545                           ;PR28.c: 493: threshold4 = average[index] >> 2;
 12546  158E  0850               	movf	(_index),w
 12547  158F  00F1               	movwf	(??_GetReading+0)+0
 12548  1590  0771               	addwf	(??_GetReading+0)+0,w
 12549  1591  3E20               	addlw	_average&0ffh
 12550  1592  0084               	movwf	fsr0
 12551  1593  0800               	movf	indf,w
 12552  1594  00F2               	movwf	(??_GetReading+1)+0+0
 12553  1595  0A84               	incf	fsr0,f
 12554  1596  0800               	movf	indf,w
 12555  1597  00F3               	movwf	(??_GetReading+1)+0+1
 12556  1598  3002               	movlw	02h
 12557  1599                     u561_25:
 12558  1599  1003               	clrc
 12559  159A  0CF3               	rrf	(??_GetReading+1)+1,f
 12560  159B  0CF2               	rrf	(??_GetReading+1)+0,f
 12561  159C  3EFF               	addlw	-1
 12562  159D  1D03               	skipz
 12563  159E  2D99               	goto	u561_25
 12564  159F  0872               	movf	0+(??_GetReading+1)+0,w
 12565  15A0  00CB               	movwf	(_threshold4)
 12566  15A1  0873               	movf	1+(??_GetReading+1)+0,w
 12567  15A2  00CC               	movwf	(_threshold4+1)
 12568                           	line	494
 12569                           	
 12570  15A3                     i1l4084:	
 12571                           ;PR28.c: 494: threshold = threshold4;
 12572  15A3  084C               	movf	(_threshold4+1),w
 12573  15A4  01CA               	clrf	(_threshold+1)
 12574  15A5  07CA               	addwf	(_threshold+1)
 12575  15A6  084B               	movf	(_threshold4),w
 12576  15A7  01C9               	clrf	(_threshold)
 12577  15A8  07C9               	addwf	(_threshold)
 12578                           
 12579                           	line	495
 12580                           	
 12581  15A9                     i1l4086:	
 12582                           ;PR28.c: 495: if (bigval < average[index] - threshold)
 12583  15A9  0850               	movf	(_index),w
 12584  15AA  00F1               	movwf	(??_GetReading+0)+0
 12585  15AB  0771               	addwf	(??_GetReading+0)+0,w
 12586  15AC  3E20               	addlw	_average&0ffh
 12587  15AD  0084               	movwf	fsr0
 12588  15AE  0800               	movf	indf,w
 12589  15AF  00F2               	movwf	(??_GetReading+1)+0+0
 12590  15B0  0A84               	incf	fsr0,f
 12591  15B1  0800               	movf	indf,w
 12592  15B2  00F3               	movwf	(??_GetReading+1)+0+1
 12593  15B3  0949               	comf	(_threshold),w
 12594  15B4  00F4               	movwf	(??_GetReading+3)+0
 12595  15B5  094A               	comf	(_threshold+1),w
 12596  15B6  00F5               	movwf	((??_GetReading+3)+0+1)
 12597  15B7  0AF4               	incf	(??_GetReading+3)+0,f
 12598  15B8  1903               	skipnz
 12599  15B9  0AF5               	incf	((??_GetReading+3)+0+1),f
 12600  15BA  0872               	movf	0+(??_GetReading+1)+0,w
 12601  15BB  0774               	addwf	0+(??_GetReading+3)+0,w
 12602  15BC  00F6               	movwf	(??_GetReading+5)+0
 12603  15BD  0873               	movf	1+(??_GetReading+1)+0,w
 12604  15BE  1803               	skipnc
 12605  15BF  0A73               	incf	1+(??_GetReading+1)+0,w
 12606  15C0  0775               	addwf	1+(??_GetReading+3)+0,w
 12607  15C1  00F7               	movwf	1+(??_GetReading+5)+0
 12608  15C2  0877               	movf	1+(??_GetReading+5)+0,w
 12609  15C3  027D               	subwf	(_bigval+1),w
 12610  15C4  1D03               	skipz
 12611  15C5  2DC8               	goto	u562_25
 12612  15C6  0876               	movf	0+(??_GetReading+5)+0,w
 12613  15C7  027C               	subwf	(_bigval),w
 12614  15C8                     u562_25:
 12615  15C8  1803               	skipnc
 12616  15C9  2DCB               	goto	u562_21
 12617  15CA  2DCC               	goto	u562_20
 12618  15CB                     u562_21:
 12619  15CB  2E4B               	goto	i1l4132
 12620  15CC                     u562_20:
 12621  15CC  2DF4               	goto	i1l4110
 12622                           	line	497
 12623                           	
 12624  15CD                     i1l4088:	
 12625                           ;PR28.c: 496: {
 12626                           ;PR28.c: 497: switch (index)
 12627  15CD  2DF4               	goto	i1l4110
 12628                           	line	499
 12629                           ;PR28.c: 498: {
 12630                           ;PR28.c: 499: case 0: Buttons.BTN0 = 1; break;
 12631                           	
 12632  15CE                     i1l930:	
 12633                           	
 12634  15CE                     i1l4090:	
 12635  15CE  01B2               	clrf	(_Buttons)
 12636  15CF  1403               	bsf	status,0
 12637  15D0  0DB2               	rlf	(_Buttons),f
 12638  15D1  2E94               	goto	i1l4136
 12639                           	line	500
 12640                           ;PR28.c: 500: case 1: Buttons.BTN1 = 1; break;
 12641                           	
 12642  15D2                     i1l932:	
 12643                           	
 12644  15D2                     i1l4092:	
 12645  15D2  01B3               	clrf	0+(_Buttons)+01h
 12646  15D3  1403               	bsf	status,0
 12647  15D4  0DB3               	rlf	0+(_Buttons)+01h,f
 12648  15D5  2E94               	goto	i1l4136
 12649                           	line	501
 12650                           ;PR28.c: 501: case 2: Buttons.BTN2 = 1; break;
 12651                           	
 12652  15D6                     i1l933:	
 12653                           	
 12654  15D6                     i1l4094:	
 12655  15D6  01B4               	clrf	0+(_Buttons)+02h
 12656  15D7  1403               	bsf	status,0
 12657  15D8  0DB4               	rlf	0+(_Buttons)+02h,f
 12658  15D9  2E94               	goto	i1l4136
 12659                           	line	502
 12660                           ;PR28.c: 502: case 3: Buttons.BTN3 = 1; break;
 12661                           	
 12662  15DA                     i1l934:	
 12663                           	
 12664  15DA                     i1l4096:	
 12665  15DA  01B5               	clrf	0+(_Buttons)+03h
 12666  15DB  1403               	bsf	status,0
 12667  15DC  0DB5               	rlf	0+(_Buttons)+03h,f
 12668  15DD  2E94               	goto	i1l4136
 12669                           	line	503
 12670                           ;PR28.c: 503: case 4: Buttons.BTN4 = 1; break;
 12671                           	
 12672  15DE                     i1l935:	
 12673                           	
 12674  15DE                     i1l4098:	
 12675  15DE  01B6               	clrf	0+(_Buttons)+04h
 12676  15DF  1403               	bsf	status,0
 12677  15E0  0DB6               	rlf	0+(_Buttons)+04h,f
 12678  15E1  2E94               	goto	i1l4136
 12679                           	line	504
 12680                           ;PR28.c: 504: case 5: Buttons.BTN5 = 1; break;
 12681                           	
 12682  15E2                     i1l936:	
 12683                           	
 12684  15E2                     i1l4100:	
 12685  15E2  01B7               	clrf	0+(_Buttons)+05h
 12686  15E3  1403               	bsf	status,0
 12687  15E4  0DB7               	rlf	0+(_Buttons)+05h,f
 12688  15E5  2E94               	goto	i1l4136
 12689                           	line	505
 12690                           ;PR28.c: 505: case 6: Buttons.BTN6 = 1; break;
 12691                           	
 12692  15E6                     i1l937:	
 12693                           	
 12694  15E6                     i1l4102:	
 12695  15E6  01B8               	clrf	0+(_Buttons)+06h
 12696  15E7  1403               	bsf	status,0
 12697  15E8  0DB8               	rlf	0+(_Buttons)+06h,f
 12698  15E9  2E94               	goto	i1l4136
 12699                           	line	506
 12700                           ;PR28.c: 506: case 7: Buttons.BTN7 = 1; break;
 12701                           	
 12702  15EA                     i1l938:	
 12703                           	
 12704  15EA                     i1l4104:	
 12705  15EA  01B9               	clrf	0+(_Buttons)+07h
 12706  15EB  1403               	bsf	status,0
 12707  15EC  0DB9               	rlf	0+(_Buttons)+07h,f
 12708  15ED  2E94               	goto	i1l4136
 12709                           	line	507
 12710                           ;PR28.c: 507: case 8: Buttons.BTN8 = 1; break;
 12711                           	
 12712  15EE                     i1l939:	
 12713                           	
 12714  15EE                     i1l4106:	
 12715  15EE  01BA               	clrf	0+(_Buttons)+08h
 12716  15EF  1403               	bsf	status,0
 12717  15F0  0DBA               	rlf	0+(_Buttons)+08h,f
 12718  15F1  2E94               	goto	i1l4136
 12719                           	line	509
 12720                           ;PR28.c: 509: default: break;
 12721                           	
 12722  15F2                     i1l940:	
 12723  15F2  2E94               	goto	i1l4136
 12724                           	line	510
 12725                           	
 12726  15F3                     i1l4108:	
 12727                           ;PR28.c: 510: }
 12728  15F3  2E94               	goto	i1l4136
 12729                           	line	497
 12730                           	
 12731  15F4                     i1l929:	
 12732                           	
 12733  15F4                     i1l4110:	
 12734  15F4  0850               	movf	(_index),w
 12735                           	; Switch size 1, requested type "space"
 12736                           ; Number of cases is 9, Range of values is 0 to 8
 12737                           ; switch strategies available:
 12738                           ; Name         Bytes Cycles
 12739                           ; simple_byte    28    15 (average)
 12740                           ; direct_byte    46    19 (fixed)
 12741                           ;	Chosen strategy is simple_byte
 12742                           
 12743  15F5  3A00               	xorlw	0^0	; case 0
 12744  15F6  1903               	skipnz
 12745  15F7  2DCE               	goto	i1l4090
 12746  15F8  3A01               	xorlw	1^0	; case 1
 12747  15F9  1903               	skipnz
 12748  15FA  2DD2               	goto	i1l4092
 12749  15FB  3A03               	xorlw	2^1	; case 2
 12750  15FC  1903               	skipnz
 12751  15FD  2DD6               	goto	i1l4094
 12752  15FE  3A01               	xorlw	3^2	; case 3
 12753  15FF  1903               	skipnz
 12754  1600  2DDA               	goto	i1l4096
 12755  1601  3A07               	xorlw	4^3	; case 4
 12756  1602  1903               	skipnz
 12757  1603  2DDE               	goto	i1l4098
 12758  1604  3A01               	xorlw	5^4	; case 5
 12759  1605  1903               	skipnz
 12760  1606  2DE2               	goto	i1l4100
 12761  1607  3A03               	xorlw	6^5	; case 6
 12762  1608  1903               	skipnz
 12763  1609  2DE6               	goto	i1l4102
 12764  160A  3A01               	xorlw	7^6	; case 7
 12765  160B  1903               	skipnz
 12766  160C  2DEA               	goto	i1l4104
 12767  160D  3A0F               	xorlw	8^7	; case 8
 12768  160E  1903               	skipnz
 12769  160F  2DEE               	goto	i1l4106
 12770  1610  2E94               	goto	i1l4136
 12771                           
 12772                           	line	510
 12773                           	
 12774  1611                     i1l931:	
 12775                           	line	511
 12776                           ;PR28.c: 511: }
 12777  1611  2E94               	goto	i1l4136
 12778                           	line	512
 12779                           	
 12780  1612                     i1l928:	
 12781                           	line	515
 12782                           ;PR28.c: 512: else
 12783                           ;PR28.c: 513: {
 12784                           ;PR28.c: 515: switch (index)
 12785  1612  2E4B               	goto	i1l4132
 12786                           	line	517
 12787                           ;PR28.c: 516: {
 12788                           ;PR28.c: 517: case 0: Buttons.BTN0 = 0; break;
 12789                           	
 12790  1613                     i1l943:	
 12791                           	
 12792  1613                     i1l4112:	
 12793  1613  1003               	clrc
 12794  1614  3000               	movlw	0
 12795  1615  1803               	btfsc	status,0
 12796  1616  3001               	movlw	1
 12797  1617  00B2               	movwf	(_Buttons)
 12798  1618  2E68               	goto	i1l4134
 12799                           	line	518
 12800                           ;PR28.c: 518: case 1: Buttons.BTN1 = 0; break;
 12801                           	
 12802  1619                     i1l945:	
 12803                           	
 12804  1619                     i1l4114:	
 12805  1619  1003               	clrc
 12806  161A  3000               	movlw	0
 12807  161B  1803               	btfsc	status,0
 12808  161C  3001               	movlw	1
 12809  161D  00B3               	movwf	0+(_Buttons)+01h
 12810  161E  2E68               	goto	i1l4134
 12811                           	line	519
 12812                           ;PR28.c: 519: case 2: Buttons.BTN2 = 0; break;
 12813                           	
 12814  161F                     i1l946:	
 12815                           	
 12816  161F                     i1l4116:	
 12817  161F  1003               	clrc
 12818  1620  3000               	movlw	0
 12819  1621  1803               	btfsc	status,0
 12820  1622  3001               	movlw	1
 12821  1623  00B4               	movwf	0+(_Buttons)+02h
 12822  1624  2E68               	goto	i1l4134
 12823                           	line	520
 12824                           ;PR28.c: 520: case 3: Buttons.BTN3 = 0; break;
 12825                           	
 12826  1625                     i1l947:	
 12827                           	
 12828  1625                     i1l4118:	
 12829  1625  1003               	clrc
 12830  1626  3000               	movlw	0
 12831  1627  1803               	btfsc	status,0
 12832  1628  3001               	movlw	1
 12833  1629  00B5               	movwf	0+(_Buttons)+03h
 12834  162A  2E68               	goto	i1l4134
 12835                           	line	521
 12836                           ;PR28.c: 521: case 4: Buttons.BTN4 = 0; break;
 12837                           	
 12838  162B                     i1l948:	
 12839                           	
 12840  162B                     i1l4120:	
 12841  162B  1003               	clrc
 12842  162C  3000               	movlw	0
 12843  162D  1803               	btfsc	status,0
 12844  162E  3001               	movlw	1
 12845  162F  00B6               	movwf	0+(_Buttons)+04h
 12846  1630  2E68               	goto	i1l4134
 12847                           	line	522
 12848                           ;PR28.c: 522: case 5: Buttons.BTN5 = 0; break;
 12849                           	
 12850  1631                     i1l949:	
 12851                           	
 12852  1631                     i1l4122:	
 12853  1631  1003               	clrc
 12854  1632  3000               	movlw	0
 12855  1633  1803               	btfsc	status,0
 12856  1634  3001               	movlw	1
 12857  1635  00B7               	movwf	0+(_Buttons)+05h
 12858  1636  2E68               	goto	i1l4134
 12859                           	line	523
 12860                           ;PR28.c: 523: case 6: Buttons.BTN6 = 0; break;
 12861                           	
 12862  1637                     i1l950:	
 12863                           	
 12864  1637                     i1l4124:	
 12865  1637  1003               	clrc
 12866  1638  3000               	movlw	0
 12867  1639  1803               	btfsc	status,0
 12868  163A  3001               	movlw	1
 12869  163B  00B8               	movwf	0+(_Buttons)+06h
 12870  163C  2E68               	goto	i1l4134
 12871                           	line	524
 12872                           ;PR28.c: 524: case 7: Buttons.BTN7 = 0; break;
 12873                           	
 12874  163D                     i1l951:	
 12875                           	
 12876  163D                     i1l4126:	
 12877  163D  1003               	clrc
 12878  163E  3000               	movlw	0
 12879  163F  1803               	btfsc	status,0
 12880  1640  3001               	movlw	1
 12881  1641  00B9               	movwf	0+(_Buttons)+07h
 12882  1642  2E68               	goto	i1l4134
 12883                           	line	525
 12884                           ;PR28.c: 525: case 8: Buttons.BTN8 = 0; break;
 12885                           	
 12886  1643                     i1l952:	
 12887                           	
 12888  1643                     i1l4128:	
 12889  1643  1003               	clrc
 12890  1644  3000               	movlw	0
 12891  1645  1803               	btfsc	status,0
 12892  1646  3001               	movlw	1
 12893  1647  00BA               	movwf	0+(_Buttons)+08h
 12894  1648  2E68               	goto	i1l4134
 12895                           	line	527
 12896                           ;PR28.c: 527: default: break;
 12897                           	
 12898  1649                     i1l953:	
 12899  1649  2E68               	goto	i1l4134
 12900                           	line	528
 12901                           	
 12902  164A                     i1l4130:	
 12903                           ;PR28.c: 528: }
 12904  164A  2E68               	goto	i1l4134
 12905                           	line	515
 12906                           	
 12907  164B                     i1l942:	
 12908                           	
 12909  164B                     i1l4132:	
 12910  164B  0850               	movf	(_index),w
 12911                           	; Switch size 1, requested type "space"
 12912                           ; Number of cases is 9, Range of values is 0 to 8
 12913                           ; switch strategies available:
 12914                           ; Name         Bytes Cycles
 12915                           ; simple_byte    28    15 (average)
 12916                           ; direct_byte    46    19 (fixed)
 12917                           ;	Chosen strategy is simple_byte
 12918                           
 12919  164C  3A00               	xorlw	0^0	; case 0
 12920  164D  1903               	skipnz
 12921  164E  2E13               	goto	i1l4112
 12922  164F  3A01               	xorlw	1^0	; case 1
 12923  1650  1903               	skipnz
 12924  1651  2E19               	goto	i1l4114
 12925  1652  3A03               	xorlw	2^1	; case 2
 12926  1653  1903               	skipnz
 12927  1654  2E1F               	goto	i1l4116
 12928  1655  3A01               	xorlw	3^2	; case 3
 12929  1656  1903               	skipnz
 12930  1657  2E25               	goto	i1l4118
 12931  1658  3A07               	xorlw	4^3	; case 4
 12932  1659  1903               	skipnz
 12933  165A  2E2B               	goto	i1l4120
 12934  165B  3A01               	xorlw	5^4	; case 5
 12935  165C  1903               	skipnz
 12936  165D  2E31               	goto	i1l4122
 12937  165E  3A03               	xorlw	6^5	; case 6
 12938  165F  1903               	skipnz
 12939  1660  2E37               	goto	i1l4124
 12940  1661  3A01               	xorlw	7^6	; case 7
 12941  1662  1903               	skipnz
 12942  1663  2E3D               	goto	i1l4126
 12943  1664  3A0F               	xorlw	8^7	; case 8
 12944  1665  1903               	skipnz
 12945  1666  2E43               	goto	i1l4128
 12946  1667  2E68               	goto	i1l4134
 12947                           
 12948                           	line	528
 12949                           	
 12950  1668                     i1l944:	
 12951                           	line	531
 12952                           	
 12953  1668                     i1l4134:	
 12954                           ;PR28.c: 531: average[index] += bigval/16 - smallavg;
 12955  1668  0947               	comf	(_smallavg),w
 12956  1669  00F1               	movwf	(??_GetReading+0)+0
 12957  166A  0948               	comf	(_smallavg+1),w
 12958  166B  00F2               	movwf	((??_GetReading+0)+0+1)
 12959  166C  0AF1               	incf	(??_GetReading+0)+0,f
 12960  166D  1903               	skipnz
 12961  166E  0AF2               	incf	((??_GetReading+0)+0+1),f
 12962  166F  087D               	movf	(_bigval+1),w
 12963  1670  00F4               	movwf	(??_GetReading+2)+0+1
 12964  1671  087C               	movf	(_bigval),w
 12965  1672  00F3               	movwf	(??_GetReading+2)+0
 12966  1673  3004               	movlw	04h
 12967  1674                     u563_25:
 12968  1674  1003               	clrc
 12969  1675  0CF4               	rrf	(??_GetReading+2)+1,f
 12970  1676  0CF3               	rrf	(??_GetReading+2)+0,f
 12971  1677  3EFF               	addlw	-1
 12972  1678  1D03               	skipz
 12973  1679  2E74               	goto	u563_25
 12974  167A  0871               	movf	0+(??_GetReading+0)+0,w
 12975  167B  0773               	addwf	0+(??_GetReading+2)+0,w
 12976  167C  00F5               	movwf	(??_GetReading+4)+0
 12977  167D  0872               	movf	1+(??_GetReading+0)+0,w
 12978  167E  1803               	skipnc
 12979  167F  0A72               	incf	1+(??_GetReading+0)+0,w
 12980  1680  0774               	addwf	1+(??_GetReading+2)+0,w
 12981  1681  00F6               	movwf	1+(??_GetReading+4)+0
 12982  1682  0850               	movf	(_index),w
 12983  1683  00F7               	movwf	(??_GetReading+6)+0
 12984  1684  0777               	addwf	(??_GetReading+6)+0,w
 12985  1685  3E20               	addlw	_average&0ffh
 12986  1686  0084               	movwf	fsr0
 12987  1687  0875               	movf	0+(??_GetReading+4)+0,w
 12988  1688  1383               	bcf	status, 7	;select IRP bank0
 12989  1689  0780               	addwf	indf,f
 12990  168A  0F84               	incfsz	fsr0,f
 12991  168B  0800               	movf	indf,w
 12992  168C  1803               	skipnc
 12993  168D  0A00               	incf	indf,w
 12994  168E  00FF               	movwf	btemp+1
 12995  168F  0876               	movf	1+(??_GetReading+4)+0,w
 12996  1690  077F               	addwf	btemp+1,w
 12997  1691  0080               	movwf	indf
 12998  1692  0384               	decf	fsr0,f
 12999  1693  2E94               	goto	i1l4136
 13000                           	line	532
 13001                           	
 13002  1694                     i1l941:	
 13003                           	line	533
 13004                           	
 13005  1694                     i1l4136:	
 13006                           ;PR28.c: 532: }
 13007                           ;PR28.c: 533: SetNextChannel();
 13008  1694  160A  118A  2003   	fcall	_SetNextChannel
              160A  118A         
 13009                           	line	534
 13010                           	
 13011  1699                     i1l4138:	
 13012                           ;PR28.c: 534: RestartTimer1();
 13013  1699  160A  158A  2563   	fcall	i1_RestartTimer1
              160A  118A         
 13014                           	line	535
 13015                           	
 13016  169E                     i1l954:	
 13017  169E  0008               	return
 13018                           	opt stack 0
 13019                           GLOBAL	__end_of_GetReading
 13020  169F                     	__end_of_GetReading:
 13021 ;; =============== function _GetReading ends ============
 13022                           
 13023                           	signat	_GetReading,88
 13024                           	global	i1_RestartTimer1
 13025                           psect	text722,local,class=CODE,delta=2
 13026                           global __ptext722
 13027  1D63                     __ptext722:
 13028                           
 13029 ;; *************** function i1_RestartTimer1 *****************
 13030 ;; Defined at:
 13031 ;;		line 544 in file "C:\Users\Phang\Desktop\9.80\PR 28\PR28.c"
 13032 ;; Parameters:    Size  Location     Type
 13033 ;;		None
 13034 ;; Auto vars:     Size  Location     Type
 13035 ;;		None
 13036 ;; Return value:  Size  Location     Type
 13037 ;;		None               void
 13038 ;; Registers used:
 13039 ;;		status,2
 13040 ;; Tracked objects:
 13041 ;;		On entry : 0/0
 13042 ;;		On exit  : 0/0
 13043 ;;		Unchanged: 0/0
 13044 ;; Data sizes:     COMMON   BANK0   BANK1   BANK3   BANK2
 13045 ;;      Params:         0       0       0       0       0
 13046 ;;      Locals:         0       0       0       0       0
 13047 ;;      Temps:          0       0       0       0       0
 13048 ;;      Totals:         0       0       0       0       0
 13049 ;;Total ram usage:        0 bytes
 13050 ;; Hardware stack levels used:    1
 13051 ;; This function calls:
 13052 ;;		Nothing
 13053 ;; This function is called by:
 13054 ;;		_GetReading
 13055 ;; This function uses a non-reentrant model
 13056 ;;
 13057                           psect	text722
 13058                           	file	"C:\Users\Phang\Desktop\9.80\PR 28\PR28.c"
 13059                           	line	544
 13060                           	global	__size_ofi1_RestartTimer1
 13061  0009                     	__size_ofi1_RestartTimer1	equ	__end_ofi1_RestartTimer1-i1_RestartTimer1
 13062                           	
 13063  1D63                     i1_RestartTimer1:	
 13064                           	opt	stack 0
 13065                           ; Regs used in i1_RestartTimer1: [status,2]
 13066                           	line	545
 13067                           	
 13068  1D63                     i1l4340:	
 13069                           ;PR28.c: 545: TMR1L = 0;
 13070  1D63  1283               	bcf	status, 5	;RP0=0, select bank0
 13071  1D64  1303               	bcf	status, 6	;RP1=0, select bank0
 13072  1D65  018E               	clrf	(14)	;volatile
 13073                           	line	546
 13074                           ;PR28.c: 546: TMR1H = 0;
 13075  1D66  018F               	clrf	(15)	;volatile
 13076                           	line	547
 13077                           ;PR28.c: 547: TMR2 = 0;
 13078  1D67  0191               	clrf	(17)	;volatile
 13079                           	line	548
 13080                           	
 13081  1D68                     i1l4342:	
 13082                           ;PR28.c: 548: TMR2IF = 0;
 13083  1D68  108C               	bcf	(97/8),(97)&7
 13084                           	line	549
 13085                           	
 13086  1D69                     i1l4344:	
 13087                           ;PR28.c: 549: TMR1ON = 1;
 13088  1D69  1410               	bsf	(128/8),(128)&7
 13089                           	line	550
 13090                           	
 13091  1D6A                     i1l4346:	
 13092                           ;PR28.c: 550: TMR2ON = 1;
 13093  1D6A  1512               	bsf	(146/8),(146)&7
 13094                           	line	551
 13095                           	
 13096  1D6B                     i1l957:	
 13097  1D6B  0008               	return
 13098                           	opt stack 0
 13099                           GLOBAL	__end_ofi1_RestartTimer1
 13100  1D6C                     	__end_ofi1_RestartTimer1:
 13101 ;; =============== function i1_RestartTimer1 ends ============
 13102                           
 13103                           	signat	i1_RestartTimer1,88
 13104                           	global	_SetNextChannel
 13105                           psect	text723,local,class=CODE,delta=2
 13106                           global __ptext723
 13107  1003                     __ptext723:
 13108                           
 13109 ;; *************** function _SetNextChannel *****************
 13110 ;; Defined at:
 13111 ;;		line 560 in file "C:\Users\Phang\Desktop\9.80\PR 28\PR28.c"
 13112 ;; Parameters:    Size  Location     Type
 13113 ;;		None
 13114 ;; Auto vars:     Size  Location     Type
 13115 ;;		None
 13116 ;; Return value:  Size  Location     Type
 13117 ;;		None               void
 13118 ;; Registers used:
 13119 ;;		wreg, status,2, status,0
 13120 ;; Tracked objects:
 13121 ;;		On entry : 0/0
 13122 ;;		On exit  : 0/0
 13123 ;;		Unchanged: 0/0
 13124 ;; Data sizes:     COMMON   BANK0   BANK1   BANK3   BANK2
 13125 ;;      Params:         0       0       0       0       0
 13126 ;;      Locals:         0       0       0       0       0
 13127 ;;      Temps:          1       0       0       0       0
 13128 ;;      Totals:         1       0       0       0       0
 13129 ;;Total ram usage:        1 bytes
 13130 ;; Hardware stack levels used:    1
 13131 ;; This function calls:
 13132 ;;		Nothing
 13133 ;; This function is called by:
 13134 ;;		_GetReading
 13135 ;; This function uses a non-reentrant model
 13136 ;;
 13137                           psect	text723
 13138                           	file	"C:\Users\Phang\Desktop\9.80\PR 28\PR28.c"
 13139                           	line	560
 13140                           	global	__size_of_SetNextChannel
 13141  0076                     	__size_of_SetNextChannel	equ	__end_of_SetNextChannel-_SetNextChannel
 13142                           	
 13143  1003                     _SetNextChannel:	
 13144                           	opt	stack 0
 13145                           ; Regs used in _SetNextChannel: [wreg+status,2+status,0]
 13146                           	line	561
 13147                           	
 13148  1003                     i1l4184:	
 13149                           ;PR28.c: 561: if (++index>= 9)
 13150  1003  3001               	movlw	(01h)
 13151  1004  00F0               	movwf	(??_SetNextChannel+0)+0
 13152  1005  0870               	movf	(??_SetNextChannel+0)+0,w
 13153  1006  1283               	bcf	status, 5	;RP0=0, select bank0
 13154  1007  1303               	bcf	status, 6	;RP1=0, select bank0
 13155  1008  07D0               	addwf	(_index),f
 13156  1009  3009               	movlw	(09h)
 13157  100A  0250               	subwf	((_index)),w
 13158  100B  1C03               	skipc
 13159  100C  280E               	goto	u584_21
 13160  100D  280F               	goto	u584_20
 13161  100E                     u584_21:
 13162  100E  2816               	goto	i1l4188
 13163  100F                     u584_20:
 13164                           	line	562
 13165                           	
 13166  100F                     i1l4186:	
 13167                           ;PR28.c: 562: index = 0;
 13168  100F  1003               	clrc
 13169  1010  3000               	movlw	0
 13170  1011  1803               	btfsc	status,0
 13171  1012  3001               	movlw	1
 13172  1013  00D0               	movwf	(_index)
 13173  1014  2816               	goto	i1l4188
 13174                           	line	563
 13175                           	
 13176  1015                     i1l960:	
 13177  1015  2816               	goto	i1l4188
 13178                           ;PR28.c: 563: else;
 13179                           	
 13180  1016                     i1l961:	
 13181                           	line	564
 13182                           	
 13183  1016                     i1l4188:	
 13184                           ;PR28.c: 564: if(index==0)
 13185  1016  08D0               	movf	(_index),f
 13186  1017  1D03               	skipz
 13187  1018  281A               	goto	u585_21
 13188  1019  281B               	goto	u585_20
 13189  101A                     u585_21:
 13190  101A  281F               	goto	i1l962
 13191  101B                     u585_20:
 13192                           	line	565
 13193                           	
 13194  101B                     i1l4190:	
 13195                           ;PR28.c: 565: CPSCON1 = 0b00001000;
 13196  101B  3008               	movlw	(08h)
 13197  101C  1283               	bcf	status, 5	;RP0=0, select bank2
 13198  101D  1703               	bsf	status, 6	;RP1=1, select bank2
 13199  101E  0089               	movwf	(265)^0100h	;volatile
 13200                           	
 13201  101F                     i1l962:	
 13202                           	line	566
 13203                           ;PR28.c: 566: if(index==1)
 13204  101F  1303               	bcf	status, 6	;RP1=0, select bank0
 13205  1020  0850               	movf	(_index),w
 13206  1021  3A01               	xorlw	01h
 13207  1022  1D03               	skipz
 13208  1023  2825               	goto	u586_21
 13209  1024  2826               	goto	u586_20
 13210  1025                     u586_21:
 13211  1025  282A               	goto	i1l963
 13212  1026                     u586_20:
 13213                           	line	567
 13214                           	
 13215  1026                     i1l4192:	
 13216                           ;PR28.c: 567: CPSCON1 = 0b00001001;
 13217  1026  3009               	movlw	(09h)
 13218  1027  1283               	bcf	status, 5	;RP0=0, select bank2
 13219  1028  1703               	bsf	status, 6	;RP1=1, select bank2
 13220  1029  0089               	movwf	(265)^0100h	;volatile
 13221                           	
 13222  102A                     i1l963:	
 13223                           	line	568
 13224                           ;PR28.c: 568: if(index==2)
 13225  102A  1303               	bcf	status, 6	;RP1=0, select bank0
 13226  102B  0850               	movf	(_index),w
 13227  102C  3A02               	xorlw	02h
 13228  102D  1D03               	skipz
 13229  102E  2830               	goto	u587_21
 13230  102F  2831               	goto	u587_20
 13231  1030                     u587_21:
 13232  1030  2835               	goto	i1l964
 13233  1031                     u587_20:
 13234                           	line	569
 13235                           	
 13236  1031                     i1l4194:	
 13237                           ;PR28.c: 569: CPSCON1 = 0b00001010;
 13238  1031  300A               	movlw	(0Ah)
 13239  1032  1283               	bcf	status, 5	;RP0=0, select bank2
 13240  1033  1703               	bsf	status, 6	;RP1=1, select bank2
 13241  1034  0089               	movwf	(265)^0100h	;volatile
 13242                           	
 13243  1035                     i1l964:	
 13244                           	line	570
 13245                           ;PR28.c: 570: if(index == 3)
 13246  1035  1303               	bcf	status, 6	;RP1=0, select bank0
 13247  1036  0850               	movf	(_index),w
 13248  1037  3A03               	xorlw	03h
 13249  1038  1D03               	skipz
 13250  1039  283B               	goto	u588_21
 13251  103A  283C               	goto	u588_20
 13252  103B                     u588_21:
 13253  103B  2840               	goto	i1l965
 13254  103C                     u588_20:
 13255                           	line	571
 13256                           	
 13257  103C                     i1l4196:	
 13258                           ;PR28.c: 571: CPSCON1 = 0b00001011;
 13259  103C  300B               	movlw	(0Bh)
 13260  103D  1283               	bcf	status, 5	;RP0=0, select bank2
 13261  103E  1703               	bsf	status, 6	;RP1=1, select bank2
 13262  103F  0089               	movwf	(265)^0100h	;volatile
 13263                           	
 13264  1040                     i1l965:	
 13265                           	line	572
 13266                           ;PR28.c: 572: if(index== 4)
 13267  1040  1303               	bcf	status, 6	;RP1=0, select bank0
 13268  1041  0850               	movf	(_index),w
 13269  1042  3A04               	xorlw	04h
 13270  1043  1D03               	skipz
 13271  1044  2846               	goto	u589_21
 13272  1045  2847               	goto	u589_20
 13273  1046                     u589_21:
 13274  1046  284B               	goto	i1l966
 13275  1047                     u589_20:
 13276                           	line	573
 13277                           	
 13278  1047                     i1l4198:	
 13279                           ;PR28.c: 573: CPSCON1 = 0b00001100;
 13280  1047  300C               	movlw	(0Ch)
 13281  1048  1283               	bcf	status, 5	;RP0=0, select bank2
 13282  1049  1703               	bsf	status, 6	;RP1=1, select bank2
 13283  104A  0089               	movwf	(265)^0100h	;volatile
 13284                           	
 13285  104B                     i1l966:	
 13286                           	line	574
 13287                           ;PR28.c: 574: if(index == 5)
 13288  104B  1303               	bcf	status, 6	;RP1=0, select bank0
 13289  104C  0850               	movf	(_index),w
 13290  104D  3A05               	xorlw	05h
 13291  104E  1D03               	skipz
 13292  104F  2851               	goto	u590_21
 13293  1050  2852               	goto	u590_20
 13294  1051                     u590_21:
 13295  1051  2856               	goto	i1l967
 13296  1052                     u590_20:
 13297                           	line	575
 13298                           	
 13299  1052                     i1l4200:	
 13300                           ;PR28.c: 575: CPSCON1 = 0b00001101;
 13301  1052  300D               	movlw	(0Dh)
 13302  1053  1283               	bcf	status, 5	;RP0=0, select bank2
 13303  1054  1703               	bsf	status, 6	;RP1=1, select bank2
 13304  1055  0089               	movwf	(265)^0100h	;volatile
 13305                           	
 13306  1056                     i1l967:	
 13307                           	line	576
 13308                           ;PR28.c: 576: if(index ==6)
 13309  1056  1303               	bcf	status, 6	;RP1=0, select bank0
 13310  1057  0850               	movf	(_index),w
 13311  1058  3A06               	xorlw	06h
 13312  1059  1D03               	skipz
 13313  105A  285C               	goto	u591_21
 13314  105B  285D               	goto	u591_20
 13315  105C                     u591_21:
 13316  105C  2861               	goto	i1l968
 13317  105D                     u591_20:
 13318                           	line	577
 13319                           	
 13320  105D                     i1l4202:	
 13321                           ;PR28.c: 577: CPSCON1 = 0b00001110;
 13322  105D  300E               	movlw	(0Eh)
 13323  105E  1283               	bcf	status, 5	;RP0=0, select bank2
 13324  105F  1703               	bsf	status, 6	;RP1=1, select bank2
 13325  1060  0089               	movwf	(265)^0100h	;volatile
 13326                           	
 13327  1061                     i1l968:	
 13328                           	line	578
 13329                           ;PR28.c: 578: if (index ==7)
 13330  1061  1303               	bcf	status, 6	;RP1=0, select bank0
 13331  1062  0850               	movf	(_index),w
 13332  1063  3A07               	xorlw	07h
 13333  1064  1D03               	skipz
 13334  1065  2867               	goto	u592_21
 13335  1066  2868               	goto	u592_20
 13336  1067                     u592_21:
 13337  1067  286C               	goto	i1l969
 13338  1068                     u592_20:
 13339                           	line	579
 13340                           	
 13341  1068                     i1l4204:	
 13342                           ;PR28.c: 579: CPSCON1 = 0b00001111;
 13343  1068  300F               	movlw	(0Fh)
 13344  1069  1283               	bcf	status, 5	;RP0=0, select bank2
 13345  106A  1703               	bsf	status, 6	;RP1=1, select bank2
 13346  106B  0089               	movwf	(265)^0100h	;volatile
 13347                           	
 13348  106C                     i1l969:	
 13349                           	line	580
 13350                           ;PR28.c: 580: if (index == 8)
 13351  106C  1303               	bcf	status, 6	;RP1=0, select bank0
 13352  106D  0850               	movf	(_index),w
 13353  106E  3A08               	xorlw	08h
 13354  106F  1D03               	skipz
 13355  1070  2872               	goto	u593_21
 13356  1071  2873               	goto	u593_20
 13357  1072                     u593_21:
 13358  1072  2878               	goto	i1l971
 13359  1073                     u593_20:
 13360                           	line	581
 13361                           	
 13362  1073                     i1l4206:	
 13363                           ;PR28.c: 581: CPSCON1 = 0b00000110;
 13364  1073  3006               	movlw	(06h)
 13365  1074  1283               	bcf	status, 5	;RP0=0, select bank2
 13366  1075  1703               	bsf	status, 6	;RP1=1, select bank2
 13367  1076  0089               	movwf	(265)^0100h	;volatile
 13368  1077  2878               	goto	i1l971
 13369                           	
 13370  1078                     i1l970:	
 13371                           	line	582
 13372                           	
 13373  1078                     i1l971:	
 13374  1078  0008               	return
 13375                           	opt stack 0
 13376                           GLOBAL	__end_of_SetNextChannel
 13377  1079                     	__end_of_SetNextChannel:
 13378 ;; =============== function _SetNextChannel ends ============
 13379                           
 13380                           	signat	_SetNextChannel,88
 13381                           psect	text724,local,class=CODE,delta=2
 13382                           global __ptext724
 13383  0000                     __ptext724:
 13384                           	global	btemp
 13385  007E                     	btemp set 07Eh
 13386                           
 13387                           	DABS	1,126,2	;btemp
 13388                           	global	wtemp0
 13389  007E                     	wtemp0 set btemp
 13390  136F                     


HI-TECH Software PICC Macro Assembler V9.80 build 6738 
Symbol Table                                                                                   Wed Jun 20 23:16:01 2012

                       pc 0002            ___bmul@product 0054                        fsr 0004  
           ?_led_display1 0070             ?_led_display2 0070             ?_led_display3 0070  
                     l800 1E08                       l801 1DFA                       l810 1D83  
                     l802 1E12                       l811 1D83                       l803 1E00  
                     l820 0864                       l804 1E06                       l821 0812  
                     l901 0527                       l805 1E12                       l830 08C7  
                     l822 081C                       l910 0567                       l902 0532  
                     l814 07F5                       l831 08C6                       l823 0826  
                     l911 0572                       l903 0536                       l815 07EF  
                     l840 08C5                       l832 0874                       l824 0830  
                     l920 05B2                       l912 0576                       l904 0553  
                     l808 1D7C                       l816 07FE                       l833 087E  
                     l841 08C7                       l825 083A                       l921 05B6  
                     l913 0593                       l905 054C                       l809 1D76  
                     l817 07FE                       l761 0639                       l834 0888  
                     l826 0844                       l922 05D3                       l914 058C  
                     l906 0552                       l850 03D3                       l770 0799  
                     l762 0654                       l835 0892                       l827 084E  
                     l923 05CC                       l907 0594                       l915 0592  
                     l851 03CC                       l771 076F                       l763 0711  
                     l836 089C                       l828 0858                       l916 05D4  
                     l924 05D2                       l908 0577                       l860 040C  
                     l844 03D4                       l852 03D2                       l772 0774  
                     l764 06D6                       l837 08A6                       l829 0863  
                     l917 05B7                       l925 05D4                       l853 0414  
                     l861 0412                       l845 03B7                       l773 0797  
                     l765 06EF                       l838 08B0                       l790 120C  
                     l782 07ED                       l862 0454                       l870 0452  
                     l854 03F7                       l774 0798                       l766 0701  
                     l839 08BA                       l791 123E                       l919 05A7  
                     l871 0494                       l863 0437                       l847 03A7  
                     l775 07A2                       l767 071A                       l880 04D4  
                     l872 0477                       l856 03E7                       l848 03B2  
                     l776 07A3                       l768 0743                       l785 1194  
                     l881 04B7                       l865 0427                       l857 03F2  
                     l849 03B6                       l777 07A3                       l769 076E  
                     l786 11B4                       l890 04F7                       l874 0467  
                     l866 0432                       l858 03F6                       l778 07A4  
                     l787 11C7                       l883 04A7                       l875 0472  
                     l867 0436                       l859 0413                       l779 07A4  
                     l788 1222                       l980 13B8                       l892 04E7  
                     l884 04B2                       l876 0476                       l868 0453  
                     l957 1D74                       l789 11DC                       l981 0FCF  
                     l893 04F2                       l885 04B6                       l877 0493  
                     l869 044C                       l990 090D                       l982 13DB  
                     l974 1332                       l894 04F6                       l886 04D3  
                     l878 048C                       l975 0FFF                       l983 0FCE  
                     l991 0FCA                       l895 0513                       l887 04CC  
                     l879 0492                       l992 0930                       l984 13FE  
                     l976 1372                       l896 050C                       l888 04D2  
                     l977 0FD1                       l985 0FCD                       l993 0FC9  
                     l889 0514                       l897 0512                       l994 0953  
                     l986 08C8                       l978 1395                       l898 0554  
                     l979 0FD0                       l987 0FCC                       l995 0FC8  
                     l899 0537                       _GIE 005F                       l996 0976  
                     l988 08EA                       l989 0FCB                       l997 0FC7  
                     l998 0999                       l999 0FC6                       _RA0 0028  
                     _RA1 0029                       _RA2 002A                       _RA3 002B  
                     _RC0 0038                       _RC1 0039                       _RA5 002D  
                     _RA6 002E                       _RC3 003B                       _RA7 002F  
                     _RE0 0048                       _RC4 003C                       _RE1 0049  
                     _RC5 003D                       _RE2 004A                       _RC6 003E  
                     _RC7 003F                       _PR2 0092                       _isr 1E13  
                     fsr0 0004                       indf 0000           send_config@data 005A  
        ?i1_RestartTimer1 0070                      l1000 09BC                      l1001 0FC5  
                    l1010 0A6B                      l1002 09DF                      l1003 0FC4  
                    l1011 0FC0                      l1100 1FD8                      l1020 0B19  
                    l1012 0A8E                      l1004 0A02                      l1101 1FD9  
                    l1005 0FC3                      l1013 0FBF                      l1021 0FBB  
                    l1102 1FE9                      l1110 1083                      l1030 0BC8  
                    l1022 0B3C                      l1014 0AB1                      l1006 0A25  
                    l1103 1FEA                      l1111 1093                      l1007 0FC2  
                    l1015 0FBE                      l1023 0FBA                      l1031 0FB6  
                    l1104 1FFA                      l1120 10D8                      l1112 1094  
                    l1200 174B                      l1040 0C77                      l1032 0BEB  
                    l1024 0B5F                      l1016 0AD3                      l1008 0A48  
                    l1105 1FFB                      l1121 10E8                      l1113 10A4  
                    l1201 175A                      l1009 0FC1                      l1017 0FBD  
                    l1025 0FB9                      l1033 0FB5                      l1041 0FB1  
                    l1106 1FFF                      l1122 10E9                      l1114 10A5  
                    l1130 1119                      l1202 1783                      l1050 0D25  
                    l1042 0C9A                      l1034 0C0E                      l1026 0B82  
                    l1018 0AF6                      l1123 10F9                      l1115 10B5  
                    l1131 111A                      l1203 17E8                      l1019 0FBC  
                    l1027 0FB8                      l1035 0FB4                      l1043 0FB0  
                    l1051 0FAC                      l1124 10FA                      l1116 10B6  
                    l1140 116E                      l1132 112A                      l1212 1E38  
                    l1204 1798                      l1060 0DD4                      l1052 0D48  
                    l1044 0CBC                      l1036 0C31                      l1028 0BA5  
                    l1125 10FE                      l1117 10C6                      l1109 1082  
                    l1141 116F                      l1133 112B                      l1213 1E41  
                    l1205 17D2                      l1029 0FB7                      l1037 0FB3  
                    l1045 0FAF                      l1053 0FAB                      l1061 0FA7  
                    l1118 10C7                      l1142 117F                      l1134 113B  
                    l1214 1E4B                      l1206 17BD                      l1070 0E83  
                    l1062 0DF7                      l1054 0D6B                      l1046 0CDF  
                    l1038 0C54                      l1119 10D7                      l1143 1180  
                    l1135 113C                      l1215 1E4D                      l1207 17BE  
                    l1039 0FB2                      l1047 0FAE                      l1055 0FAA  
                    l1063 0FA6                      l1071 0FA2                      l1144 1184  
                    l1136 114C                      l1128 1108                      l1208 17F8  
                    l1080 0F31                      l1072 0EA5                      l1064 0E1A  
                    l1056 0D8E                      l1048 0D02                      l1152 1DDF  
                    l1137 114D                      l1129 1109                      l1209 17FF  
                    l1049 0FAD                      l1057 0FA9                      l1065 0FA5  
                    l1073 0FA1                      l1081 0F9D                      l1161 1E80  
                    l1090 1F83                      l1138 115D                      l1082 0F54  
                    l1074 0EC8                      l1066 0E3D                      l1058 0DB1  
                    l1162 1E8F                      l1147 1EEA                      l1091 1F84  
                    l1139 115E                      l1059 0FA8                      l1067 0FA4  
                    l1075 0FA0                      l1083 0F9C                      l1155 1DF8  
                    l1163 1E8F                      l1148 1F0F                      l1092 1F94  
                    l1084 0F77                      l1076 0EEB                      l1068 0E60  
                    l1180 1F79                      l1172 1ECB                      l1149 1F0F  
                    l1093 1F95                      l1069 0FA3                      l1077 0F9F  
                    l1085 0F9B                      l1173 1EB8                      l1094 1FA5  
                    l1086 0F9A                      l1078 0F0E                      l1158 1E6E  
                    l1166 1DAF                      l1095 1FA6                      l1183 1EB3  
                    l1079 0F9E                      l1087 0FFF                      l1175 1EDC  
                    l1096 1FB6                      l1192 1314                      l1176 1EDD  
                    l1097 1FB7                      l1169 1D99                      l1177 1EDD  
                    l1098 1FC7                      l1186 154B                      l1099 1FC8  
                    l1195 16B8                      l1196 176E                      l1197 1718  
                    l1189 0391                      l1198 17FF                      l1199 173C  
                    l5000 0BC8                      l4210 1D71                      l5010 0BF4  
                    l5002 0BD1                      l4140 0801                      l4212 1D72  
                    l4220 1F86                      l4300 114F                      l5100 0D7D  
                    l5020 0C20                      l5012 0BFD                      l5004 0BDA  
                    l4150 082C                      l4142 0808                      l4214 1D73  
                    l4230 1FB4                      l4222 1F92                      l4310 117D  
                    l4302 115B                      l5110 0DA9                      l5102 0D86  
                    l5030 0C4C                      l5022 0C29                      l5014 0C06  
                    l5006 0BE3                      l4064 1EDE                      l4160 085E  
                    l4152 0836                      l4144 080E                      l4208 1D6C  
                    l4240 1FDB                      l4232 1FB9                      l4224 1F97  
                    l4216 1F7D                      l4304 1160                      l4320 1E43  
                    l4312 1E32                      l4400 130E                      l5200 0F31  
                    l5120 0DD4                      l5112 0DB1                      l5104 0D8E  
                    l5040 0C77                      l5032 0C54                      l5024 0C31  
                    l5016 0C0E                      l5008 0BEB                      l4066 1EE9  
                    l4170 0884                      l4154 0840                      l4146 0818  
                    l4162 0864                      l4242 1FE7                      l4234 1FC5  
                    l4226 1FA3                      l4218 1F81                      l4250 1080  
                    l4306 116C                      l4322 1E45                      l4314 1E38  
                    l4402 1313                      l4410 16B8                      l5210 0F5D  
                    l5202 0F3A                      l5130 0E00                      l5122 0DDD  
                    l5114 0DBA                      l5106 0D97                      l5050 0CA3  
                    l5042 0C80                      l5034 0C5D                      l5026 0C3A  
                    l5018 0C17                      l4068 1EEA                      l4180 08B6  
                    l4172 088E                      l4164 086A                      l4156 084A  
                    l4148 0822                      l4244 1FEC                      l4236 1FCA  
                    l4228 1FA8                      l4260 10A7                      l4252 1085  
                    l4308 1171                      l4324 1E4B                      l4316 1E3C  
                    l4420 1728                      l4412 16E1                      l4404 169F  
                    l4500 1473                      l5220 0F89                      l5212 0F66  
                    l5204 0F43                      l5140 0E2C                      l5132 0E09  
                    l5124 0DE6                      l5116 0DC3                      l5108 0DA0  
                    l5060 0CCE                      l5052 0CAC                      l5044 0C89  
                    l5036 0C66                      l5028 0C43                      l5300 1F4E  
                    l4182 08C0                      l4174 0898                      l4166 0870  
                    l4158 0854                      l4246 1FF8                      l4238 1FD6  
                    l4270 10D5                      l4262 10B3                      l4254 1091  
                    l4326 1E4D                      l4318 1E41                      l4350 1244  
                    l4430 1748                      l4422 1736                      l4414 1708  
                    l4406 16A9                      l4510 14AA                      l4502 1488  
                    l5230 0FE7                      l5222 0F92                      l5214 0F6F  
                    l5206 0F4C                      l5150 0E58                      l5142 0E35  
                    l5134 0E12                      l5126 0DEF                      l5118 0DCC  
                    l5070 0CFA                      l5062 0CD7                      l5054 0CB5  
                    l5046 0C92                      l5038 0C6F                      l5302 1F56  
                    l5310 039A                      l4176 08A2                      l4168 087A  
                    l4272 10DA                      l4264 10B8                      l4256 1096  
                    l4248 107C                      l4280 1102                      l4360 127A  
                    l4352 1250                      l4440 1759                      l4432 174A  
                    l4424 173B                      l4416 1717                      l4408 16B7  
                    l4520 14C6                      l4512 14AD                      l4504 1495  
                    l4600 0192                      l5232 0FEF                      l5216 0F77  
                    l5208 0F54                      l5160 0E83                      l5152 0E60  
                    l5144 0E3D                      l5136 0E1A                      l5128 0DF7  
                    l5080 0D25                      l5072 0D02                      l5064 0CDF  
                    l5056 0CBC                      l5048 0C9A                      l5224 0FD1  
                    l5240 07A7                      l5304 1F65                      l5400 04A0  
                    l5320 03B7                      l5312 03A0                      l4178 08AC  
                    l4274 10E6                      l4266 10C4                      l4258 10A2  
                    l4290 1128                      l4282 1106                      l4370 12B1  
                    l4362 1287                      l4354 125D                      l4450 1782  
                    l4442 175A                      l4434 174B                      l4426 173C  
                    l4418 1718                      l4530 14EC                      l4522 14D3  
                    l4514 14B1                      l4506 1499                      l4610 01D1  
                    l4602 01A7                      l5226 0FD7                      l5218 0F80  
                    l5170 0EAE                      l5162 0E8C                      l5154 0E69  
                    l5146 0E46                      l5138 0E23                      l5090 0D51  
                    l5082 0D2E                      l5074 0D0B                      l5066 0CE8  
                    l5058 0CC5                      l5234 1E4E                      l5250 07B3  
                    l5242 07AB                      l5306 1F6A                      l5410 04BC  
                    l5402 04A7                      l5322 03BC                      l5314 03A7  
                    l5330 03D4                      l4276 10EB                      l4268 10C9  
                    l4292 112D                      l4284 110B                      l4380 12DF  
                    l4372 12B5                      l4364 128B                      l4356 1261  
                    l4348 123F                      l4460 17B6                      l4452 1783  
                    l4444 1760                      l4436 1751                      l4428 1742  
                    l4540 1512                      l4532 14F0                      l4524 14D7  
                    l4516 14BE                      l4508 149D                      l4700 037A  
                    l4620 0208                      l4612 01DE                      l4604 01B4  
                    l5228 0FDF                      l5180 0EDA                      l5172 0EB7  
                    l5164 0E95                      l5156 0E72                      l5148 0E4F  
                    l5092 0D5A                      l5084 0D37                      l5076 0D14  
                    l5068 0CF1                      l5236 1E51                      l5260 07BF  
                    l5252 07B4                      l5244 07AC                      l5500 05C1  
                    l5420 04DA                      l5412 04C1                      l5404 04AC  
                    l5340 03F2                      l5332 03DA                      l5324 03C1  
                    l5316 03AC                      l5308 0392                      l4278 10F7  
                    l4294 1139                      l4286 1117                      l4390 12F9  
                    l4382 12E3                      l4374 12B9                      l4366 128F  
                    l4358 1265                      l4462 17BE                      l4454 1789  
                    l4470 17E8                      l4438 1757                      l4446 176E  
                    l4550 1533                      l4542 1516                      l4534 14FD  
                    l4526 14DB                      l4518 14C2                      l4702 0385  
                    l4630 0236                      l4622 020C                      l4614 01E2  
                    l4606 01B8                      l4710 1E90                      l5190 0F06  
                    l5182 0EE3                      l5174 0EC0                      l5166 0E9E  
                    l5158 0E7B                      l5094 0D63                      l5086 0D40  
                    l5078 0D1D                      l5238 1E5E                      l5270 07D6  
                    l5262 07C1                      l5254 07B9                      l5246 07AF  
                    l5502 05C8                      l5430 04F7                      l5422 04E0  
                    l5414 04C8                      l5406 04B2                      l5350 040C  
                    l5342 03F7                      l5334 03E0                      l5326 03C8  
                    l5318 03B2                      l5510 1DE6                      l4296 113E  
                    l4288 111C                      l4392 12FC                      l4384 12F0  
                    l4376 12CE                      l4368 12A4                      l4480 17FE  
                    l4472 17F0                      l4464 17C4                      l4456 1797  
                    l4448 1774                      l4560 1542                      l4552 1534  
                    l4544 151A                      l4536 1501                      l4528 14E8  
                    l4704 0388                      l4640 0264                      l4632 023A  
                    l4624 0210                      l4616 01E6                      l4608 01BC  
                    l4720 1EAB                      l4712 1E97                      l5192 0F0E  
                    l5184 0EEB                      l5176 0EC8                      l5168 0EA5  
                    l5096 0D6B                      l5088 0D48                      l4800 13B8  
                    l5280 07EC                      l5272 07D7                      l5264 07C8  
                    l5256 07BD                      l5248 07B0                      l5504 05CC  
                    l5432 04FC                      l5424 04E7                      l5440 0514  
                    l5416 04CC                      l5408 04B7                      l5360 042C  
                    l5344 03FC                      l5336 03E7                      l5352 0414  
                    l5328 03CC                      l5512 1DF3                      l5520 1E80  
                    l5600 0680                      l4298 114A                      l4394 12FD  
                    l4386 12F3                      l4378 12DB                      l4474 17F6  
                    l4466 17D2                      l4458 1798                      l4562 1545  
                    l4554 1537                      l4546 152A                      l4538 1505  
                    l4490 1445                      l4482 1423                      l4706 038B  
                    l4650 02A3                      l4642 0279                      l4634 024F  
                    l4626 0225                      l4618 01FB                      l4570 00FF  
                    l4714 1E9A                      l4730 11A9                      l4722 1185  
                    l5194 0F17                      l5186 0EF4                      l5178 0ED1  
                    l5098 0D74                      l4810 13E4                      l4802 13C1  
                    l5274 07DB                      l5266 07CD                      l5258 07BE  
                    l5282 1DCA                      l5290 1F10                      l5450 0532  
                    l5442 051A                      l5434 0501                      l5426 04EC  
                    l5418 04D4                      l5370 0448                      l5362 0432  
                    l5354 041A                      l5346 0401                      l5338 03EC  
                    l5506 1DE3                      l5514 1D84                      l5522 1E87  
                    l5530 1ECB                      l5610 06AC                      l5602 068F  
                    l4396 1308                      l4388 12F5                      l4476 17F7  
                    l4468 17DA                      l4564 154A                      l4556 153B  
                    l4548 152C                      l4492 1449                      l4484 1428  
                    l4708 0390                      l4660 02DA                      l4652 02B0  
                    l4644 0286                      l4636 025C                      l4628 0232  
                    l4580 0136                      l4572 010C                      l4716 1E9D  
                    l4740 11C7                      l4732 11AD                      l4724 118C  
                    l5196 0F20                      l5188 0EFD                      l4900 0A14  
                    l4820 1412                      l4812 13ED                      l4804 13CA  
                    l5276 07DD                      l5268 07D2                      l5284 1DCB  
                    l5292 1F27                      l5460 054C                      l5452 0537  
                    l5444 0520                      l5436 0508                      l5428 04F2  
                    l5380 0467                      l5372 044C                      l5364 0437  
                    l5356 0420                      l5348 0408                      l5508 1DE4  
                    l5516 1E72                      l5532 1ECF                      l5524 1EB7  
                    l5540 1D7C                      l5620 06D6                      l5612 06BB  
                    l5604 0694                      l4398 130B                      l4478 17F8  
                    l4558 153F                      l4494 145E                      l4486 1434  
                    l4670 0308                      l4662 02DE                      l4654 02B4  
                    l4646 028A                      l4638 0260                      l4590 0164  
                    l4582 013A                      l4574 0110                      l4566 00EE  
                    l4718 1EA3                      l4750 11FE                      l4742 11CD  
                    l4726 1193                      l4734 11B4                      l5198 0F29  
                    l4910 0A40                      l4902 0A1D                      l4830 08E3  
                    l4822 141B                      l4814 13F6                      l4806 13D3  
                    l5278 07E2                      l5286 1DCD                      l5294 1F2B  
                    l5470 056C                      l5454 053C                      l5446 0527  
                    l5462 0554                      l5438 050C                      l5390 0481  
                    l5382 046C                      l5366 043C                      l5358 0427  
                    l5374 0454                      l5518 1E78                      l5526 1EB8  
                    l5534 1D9A                      l5542 07EE                      l5550 1DFA  
                    l5630 0701                      l5622 06DD                      l5614 06C4  
                    l5606 069A                      l4496 146B                      l4488 1441  
                    l4680 0336                      l4672 030C                      l4664 02E2  
                    l4656 02B8                      l4648 028E                      l4592 0168  
                    l4584 013E                      l4576 0114                      l4568 00F3  
                    l4760 122D                      l4744 11DB                      l4752 120C  
                    l4736 11B8                      l4728 1194                      l4920 0A6B  
                    l4912 0A48                      l4904 0A25                      l4840 090D  
                    l4832 08EA                      l4824 08C8                      l4816 13FE  
                    l4808 13DB                      l5288 1DDA                      l5296 1F40  
                    l5480 0588                      l5472 0572                      l5464 055A  
                    l5456 0541                      l5448 052C                      l5392 0488  
                    l5384 0472                      l5376 045A                      l5368 0441  
                    l5528 1EC4                      l5536 1D75                      l5544 07EF  
                    l5552 1E00                      l5640 0730                      l5632 0706  
                    l5624 06E8                      l5616 06CB                      l5608 06A6  
                    l5560 05DA                      l4498 146F                      l4690 036D  
                    l4682 034B                      l4674 0321                      l4666 02F7  
                    l4658 02CD                      l4594 017D                      l4586 0153  
                    l4578 0129                      l4762 1238                      l4754 1214  
                    l4746 11DC                      l4738 11C6                      l4930 0A97  
                    l4922 0A74                      l4914 0A51                      l4906 0A2E  
                    l4850 0939                      l4842 0916                      l4834 08F3  
                    l4826 08D1                      l4818 1409                      l4770 1321  
                    l5298 1F46                      l5490 05A7                      l5482 058C  
                    l5474 0577                      l5466 0560                      l5458 0548  
                    l5394 048C                      l5386 0477                      l5378 0460  
                    l5538 1D76                      l5546 07F5                      l5554 1E07  
                    l5650 0761                      l5642 0736                      l5626 06EF  
                    l5634 0711                      l5618 06D0                      l5570 05F8  
                    l5562 05E0                      l4692 0370                      l4684 0358  
                    l4676 032E                      l4668 0304                      l4596 018A  
                    l4588 0160                      l4764 123B                      l4748 11F8  
                    l4756 1222                      l4940 0AC3                      l4932 0AA0  
                    l4924 0A7D                      l4916 0A5A                      l4908 0A37  
                    l4860 0965                      l4852 0942                      l4844 091F  
                    l4836 08FC                      l4828 08DA                      l4780 135F  
                    l4772 1331                      l5492 05AC                      l5476 057C  
                    l5468 0567                      l5484 0594                      l5388 047C  
                    l5396 0494                      l5556 1E08                      l5548 1DF9  
                    l5652 076F                      l5644 0743                      l5636 071A  
                    l5628 06FA                      l5580 0615                      l5572 05FD  
                    l5564 05E6                      l4694 0372                      l4686 035C  
                    l4678 0332                      l4598 018E                      l4758 122A  
                    l4950 0AEE                      l4942 0ACC                      l4934 0AA9  
                    l4926 0A86                      l4918 0A63                      l4870 0991  
                    l4862 096E                      l4854 094B                      l4846 0928  
                    l4838 0905                      l4790 138D                      l4782 1368  
                    l4774 1332                      l4766 1315                      l5494 05B2  
                    l5486 059A                      l5478 0581                      l5398 049A  
                    l5654 0784                      l5646 074B                      l5638 0720  
                    l5590 063E                      l5582 0624                      l5574 0603  
                    l5566 05EC                      l5558 05D5                      l4696 0376  
                    l4688 0360                      l4960 0B19                      l4952 0AF6  
                    l4944 0AD3                      l4936 0AB1                      l4928 0A8E  
                    l4880 09BC                      l4872 0999                      l4864 0976  
                    l4856 0953                      l4848 0930                      l4792 1395  
                    l4784 1372                      l4776 134A                      l4768 131D  
                    l5496 05B7                      l5488 05A0                      l5656 078A  
                    l5648 075B                      l5592 0646                      l5584 062A  
                    l5576 0609                      l5568 05F2                      l4698 0379  
                    l4970 0B45                      l4962 0B22                      l4954 0AFF  
                    l4946 0ADC                      l4938 0ABA                      l4890 09E8  
                    l4882 09C5                      l4874 09A2                      l4866 097F  
                    l4858 095C                      l4794 139E                      l4786 137B  
                    l4778 1356                      l5498 05BC                      l5658 0799  
                    l5586 0638                      l5594 0654                      l5578 060F  
                    l4980 0B71                      l4972 0B4E                      l4964 0B2B  
                    l4956 0B08                      l4948 0AE5                      l4892 09F1  
                    l4884 09CE                      l4876 09AB                      l4868 0988  
                    l4796 13A7                      l4788 1384                      l5596 066E  
                    l5588 0639                      ?_isr 0070                      l4990 0B9D  
                    l4982 0B7A                      l4974 0B57                      l4966 0B34  
                    l4958 0B11                      l4894 09FA                      l4886 09D7  
                    l4878 09B4                      l4798 13B0                      l5598 0674  
                    l4992 0BA5                      l4984 0B82                      l4976 0B5F  
                    l4968 0B3C                      l4896 0A02                      l4888 09DF  
                    l4994 0BAE                      l4986 0B8B                      l4978 0B68  
                    l4898 0A0B                      l4996 0BB7                      l4988 0B94  
                    l4998 0BC0                      STR_1 003B                      STR_2 001B  
                    STR_3 00CE                      STR_4 008D                      STR_5 00BE  
                    STR_6 00E8                      STR_7 009E                      STR_8 00AE  
                    STR_9 005A                      u6000 1FB4                      u6001 1FB3  
                    u6020 1FC5                      u6021 1FC4                      u6110 1091  
                    u6015 1FBC                      u6111 1090                      u6040 1FD6  
                    u7000 096E                      u6041 1FD5                      u6105 1088  
                    u7001 096D                      u6210 10E6                      u6130 10A2  
                    u7010 097F                      u6035 1FCD                      u6211 10E5  
                    u6131 10A1                      u7011 097E                      _PEIE 005E  
                    u6060 1FE7                      u6300 1139                      u7100 09E8  
                    u7020 0988                      u6061 1FE6                      u6205 10DD  
                    u6125 1099                      u6301 1138                      u7101 09E7  
                    u7021 0987                      u6230 10F7                      u6150 10B3  
                    u7110 09F1                      u7030 0991                      u6055 1FDE  
                    u6231 10F6                      u6151 10B2                      u7111 09F0  
                    u7031 0990                      u6080 1FF8                      u6320 114A  
                    u6240 1106                      u6400 1E4A                      u8000 0E00  
                    u7200 0A5A                      u7120 09FA                      u7040 09A2  
                    u6081 1FF7                      u6225 10EE                      u6145 10AA  
                    u6321 1149                      u6241 1105                      u6401 1E49  
                    u8001 0DFF                      u7201 0A59                      u7121 09F9  
                    u7041 09A1                      u6170 10C4                      u6090 1080  
                    u8010 0E09                      u7210 0A63                      u7130 0A0B  
                    u7050 09AB                      u6075 1FEF                      u6171 10C3  
                    u6091 107F                      u6315 1141                      u8011 0E08  
                    u7211 0A62                      u7131 0A0A                      u7051 09AA  
                    u5540 1EE8                      u5700 0840                      u6340 115B  
                    u6260 1117                      u6500 1742                      u8100 0E72  
                    u8020 0E12                      u7300 0ACC                      u7220 0A74  
                    u7140 0A14                      u7060 09B4                      u5541 1EE7  
                    u5701 083F                      u6165 10BB                      u6341 115A  
                    u6261 1116                      u6501 1741                      u8101 0E71  
                    u8021 0E11                      u7301 0ACB                      u7221 0A73  
                    u7141 0A13                      u7061 09B3                      u5550 1F06  
                    u5710 084A                      u6190 10D5                      u6510 1748  
                    u8110 0E7B                      u8030 0E23                      u7310 0ADC  
                    u7230 0A7D                      u7150 0A1D                      u7070 09C5  
                    u5711 0849                      u6191 10D4                      u6335 1152  
                    u6255 110E                      u6511 1747                      u8111 0E7A  
                    u8031 0E22                      u7311 0ADB                      u7231 0A7C  
                    u7151 0A1C                      u7071 09C4                      u5560 1F0E  
                    u5800 08A2                      u5720 0854                      u5640 0808  
                    u6360 116C                      u6280 1128                      u6600 17F0  
                    u6520 1751                      u8200 0EE3                      u8120 0E8C  
                    u8040 0E2C                      u7400 0B45                      u7320 0AE5  
                    u7240 0A86                      u7160 0A2E                      u7080 09CE  
                    u5561 1F0D                      u5801 08A1                      u5721 0853  
                    u5641 0807                      u6185 10CC                      u6361 116B  
                    u6281 1127                      u6601 17EF                      u6521 1750  
         __end_of_PIEZO_D 0392                      u8201 0EE2                      u8121 0E8B  
                    u8041 0E2B                      u7401 0B44                      u7321 0AE4  
                    u7241 0A85                      u7161 0A2D                      u7081 09CD  
                    u5810 08AC                      u5730 085E                      u5650 080E  
                    u6530 1757                      u6450 16B6                      u6610 1192  
                    u8210 0EF4                      u8130 0E95                      u8050 0E35  
                    u7410 0B4E                      u7330 0AEE                      u7250 0A97  
                    u7170 0A37                      u7090 09D7                      u5555 1EF9  
                    u5811 08AB                      u5731 085D                      u5651 080D  
                    u6355 1163                      u6275 111F                      u6531 1756  
                    u6451 16B5                      u6611 1191                      u8211 0EF3  
                    u8131 0E94                      u8051 0E34                      u7411 0B4D  
                    u7331 0AED                      u7251 0A96                      u7171 0A36  
                    u7091 09D6                      u5556 1EFA                      u5820 08B6  
                    u5740 086A                      u5660 0818                      u6380 117D  
                    u6540 176D                      u6460 16E1                      u6620 11B3  
                    u8300 0F5D                      u8220 0EFD                      u8140 0E9E  
                    u8060 0E46                      u7500 0BB7                      u7420 0B57  
                    u7340 0AFF                      u7260 0AA0                      u7180 0A40  
                    u6700 1368                      u5557 1EFF                      u5821 08B5  
                    u5741 0869                      u5661 0817                      u6381 117C  
                    u6541 176C                      u6461 16E0                      u6621 11B2  
                    u8301 0F5C                      u8221 0EFC                      u8141 0E9D  
                    u8061 0E45                      u7501 0BB6                      u7421 0B56  
                    u7341 0AFE                      u7261 0A9F                      u7181 0A3F  
                    u6701 1367                      u5558 1F00                      u5830 08C0  
                    u5750 0870                      u5670 0822                      u6390 1E3C  
                    u6550 1781                      u6470 1708                      u6630 11C5  
                    u8310 0F66                      u8230 0F06                      u8150 0EAE  
                    u8070 0E4F                      u7510 0BC0                      u7430 0B68  
                    u7350 0B08                      u7270 0AA9                      u7190 0A51  
                    u6710 137B                      u5559 1F05                      u5831 08BF  
                    u5751 086F                      u5671 0821                      u6375 1174  
                    u6295 1130                      u6391 1E3B                      u6551 1780  
                    u6471 1707                      u6455 16B2                      u6631 11C4  
                    u8311 0F65                      u8231 0F05                      u8151 0EAD  
                    u8071 0E4E                      u7511 0BBF                      u7431 0B67  
                    u7351 0B07                      u7271 0AA8                      u7191 0A50  
                    u6711 137A                      u5760 087A                      u5680 082C  
                    u6560 1796                      u6480 1728                      u6640 11DA  
                    u8320 0F6F                      u8240 0F17                      u8160 0EB7  
                    u8080 0E58                      u7600 0C29                      u7520 0BD1  
                    u7440 0B71                      u7360 0B11                      u7280 0ABA  
                    u6800 13E4                      u6720 1384                      u8400 1F33  
                    u5761 0879                      u5681 082B                      u6561 1795  
                    u6545 1769                      u6481 1727                      u6641 11D9  
                    u8321 0F6E                      u8241 0F16                      u8161 0EB6  
                    u8081 0E57                      u7601 0C28                      u7521 0BD0  
                    u7441 0B70                      u7361 0B10                      u7281 0AB9  
                    u6801 13E3                      u6721 1383                      u8401 1F2F  
                    u5770 0884                      u5690 0836                      u6570 17B6  
                    u6490 1736                      u6650 120B                      u8330 0F80  
                    u8250 0F20                      u8170 0EC0                      u8090 0E69  
                    u7610 0C3A                      u7530 0BDA                      u7450 0B7A  
                    u7370 0B22                      u7290 0AC3                      u6810 13ED  
                    u6730 138D                      u8410 1F3D                      u5771 0883  
                    u5691 0835                      u6571 17B5                      u6555 177D  
                    u6491 1735                      u6651 120A                      u6635 11C1  
                    u8331 0F7F                      u8251 0F1F                      u8171 0EBF  
                    u8091 0E68                      u7611 0C39                      u7531 0BD9  
                    u7451 0B79                      u7371 0B21                      u7291 0AC2  
                    u6811 13EC                      u6731 138C                      u8411 1F39  
                    u5780 088E                      u5940 1F81                      u6580 17D1  
                    u6660 1221                      u8340 0F89                      u8260 0F29  
                    u8180 0ED1                      u7700 0CA3                      u7620 0C43  
                    u7540 0BE3                      u7460 0B8B                      u7380 0B2B  
                    u6900 08FC                      u6820 13F6                      u6740 139E  
                    u8500 03E6                      u5781 088D                      u5941 1F80  
                    u6581 17D0                      u6565 1792                      u6661 1220  
                    u6645 11D6                      u8341 0F88                      u8261 0F28  
                    u8181 0ED0                      u7701 0CA2                      u7621 0C42  
                    u7541 0BE2                      u7461 0B8A                      u7381 0B2A  
                    u6901 08FB                      u6821 13F5                      u6741 139D  
                    u8501 03E5                      u5790 0898                      u6590 17E7  
                    u8350 0F92                      u8270 0F3A                      u8190 0EDA  
                    u7710 0CAC                      u7630 0C4C                      u7550 0BF4  
                    u7470 0B94                      u7390 0B34                      u6910 0905  
                    u6830 1409                      u6750 13A7                      u6670 132E  
                    u8414 1F36                      u8510 03EC                      u8430 039A  
                    u5791 0897                      u6591 17E6                      u6655 1207  
                    u8351 0F91                      u8271 0F39                      u8191 0ED9  
                    u7711 0CAB                      u7631 0C4B                      u7551 0BF3  
                    u7471 0B93                      u7391 0B33                      u6911 0904  
                    u6831 1406                      u6751 13A6                      u6671 132D  
                    u8511 03EB                      u8431 0399                      u5960 1F92  
         __end_of_PIEZO_S 1315                      u8360 0FFE                      u8280 0F43  
                    u7800 0D14                      u7720 0CB5                      u7640 0C5D  
                    u7560 0BFD                      u7480 0B9D                      u6920 0916  
                    u6840 1412                      u6760 13B0                      u6680 1356  
                    u8424 1F40                      u8600 0466                      u8520 0408  
                    u8440 03A0                      u5961 1F91                      u6585 17CD  
                    u6665 121D                      u8361 0FFB                      u8281 0F42  
                    u7801 0D13                      u7721 0CB4                      u7641 0C5C  
                    u7561 0BFC                      u7481 0B9C                      u6921 0915  
                    u6841 1411                      u6761 13AF                      u6681 1355  
                    u8601 0465                      u8521 0407                      u8441 039F  
                    u8290 0F4C                      u7810 0D1D                      u7730 0CC5  
                    u7650 0C66                      u7570 0C06                      u7490 0BAE  
                    u6930 091F                      u6850 141B                      u6770 13C1  
                    u6690 135F                      u8370 1F1A                      u8610 046C  
                    u8530 041A                      u8450 03A6                      u5955 1F89  
                    u6595 17E3                      u8291 0F4B                      u7811 0D1C  
                    u7731 0CC4                      u7651 0C65                      u7571 0C05  
                    u7491 0BAD                      u6931 091E                      u6851 141A  
                    u6771 13C0                      u6691 135E                      u6675 132A  
                    u8371 1F16                      u8611 046B                      u8531 0419  
                    u8451 03A5                      u5980 1FA3                      u7900 0D86  
                    u7820 0D2E                      u7740 0CCE                      u7660 0C6F  
                    u7580 0C17                      u6940 0928                      u6860 08D1  
                    u6780 13CA                      u8380 1F24                      u8700 04E6  
                    u8620 0488                      u8540 0420                      u8460 03AC  
                    u5981 1FA2                      u8365 0FF8                      u7901 0D85  
                    u7821 0D2D                      u7741 0CCD                      u7661 0C6E  
                    u7581 0C16                      u6941 0927                      u6861 08D0  
                    u6781 13C9                      u8381 1F20                      u8701 04E5  
                    u8621 0487                      u8541 041F                      u8461 03AB  
                    u7910 0D97                      u7830 0D37                      u7750 0CD7  
                    u7670 0C80                      u7590 0C20                      u6950 0939  
                    u6870 08DA                      u6790 13D3                      u8710 04EC  
                    u8630 049A                      u8550 0426                      u8470 03C8  
                    u5975 1F9A                      u7911 0D96                      u7831 0D36  
                    u7751 0CD6                      u7671 0C7F                      u7591 0C1F  
                    u6951 0938                      u6871 08D9                      u6791 13D2  
                    u8711 04EB                      u8631 0499                      u8551 0425  
                    u8471 03C7                      u7920 0DA0                      u7840 0D40  
                    u7760 0CE8                      u7680 0C89                      u6960 0942  
                    u6880 08E3                      u8384 1F1D                      u8800 0566  
                    u8720 0508                      u8640 04A0                      u8560 042C  
                    u8480 03DA                      u7921 0D9F                      u7841 0D3F  
                    u7761 0CE7                      u7681 0C88                      u6961 0941  
                    u6881 08E2                      u8801 0565                      u8721 0507  
                    u8641 049F                      u8561 042B                      u8481 03D9  
                    u7930 0DA9                      u7850 0D51                      u7770 0CF1  
                    u7690 0C92                      u6970 094B                      u6890 08F3  
                    u8394 1F27                      u8810 056C                      u8730 051A  
                    u8650 04A6                      u8570 0448                      u8490 03E0  
                    u5995 1FAB                      u7931 0DA8                      u7851 0D50  
                    u7771 0CF0                      u7691 0C91                      u6971 094A  
                    u6891 08F2                      u8811 056B                      u8731 0519  
                    u8651 04A5                      u8571 0447                      u8491 03DF  
                    u7940 0DBA                      u7860 0D5A                      u7780 0CFA  
                    u6980 095C                      u8820 0588                      u8740 0520  
                    u8660 04AC                      u8580 045A                      u8900 1EDB  
                    u7941 0DB9                      u7861 0D59                      u7781 0CF9  
                    u6981 095B                      u8821 0587                      u8741 051F  
                    u8661 04AB                      u8581 0459                      u8901 1EDA  
                    u7950 0DC3                      u7870 0D63                      u7790 0D0B  
                    u6990 0965                      u8830 059A                      u8750 0526  
                    u8670 04C8                      u8590 0460                      u8910 1D82  
                    u7951 0DC2                      u7871 0D62                      u7791 0D0A  
                    u6991 0964                      u8831 0599                      u8751 0525  
                    u8671 04C7                      u8591 045F                      u7960 0DCC  
                    u7880 0D74                      u8840 05A0                      u8760 052C  
                    u8680 04DA                      u8920 07FD                      u7961 0DCB  
                    u7881 0D73                      u8841 059F                      u8761 052B  
                    u8681 04D9                      u8921 07FC                      u7970 0DDD  
                    u7890 0D7D                      u8850 05A6                      u8770 0548  
                    u8690 04E0                      u8930 0637                      u7971 0DDC  
                    u7891 0D7C                      u8851 05A5                      u8771 0547  
                    u8691 04DF                      u8931 0636                      u7980 0DE6  
                    u8860 05AC                      u8780 055A                      u8940 0653  
                    u7981 0DE5                      u8861 05AB                      u8781 0559  
                    u8941 0652                      u7990 0DEF                      u8870 05C8  
                    u8790 0560                      u8950 06DD                      u7991 0DEE  
                    u8871 05C7                      u8791 055F                      u8951 06DC  
                    u8935 0633                      u8880 1E78                      u8960 0719  
                    u8881 1E77                      u8961 0718                      u8945 064F  
                    u8890 1ECF                      u8970 0720                      u8971 071F  
                    u8980 074B                      u8981 074A                      u8990 07A1  
                    u8991 07A0                      _TMR2 0011                      _Init 07A7  
                    _data 004E                      _flag 004F                      _draw 1F10  
                    _main 05D5                      btemp 007E           __end_of_CapInit 123F  
            lcd_goto@data 005C                      start 0012         ___bmul@multiplier 0055  
              _GetReading 154C                     ??_isr 0078       __end_of_DisplayLEDs 1000  
          ??_led_display1 0052            ??_led_display2 0052            ??_led_display3 0052  
                   ?_Init 0070                     ?_draw 0070                     ?_main 0070  
                   STR_10 006B                     STR_11 005A                     STR_12 007C  
                   STR_13 005A                     STR_14 00DD                     _T1CON 0010  
                   _T2CON 0012                     i1l930 15CE                     i1l931 1611  
                   i1l940 15F2                     i1l932 15D2                     i1l941 1694  
                   i1l933 15D6                     i1l942 164B                     i1l950 1637  
                   i1l934 15DA                     i1l951 163D                     i1l943 1613  
                   i1l935 15DE                     i1l960 1015                     i1l944 1668  
                   i1l952 1643                     i1l928 1612                     i1l936 15E2  
                   i1l961 1016                     i1l953 1649                     i1l945 1619  
                   i1l929 15F4                     i1l937 15E6                     i1l970 1078  
                   i1l962 101F                     i1l954 169E                     i1l946 161F  
                   i1l938 15EA                     i1l794 1E1D                     i1l971 1078  
                   i1l963 102A                     i1l947 1625                     i1l939 15EE  
                   i1l795 1E14                     i1l964 1035                     i1l948 162B  
                   i1l796 1E24                     i1l965 1040                     i1l957 1D6B  
                   i1l949 1631                     i1l797 1E24                     i1l966 104B  
                   i1l967 1056                     i1l968 1061                     i1l969 106C  
                   _PIEZO 1423                     _TMR1H 000F                     _TMR1L 000E  
                   _PORTB 0006                     _PORTE 0009                     _TRISA 0085  
                   _TRISB 0086                     _TRISC 0087                     _TRISD 0088  
                   _TRISE 0089                     _Flags 004D           __end_of_e_pulse 1E6F  
         __end_of_lcd_clr 1D9A           __end_of_led_off 1EB4                     _delay 1EDE  
                   _index 0050                     main@i 0065                     _store 0801  
                   pclath 000A      __size_of_checkstatus 0243                     status 0003  
                   wtemp0 007E           __end_of_winlose 1800              __end_of_Init 07EE  
            __end_of_draw 1F7A              __end_of_main 07A7                    ??_Init 0063  
                  ??_draw 005A                    ??_main 0064                    ?_PIEZO 0070  
               ??_PIEZO_D 005A                 ??_PIEZO_S 005A     __end_of_RestartTimer1 1D75  
                  ?_delay 0052              ?_send_config 0070                    _CCPR1L 0015  
                  _ANSELA 0185                    _ANSELB 0186                    _ANSELD 0188  
                  _ANSELE 0189                 ??_CapInit 0056                    ?_store 0070  
                  _T1GCON 008F                    i1l4100 15E2                    i1l4102 15E6  
                  i1l4110 15F4                    i1l4200 1052                    i1l4120 162B  
                  i1l4112 1613                    i1l4104 15EA                    i1l4202 105D  
                  i1l4130 164A                    i1l4122 1631                    i1l4114 1619  
                  i1l4106 15EE                    i1l4204 1068                    i1l4124 1637  
                  i1l4116 161F                    i1l4108 15F3                    i1l4132 164B  
                  i1l4206 1073                    i1l4126 163D                    i1l4118 1625  
                  i1l4134 1668                    i1l4070 1E13                    i1l4128 1643  
                  i1l4136 1694                    i1l4080 1579                    i1l4072 1E17  
                  i1l4138 1699                    i1l4090 15CE                    i1l4082 158E  
                  i1l4074 1E1D                    i1l4340 1D63                    i1l4092 15D2  
                  i1l4084 15A3                    i1l4076 154C                    i1l4190 101B  
                  i1l4342 1D68                    i1l4094 15D6                    i1l4086 15A9  
                  i1l4078 156E                    i1l4192 1026                    i1l4184 1003  
                  i1l4344 1D69                    i1l4096 15DA                    i1l4088 15CD  
                  i1l4194 1031                    i1l4186 100F                    i1l4346 1D6A  
                  i1l4098 15DE                    i1l4196 103C                    i1l4188 1016  
                  i1l4198 1047              ?_send_string 0070                    u560_25 1584  
                  u561_25 1599                    u562_20 15CC                    _OSCCON 0090  
                  u562_21 15CB                    u562_25 15C8                    u563_25 1674  
                  u557_20 1E23                    u557_21 1E22                    u590_20 1052  
                  u590_21 1051                    u558_25 1553                    u591_20 105D  
                  u591_21 105C                    u559_25 1565                    u592_20 1068  
                  u584_20 100F                    u592_21 1067                    u584_21 100E  
                  u593_20 1073                    u585_20 101B                    u593_21 1072  
                  u585_21 101A                    u586_20 1026                    u586_21 1025  
                  u587_20 1031                    u587_21 1030                    u588_20 103C  
                  u588_21 103B                    u589_20 1047                    u589_21 1046  
                  _TMR2IE 0461                    _TMR2IF 0061                    _TMR1ON 0080  
                  _TMR2ON 0092               _DisplayLEDs 1315          __end_of_lcd_goto 1E90  
                  ___bmul 1E2F               ?_GetReading 0070                    _bigval 007C  
                  _matrix 003B                 ??_e_pulse 005A                    _result 0051  
               ??_lcd_clr 005B                    clrloop 1D5C                 ??_led_off 0054  
        ??_SetNextChannel 0070          __end_of_player_1 1D84          __end_of_player_2 07FF  
                  saved_w 007E                 ??_winlose 0056      __end_of_led_display1 2000  
    __end_of_led_display2 10FF      __end_of_led_display3 1185             __end_of_PIEZO 154C  
     ___bmul@multiplicand 0052            __pcstackCOMMON 0070             __end_of_delay 1F10  
      __size_of_checkflag 001A             __end_of_store 08C8              winlose@i_568 0061  
            winlose@i_569 005D              winlose@j_570 005F                   ??_PIEZO 005A  
      __size_of_lcd_shift 0016                   ??_delay 0056                   ??_store 0052  
              __pbssBANK0 0020                __pbssBANK1 00A0       __size_of_GetReading 0153  
              __pmaintext 05D5                   ?___bmul 0052                __pintentry 0004  
      __size_of_send_char 0019                   _CCP1CON 0017                   _CPSCON0 0108  
                 _CPSCON1 0109                   _PIEZO_D 00EE                   _PIEZO_S 123F  
                 _TMR1GIE 0467                   _TMR1GIF 0067                 ?_lcd_goto 0070  
                 _CapInit 1185         __end_of_checkflag 1E13      __size_of_send_config 0019  
    __size_of_send_string 002A  __size_ofi1_RestartTimer1 0009                   _Buttons 0032  
               ?_player_1 0070                 ?_player_2 0070         __end_of_lcd_shift 1DB0  
         __size_of___bmul 001F                   _e_pulse 1E4E                   _lcd_clr 1D84  
                 _average 0020                   _led_off 1E90              __size_of_isr 001C  
                 _reading 00A0                   _result1 0044     __size_of_led_display1 0086  
   __size_of_led_display2 0086     __size_of_led_display3 0086             ??_checkstatus 0057  
                 _winlose 169F                ??_lcd_goto 005B      end_of_initialization 1DC3  
       __end_of_send_char 1DF9                ??_player_1 0057                ??_player_2 0057  
            ?_DisplayLEDs 0070              ??_GetReading 0071             send_char@data 005A  
            _led_display1 1F7A              _led_display2 1079              _led_display3 10FF  
              _threshold4 004B        __end_of_GetReading 169F       __end_of_checkstatus 05D5  
  __size_of_RestartTimer1 0009         ??i1_RestartTimer1 0070            __end_of___bmul 1E4E  
     start_initialization 1DB0               __end_of_isr 1E2F             winlose@flag_w 005C  
                ??___bmul 0053             winlose@status 005A               __pbssCOMMON 007C  
           __pcstackBANK0 0052                  ?_PIEZO_D 0070                  ?_PIEZO_S 0070  
           _RestartTimer1 1D6C               _checkstatus 0392                  ?_CapInit 0070  
 __size_of_SetNextChannel 0076         __size_of_lcd_goto 0021                 _checkflag 1DF9  
       __size_of_player_1 000F         __size_of_player_2 0011      __size_of_DisplayLEDs FCEB  
               __ptext700 1DE0                 __ptext701 0392                 __ptext710 1423  
               __ptext702 1F10                 __ptext711 169F                 __ptext703 1DC7  
               __ptext720 1E13                 __ptext712 123F                 __ptext704 07A7  
               __ptext721 154C                 __ptext713 1E2F                 __ptext705 1E4E  
               __ptext722 1D63                 __ptext714 10FF                 __ptext706 1315  
               __ptext723 1003                 __ptext715 1079                 __ptext707 1185  
               __ptext724 0000                 __ptext716 1F7A                 __ptext708 1E90  
               __ptext717 1D6C                 __ptext709 00EE                 __ptext718 0801  
               __ptext719 1EDE                 __ptext692 0000                 __ptext693 1DF9  
               __ptext694 07EE                 __ptext695 1D75                 __ptext696 1D9A  
               __ptext697 1EB4                 __ptext698 1E6F                 __ptext699 1D84  
                ?_e_pulse 0070                 __pstrings 0015                 _lcd_shift 1D9A  
                ?_lcd_clr 0070                  ?_led_off 0070            __size_of_PIEZO 0129  
          ?_RestartTimer1 0070                  CapInit@i 005B                  CapInit@j 005D  
           ??_send_config 005A            __size_of_delay 0032                  ?_winlose 0070  
          __size_of_store 00C7                 delay@data 0052             ??_send_string 005B  
       interrupt_function 0004                ?_checkflag 0070                 _send_char 1DE0  
               _threshold 0049                ?_lcd_shift 0070               __stringbase 001A  
        __size_of_PIEZO_D 02A4          __size_of_PIEZO_S 00D6          __size_of_CapInit 00BA  
         i1_RestartTimer1 1D63       __end_of_send_config 1DE0                ?_send_char 0070  
            send_string@s 005C       __end_of_send_string 1EDE          __size_of_e_pulse 0021  
        __size_of_lcd_clr 0016          __size_of_led_off 0024           ??_RestartTimer1 0052  
                _lcd_goto 1E6F            _SetNextChannel 1003          __size_of_winlose 0161  
           __size_of_Init 0047             __size_of_draw 006A             __size_of_main 01D2  
             ??_checkflag 0057                  clear_ram 1D5B                  _player_1 1D75  
                _player_2 07EE                  _smallavg 0047               ??_lcd_shift 005B  
  __end_of_SetNextChannel 1079   __end_ofi1_RestartTimer1 1D6C               _send_config 1DC7  
            ?_checkstatus 0070                  intlevel1 0000               _send_string 1EB4  
            DisplayLEDs@k 0055               ??_send_char 005A                 stringcode 0015  
                stringdir 0015                  stringtab 0015           ?_SetNextChannel 0070  
      led_display1@value1 0053        led_display2@value2 0053        led_display3@value3 0053  
           ??_DisplayLEDs 0054  
