

HI-TECH Software PIC LITE Macro Assembler V1.00 build 12136 
                                                                                               Wed Jun 27 12:58:57 2012

HI-TECH Software Omniscient Code Generator (Lite mode) build 12136
     1  0000                     opt subtitle "HI-TECH Software Omniscient Code Generator (Lite mode) build 12136"
     2                           
     3                           opt pagewidth 120
     4                           
     5                           	opt lm
     6                           
     7                           	processor	16F727
     8                           clrc	macro
     9                           	bcf	3,0
    10  0000                     	endm
    11                           clrz	macro
    12                           	bcf	3,2
    13  0000                     	endm
    14                           setc	macro
    15                           	bsf	3,0
    16  0000                     	endm
    17                           setz	macro
    18                           	bsf	3,2
    19  0000                     	endm
    20                           skipc	macro
    21                           	btfss	3,0
    22  0000                     	endm
    23                           skipz	macro
    24                           	btfss	3,2
    25  0000                     	endm
    26                           skipnc	macro
    27                           	btfsc	3,0
    28  0000                     	endm
    29                           skipnz	macro
    30                           	btfsc	3,2
    31  0000                     	endm
    32  0000                     indf	equ	0
    33  0000                     indf0	equ	0
    34  0002                     pc	equ	2
    35  0002                     pcl	equ	2
    36  0003                     status	equ	3
    37  0004                     fsr	equ	4
    38  0004                     fsr0	equ	4
    39  0001                     c	equ	1
    40  0000                     z	equ	0
    41  000A                     pclath	equ	10
    42                           # 12 "PR28.c"
    43                           psect config,class=CONFIG,delta=2 ;# 
    44                           # 12 "PR28.c"
    45  2007  3CE4               dw 0x3CE4 ;# 
    46                           	FNCALL	_main,_Init
    47                           	FNCALL	_main,_send_config
    48                           	FNCALL	_main,_lcd_clr
    49                           	FNCALL	_main,_lcd_goto
    50                           	FNCALL	_main,_send_string
    51                           	FNCALL	_main,_delay
    52                           	FNCALL	_main,_lcd_shift
    53                           	FNCALL	_main,_PIEZO_S
    54                           	FNCALL	_main,_checkflag
    55                           	FNCALL	_main,_winlose
    56                           	FNCALL	_main,_PIEZO
    57                           	FNCALL	_main,_PIEZO_D
    58                           	FNCALL	_main,_draw
    59                           	FNCALL	_Init,_led_off
    60                           	FNCALL	_Init,_CapInit
    61                           	FNCALL	_Init,_winlose
    62                           	FNCALL	_lcd_clr,_send_config
    63                           	FNCALL	_lcd_clr,_delay
    64                           	FNCALL	_lcd_goto,_send_config
    65                           	FNCALL	_send_string,_send_char
    66                           	FNCALL	_lcd_shift,_send_config
    67                           	FNCALL	_lcd_shift,_delay
    68                           	FNCALL	_send_config,_delay
    69                           	FNCALL	_send_config,_e_pulse
    70                           	FNCALL	_PIEZO_S,_delay
    71                           	FNCALL	_PIEZO_S,_RestartTimer1
    72                           	FNCALL	_checkflag,_player_1
    73                           	FNCALL	_checkflag,_player_2
    74                           	FNCALL	_winlose,___bmul
    75                           	FNCALL	_PIEZO,_delay
    76                           	FNCALL	_PIEZO,_RestartTimer1
    77                           	FNCALL	_PIEZO_D,_delay
    78                           	FNCALL	_PIEZO_D,_RestartTimer1
    79                           	FNCALL	_draw,_led_display1
    80                           	FNCALL	_draw,_led_display2
    81                           	FNCALL	_draw,_led_display3
    82                           	FNCALL	_draw,_delay
    83                           	FNCALL	_draw,_led_off
    84                           	FNCALL	_led_off,_led_display1
    85                           	FNCALL	_led_off,_led_display2
    86                           	FNCALL	_led_off,_led_display3
    87                           	FNCALL	_CapInit,___bmul
    88                           	FNCALL	_player_1,_checkstatus
    89                           	FNCALL	_player_2,_checkstatus
    90                           	FNCALL	_checkstatus,_store
    91                           	FNCALL	_checkstatus,_DisplayLEDs
    92                           	FNCALL	_DisplayLEDs,_led_display1
    93                           	FNCALL	_DisplayLEDs,_led_display2
    94                           	FNCALL	_DisplayLEDs,_led_display3
    95                           	FNCALL	_send_char,_delay
    96                           	FNCALL	_send_char,_e_pulse
    97                           	FNCALL	_e_pulse,_delay
    98                           	FNROOT	_main
    99                           	FNCALL	_isr,_GetReading
   100                           	FNCALL	_GetReading,_SetNextChannel
   101                           	FNCALL	_GetReading,i1_RestartTimer1
   102                           	FNCALL	intlevel1,_isr
   103                           	global	intlevel1
   104                           	FNROOT	intlevel1
   105                           	global	_bigval
   106                           	global	_average
   107                           	global	_Buttons
   108                           	global	_matrix
   109                           	global	_result1
   110                           	global	_smallavg
   111                           	global	_threshold
   112                           	global	_threshold4
   113                           	global	_Flags
   114                           	global	_data
   115                           	global	_flag
   116                           	global	_index
   117                           	global	_result
   118                           	global	_reading
   119                           	global	_CCP1CON
   120  0017                     _CCP1CON	set	0x17
   121                           	global	_CCPR1L
   122  0015                     _CCPR1L	set	0x15
   123                           	global	_PORTB
   124  0006                     _PORTB	set	0x6
   125                           	global	_PORTE
   126  0009                     _PORTE	set	0x9
   127                           	global	_T1CON
   128  0010                     _T1CON	set	0x10
   129                           	global	_T2CON
   130  0012                     _T2CON	set	0x12
   131                           	global	_TMR1H
   132  000F                     _TMR1H	set	0xF
   133                           	global	_TMR1L
   134  000E                     _TMR1L	set	0xE
   135                           	global	_TMR2
   136  0011                     _TMR2	set	0x11
   137                           	global	_GIE
   138  005F                     _GIE	set	0x5F
   139                           	global	_PEIE
   140  005E                     _PEIE	set	0x5E
   141                           	global	_RA0
   142  0028                     _RA0	set	0x28
   143                           	global	_RA1
   144  0029                     _RA1	set	0x29
   145                           	global	_RA2
   146  002A                     _RA2	set	0x2A
   147                           	global	_RA3
   148  002B                     _RA3	set	0x2B
   149                           	global	_RA5
   150  002D                     _RA5	set	0x2D
   151                           	global	_RA6
   152  002E                     _RA6	set	0x2E
   153                           	global	_RA7
   154  002F                     _RA7	set	0x2F
   155                           	global	_RC0
   156  0038                     _RC0	set	0x38
   157                           	global	_RC1
   158  0039                     _RC1	set	0x39
   159                           	global	_RC3
   160  003B                     _RC3	set	0x3B
   161                           	global	_RC4
   162  003C                     _RC4	set	0x3C
   163                           	global	_RC5
   164  003D                     _RC5	set	0x3D
   165                           	global	_RC6
   166  003E                     _RC6	set	0x3E
   167                           	global	_RC7
   168  003F                     _RC7	set	0x3F
   169                           	global	_RE0
   170  0048                     _RE0	set	0x48
   171                           	global	_RE1
   172  0049                     _RE1	set	0x49
   173                           	global	_RE2
   174  004A                     _RE2	set	0x4A
   175                           	global	_TMR1GIF
   176  0067                     _TMR1GIF	set	0x67
   177                           	global	_TMR1ON
   178  0080                     _TMR1ON	set	0x80
   179                           	global	_TMR2IF
   180  0061                     _TMR2IF	set	0x61
   181                           	global	_TMR2ON
   182  0092                     _TMR2ON	set	0x92
   183                           	global	_OSCCON
   184  0090                     _OSCCON	set	0x90
   185                           	global	_PR2
   186  0092                     _PR2	set	0x92
   187                           	global	_T1GCON
   188  008F                     _T1GCON	set	0x8F
   189                           	global	_TRISA
   190  0085                     _TRISA	set	0x85
   191                           	global	_TRISB
   192  0086                     _TRISB	set	0x86
   193                           	global	_TRISC
   194  0087                     _TRISC	set	0x87
   195                           	global	_TRISD
   196  0088                     _TRISD	set	0x88
   197                           	global	_TRISE
   198  0089                     _TRISE	set	0x89
   199                           	global	_TMR1GIE
   200  0467                     _TMR1GIE	set	0x467
   201                           	global	_TMR2IE
   202  0461                     _TMR2IE	set	0x461
   203                           	global	_CPSCON0
   204  0108                     _CPSCON0	set	0x108
   205                           	global	_CPSCON1
   206  0109                     _CPSCON1	set	0x109
   207                           	global	_ANSELA
   208  0185                     _ANSELA	set	0x185
   209                           	global	_ANSELB
   210  0186                     _ANSELB	set	0x186
   211                           	global	_ANSELD
   212  0188                     _ANSELD	set	0x188
   213                           	global	_ANSELE
   214  0189                     _ANSELE	set	0x189
   215                           psect	strings,class=STRING,delta=2
   216                           global __pstrings
   217  1000                     __pstrings:
   218                           ;	global	stringdir,stringtab,__stringbase
   219  1000                     stringtab:
   220                           ;	String table - string pointers are 1 byte each
   221  1000                     stringcode:stringdir:
      + 1000                     stringdir:	
   222  1000  3010               movlw high(stringdir)
   223  1001  008A               movwf pclath
   224  1002  0804               movf fsr,w
   225  1003  0A84               incf fsr
   226  1004  0782               	addwf pc
   227  1005                     __stringbase:
   228  1005  3400               	retlw	0
   229                           psect	strings
   230                           	
   231  1006                     STR_2:	
   232  1006  3450               	retlw	80	;'P'
   233  1007  3452               	retlw	82	;'R'
   234  1008  3420               	retlw	32	;' '
   235  1009  3432               	retlw	50	;'2'
   236  100A  3438               	retlw	56	;'8'
   237  100B  3420               	retlw	32	;' '
   238  100C  342D               	retlw	45	;'-'
   239  100D  3420               	retlw	32	;' '
   240  100E  346D               	retlw	109	;'m'
   241  100F  3454               	retlw	84	;'T'
   242  1010  346F               	retlw	111	;'o'
   243  1011  3475               	retlw	117	;'u'
   244  1012  3463               	retlw	99	;'c'
   245  1013  3468               	retlw	104	;'h'
   246  1014  3420               	retlw	32	;' '
   247  1015  3477               	retlw	119	;'w'
   248  1016  3469               	retlw	105	;'i'
   249  1017  3474               	retlw	116	;'t'
   250  1018  3468               	retlw	104	;'h'
   251  1019  3420               	retlw	32	;' '
   252  101A  3454               	retlw	84	;'T'
   253  101B  3469               	retlw	105	;'i'
   254  101C  3463               	retlw	99	;'c'
   255  101D  3420               	retlw	32	;' '
   256  101E  3454               	retlw	84	;'T'
   257  101F  3461               	retlw	97	;'a'
   258  1020  3463               	retlw	99	;'c'
   259  1021  3420               	retlw	32	;' '
   260  1022  3454               	retlw	84	;'T'
   261  1023  346F               	retlw	111	;'o'
   262  1024  3465               	retlw	101	;'e'
   263  1025  3400               	retlw	0
   264                           psect	strings
   265                           	
   266  1026                     STR_1:	
   267  1026  3443               	retlw	67	;'C'
   268  1027  3479               	retlw	121	;'y'
   269  1028  3474               	retlw	116	;'t'
   270  1029  3472               	retlw	114	;'r'
   271  102A  346F               	retlw	111	;'o'
   272  102B  346E               	retlw	110	;'n'
   273  102C  3420               	retlw	32	;' '
   274  102D  3454               	retlw	84	;'T'
   275  102E  3465               	retlw	101	;'e'
   276  102F  3463               	retlw	99	;'c'
   277  1030  3468               	retlw	104	;'h'
   278  1031  346E               	retlw	110	;'n'
   279  1032  346F               	retlw	111	;'o'
   280  1033  346C               	retlw	108	;'l'
   281  1034  346F               	retlw	111	;'o'
   282  1035  3467               	retlw	103	;'g'
   283  1036  3469               	retlw	105	;'i'
   284  1037  3465               	retlw	101	;'e'
   285  1038  3473               	retlw	115	;'s'
   286  1039  3420               	retlw	32	;' '
   287  103A  3453               	retlw	83	;'S'
   288  103B  3464               	retlw	100	;'d'
   289  103C  346E               	retlw	110	;'n'
   290  103D  3420               	retlw	32	;' '
   291  103E  3442               	retlw	66	;'B'
   292  103F  3468               	retlw	104	;'h'
   293  1040  3464               	retlw	100	;'d'
   294  1041  3420               	retlw	32	;' '
   295  1042  3420               	retlw	32	;' '
   296  1043  3420               	retlw	32	;' '
   297  1044  3400               	retlw	0
   298                           psect	strings
   299                           	
   300  1045                     STR_9:	
   301  1045  3463               	retlw	99	;'c'
   302  1046  346F               	retlw	111	;'o'
   303  1047  346E               	retlw	110	;'n'
   304  1048  3467               	retlw	103	;'g'
   305  1049  3472               	retlw	114	;'r'
   306  104A  3461               	retlw	97	;'a'
   307  104B  3474               	retlw	116	;'t'
   308  104C  3475               	retlw	117	;'u'
   309  104D  346C               	retlw	108	;'l'
   310  104E  3461               	retlw	97	;'a'
   311  104F  3474               	retlw	116	;'t'
   312  1050  3469               	retlw	105	;'i'
   313  1051  346F               	retlw	111	;'o'
   314  1052  346E               	retlw	110	;'n'
   315  1053  3421               	retlw	33	;'!'
   316  1054  3420               	retlw	32	;' '
   317  1055  3400               	retlw	0
   318                           psect	strings
   319                           	
   320  1056                     STR_10:	
   321  1056  342A               	retlw	42	;'*'
   322  1057  342A               	retlw	42	;'*'
   323  1058  3470               	retlw	112	;'p'
   324  1059  346C               	retlw	108	;'l'
   325  105A  3461               	retlw	97	;'a'
   326  105B  3479               	retlw	121	;'y'
   327  105C  3465               	retlw	101	;'e'
   328  105D  3472               	retlw	114	;'r'
   329  105E  3431               	retlw	49	;'1'
   330  105F  3420               	retlw	32	;' '
   331  1060  3477               	retlw	119	;'w'
   332  1061  3469               	retlw	105	;'i'
   333  1062  346E               	retlw	110	;'n'
   334  1063  3473               	retlw	115	;'s'
   335  1064  342A               	retlw	42	;'*'
   336  1065  342A               	retlw	42	;'*'
   337  1066  3400               	retlw	0
   338                           psect	strings
   339                           	
   340  1067                     STR_12:	
   341  1067  342A               	retlw	42	;'*'
   342  1068  342A               	retlw	42	;'*'
   343  1069  3470               	retlw	112	;'p'
   344  106A  346C               	retlw	108	;'l'
   345  106B  3461               	retlw	97	;'a'
   346  106C  3479               	retlw	121	;'y'
   347  106D  3465               	retlw	101	;'e'
   348  106E  3472               	retlw	114	;'r'
   349  106F  3432               	retlw	50	;'2'
   350  1070  3420               	retlw	32	;' '
   351  1071  3477               	retlw	119	;'w'
   352  1072  3469               	retlw	105	;'i'
   353  1073  346E               	retlw	110	;'n'
   354  1074  3473               	retlw	115	;'s'
   355  1075  342A               	retlw	42	;'*'
   356  1076  342A               	retlw	42	;'*'
   357  1077  3400               	retlw	0
   358                           psect	strings
   359                           	
   360  1078                     STR_4:	
   361  1078  3450               	retlw	80	;'P'
   362  1079  346C               	retlw	108	;'l'
   363  107A  3461               	retlw	97	;'a'
   364  107B  3479               	retlw	121	;'y'
   365  107C  3465               	retlw	101	;'e'
   366  107D  3472               	retlw	114	;'r'
   367  107E  3420               	retlw	32	;' '
   368  107F  3432               	retlw	50	;'2'
   369  1080  3420               	retlw	32	;' '
   370  1081  343D               	retlw	61	;'='
   371  1082  3420               	retlw	32	;' '
   372  1083  3467               	retlw	103	;'g'
   373  1084  3472               	retlw	114	;'r'
   374  1085  3465               	retlw	101	;'e'
   375  1086  3465               	retlw	101	;'e'
   376  1087  346E               	retlw	110	;'n'
   377  1088  3400               	retlw	0
   378                           psect	strings
   379                           	
   380  1089                     STR_7:	
   381  1089  3450               	retlw	80	;'P'
   382  108A  346C               	retlw	108	;'l'
   383  108B  3461               	retlw	97	;'a'
   384  108C  3479               	retlw	121	;'y'
   385  108D  3465               	retlw	101	;'e'
   386  108E  3472               	retlw	114	;'r'
   387  108F  3420               	retlw	32	;' '
   388  1090  3431               	retlw	49	;'1'
   389  1091  3427               	retlw	39	;'''
   390  1092  3473               	retlw	115	;'s'
   391  1093  3420               	retlw	32	;' '
   392  1094  3474               	retlw	116	;'t'
   393  1095  3475               	retlw	117	;'u'
   394  1096  3472               	retlw	114	;'r'
   395  1097  346E               	retlw	110	;'n'
   396  1098  3400               	retlw	0
   397                           psect	strings
   398                           	
   399  1099                     STR_8:	
   400  1099  3450               	retlw	80	;'P'
   401  109A  346C               	retlw	108	;'l'
   402  109B  3461               	retlw	97	;'a'
   403  109C  3479               	retlw	121	;'y'
   404  109D  3465               	retlw	101	;'e'
   405  109E  3472               	retlw	114	;'r'
   406  109F  3420               	retlw	32	;' '
   407  10A0  3432               	retlw	50	;'2'
   408  10A1  3427               	retlw	39	;'''
   409  10A2  3473               	retlw	115	;'s'
   410  10A3  3420               	retlw	32	;' '
   411  10A4  3474               	retlw	116	;'t'
   412  10A5  3475               	retlw	117	;'u'
   413  10A6  3472               	retlw	114	;'r'
   414  10A7  346E               	retlw	110	;'n'
   415  10A8  3400               	retlw	0
   416                           psect	strings
   417                           	
   418  10A9                     STR_5:	
   419  10A9  3450               	retlw	80	;'P'
   420  10AA  346C               	retlw	108	;'l'
   421  10AB  3461               	retlw	97	;'a'
   422  10AC  3479               	retlw	121	;'y'
   423  10AD  3465               	retlw	101	;'e'
   424  10AE  3472               	retlw	114	;'r'
   425  10AF  3420               	retlw	32	;' '
   426  10B0  3431               	retlw	49	;'1'
   427  10B1  3420               	retlw	32	;' '
   428  10B2  3473               	retlw	115	;'s'
   429  10B3  3474               	retlw	116	;'t'
   430  10B4  3461               	retlw	97	;'a'
   431  10B5  3472               	retlw	114	;'r'
   432  10B6  3474               	retlw	116	;'t'
   433  10B7  3473               	retlw	115	;'s'
   434  10B8  3400               	retlw	0
   435                           psect	strings
   436                           	
   437  10B9                     STR_3:	
   438  10B9  3450               	retlw	80	;'P'
   439  10BA  346C               	retlw	108	;'l'
   440  10BB  3461               	retlw	97	;'a'
   441  10BC  3479               	retlw	121	;'y'
   442  10BD  3465               	retlw	101	;'e'
   443  10BE  3472               	retlw	114	;'r'
   444  10BF  3420               	retlw	32	;' '
   445  10C0  3431               	retlw	49	;'1'
   446  10C1  3420               	retlw	32	;' '
   447  10C2  343D               	retlw	61	;'='
   448  10C3  3420               	retlw	32	;' '
   449  10C4  3472               	retlw	114	;'r'
   450  10C5  3465               	retlw	101	;'e'
   451  10C6  3464               	retlw	100	;'d'
   452  10C7  3400               	retlw	0
   453                           psect	strings
   454                           	
   455  10C8                     STR_14:	
   456  10C8  342A               	retlw	42	;'*'
   457  10C9  342A               	retlw	42	;'*'
   458  10CA  342A               	retlw	42	;'*'
   459  10CB  3464               	retlw	100	;'d'
   460  10CC  3472               	retlw	114	;'r'
   461  10CD  3461               	retlw	97	;'a'
   462  10CE  3477               	retlw	119	;'w'
   463  10CF  342A               	retlw	42	;'*'
   464  10D0  342A               	retlw	42	;'*'
   465  10D1  342A               	retlw	42	;'*'
   466  10D2  3400               	retlw	0
   467                           psect	strings
   468                           	
   469  10D3                     STR_6:	
   470  10D3  3466               	retlw	102	;'f'
   471  10D4  3469               	retlw	105	;'i'
   472  10D5  3472               	retlw	114	;'r'
   473  10D6  3473               	retlw	115	;'s'
   474  10D7  3474               	retlw	116	;'t'
   475  10D8  3400               	retlw	0
   476                           psect	strings
   477  1045                     STR_11	equ	STR_9+0
   478  1045                     STR_13	equ	STR_9+0
   479                           	file	"C:\Users\HATAKE~1\AppData\Local\Temp\s1hjs."
   480                           	line	#
   481                           psect cinit,class=CODE,delta=2
   482                           global start_initialization
   483  1E60                     start_initialization:
   484                           
   485                           psect	bssCOMMON,class=COMMON,space=1
   486                           global __pbssCOMMON
   487  007C                     __pbssCOMMON:
   488  007C                     _bigval:
   489  007C                            ds      2
   490                           
   491                           psect	bssBANK0,class=BANK0,space=1
   492                           global __pbssBANK0
   493  0020                     __pbssBANK0:
   494  0020                     _average:
   495  0020                            ds      18
   496                           
   497  0032                     _Buttons:
   498  0032                            ds      9
   499                           
   500  003B                     _matrix:
   501  003B                            ds      9
   502                           
   503  0044                     _result1:
   504  0044                            ds      3
   505                           
   506  0047                     _smallavg:
   507  0047                            ds      2
   508                           
   509  0049                     _threshold:
   510  0049                            ds      2
   511                           
   512  004B                     _threshold4:
   513  004B                            ds      2
   514                           
   515  004D                     _Flags:
   516  004D                            ds      1
   517                           
   518  004E                     _data:
   519  004E                            ds      1
   520                           
   521  004F                     _flag:
   522  004F                            ds      1
   523                           
   524  0050                     _index:
   525  0050                            ds      1
   526                           
   527  0051                     _result:
   528  0051                            ds      1
   529                           
   530                           psect	bssBANK1,class=BANK1,space=1
   531                           global __pbssBANK1
   532  00A0                     __pbssBANK1:
   533  00A0                     _reading:
   534  00A0                            ds      18
   535                           
   536                           psect clrtext,class=CODE,delta=2
   537                           global clear_ram
   538                           ;	Called with FSR containing the base address, and
   539                           ;	W with the last address+1
   540  1DFA                     clear_ram:
   541  1DFA  0064               	clrwdt			;clear the watchdog before getting into this loop
   542  1DFB                     clrloop:
   543  1DFB  0180               	clrf	indf		;clear RAM location pointed to by FSR
   544  1DFC  0A84               	incf	fsr,f		;increment pointer
   545  1DFD  0604               	xorwf	fsr,w		;XOR with final address
   546  1DFE  1903               	btfsc	status,2	;have we reached the end yet?
   547  1DFF  3400               	retlw	0		;all done for this memory range, return
   548  1E00  0604               	xorwf	fsr,w		;XOR again to restore value
   549  1E01  2DFB               	goto	clrloop		;do the next byte
   550                           
   551                           ; Clear objects allocated to COMMON
   552                           psect cinit,class=CODE,delta=2,merge=1
   553  1E60  01FC               	clrf	((__pbssCOMMON)+0)&07Fh
   554  1E61  01FD               	clrf	((__pbssCOMMON)+1)&07Fh
   555                           ; Clear objects allocated to BANK0
   556                           psect cinit,class=CODE,delta=2,merge=1
   557  1E62  1383               	bcf	status, 7	;select IRP bank0
   558  1E63  3020               	movlw	low(__pbssBANK0)
   559  1E64  0084               	movwf	fsr
   560  1E65  3052               	movlw	low((__pbssBANK0)+032h)
   561  1E66  160A  158A  25FA   	fcall	clear_ram
              160A  158A         
   562                           ; Clear objects allocated to BANK1
   563                           psect cinit,class=CODE,delta=2,merge=1
   564  1E6B  30A0               	movlw	low(__pbssBANK1)
   565  1E6C  0084               	movwf	fsr
   566  1E6D  30B2               	movlw	low((__pbssBANK1)+012h)
   567  1E6E  160A  158A  25FA   	fcall	clear_ram
              160A  158A         
   568                           psect cinit,class=CODE,delta=2,merge=1
   569                           global end_of_initialization
   570                           
   571                           ;End of C runtime variable initialization code
   572                           
   573  1E73                     end_of_initialization:
   574  1E73  0183               clrf status
   575  1E74  120A  158A  2997   ljmp _main	;jump to C main() function
   576                           psect	cstackCOMMON,class=COMMON,space=1
   577                           global __pcstackCOMMON
   578  0070                     __pcstackCOMMON:
   579                           	global	?_Init
   580  0070                     ?_Init:	; 0 bytes @ 0x0
   581                           	global	?_send_config
   582  0070                     ?_send_config:	; 0 bytes @ 0x0
   583                           	global	?_lcd_clr
   584  0070                     ?_lcd_clr:	; 0 bytes @ 0x0
   585                           	global	?_lcd_goto
   586  0070                     ?_lcd_goto:	; 0 bytes @ 0x0
   587                           	global	?_send_string
   588  0070                     ?_send_string:	; 0 bytes @ 0x0
   589                           	global	?_lcd_shift
   590  0070                     ?_lcd_shift:	; 0 bytes @ 0x0
   591                           	global	?_PIEZO_S
   592  0070                     ?_PIEZO_S:	; 0 bytes @ 0x0
   593                           	global	?_checkflag
   594  0070                     ?_checkflag:	; 0 bytes @ 0x0
   595                           	global	?_PIEZO
   596  0070                     ?_PIEZO:	; 0 bytes @ 0x0
   597                           	global	?_PIEZO_D
   598  0070                     ?_PIEZO_D:	; 0 bytes @ 0x0
   599                           	global	?_draw
   600  0070                     ?_draw:	; 0 bytes @ 0x0
   601                           	global	?_led_off
   602  0070                     ?_led_off:	; 0 bytes @ 0x0
   603                           	global	?_CapInit
   604  0070                     ?_CapInit:	; 0 bytes @ 0x0
   605                           	global	?_GetReading
   606  0070                     ?_GetReading:	; 0 bytes @ 0x0
   607                           	global	?_player_1
   608  0070                     ?_player_1:	; 0 bytes @ 0x0
   609                           	global	?_player_2
   610  0070                     ?_player_2:	; 0 bytes @ 0x0
   611                           	global	?_checkstatus
   612  0070                     ?_checkstatus:	; 0 bytes @ 0x0
   613                           	global	?_DisplayLEDs
   614  0070                     ?_DisplayLEDs:	; 0 bytes @ 0x0
   615                           	global	?_SetNextChannel
   616  0070                     ?_SetNextChannel:	; 0 bytes @ 0x0
   617                           	global	??_SetNextChannel
   618  0070                     ??_SetNextChannel:	; 0 bytes @ 0x0
   619                           	global	?_RestartTimer1
   620  0070                     ?_RestartTimer1:	; 0 bytes @ 0x0
   621                           	global	?_led_display1
   622  0070                     ?_led_display1:	; 0 bytes @ 0x0
   623                           	global	?_led_display2
   624  0070                     ?_led_display2:	; 0 bytes @ 0x0
   625                           	global	?_led_display3
   626  0070                     ?_led_display3:	; 0 bytes @ 0x0
   627                           	global	?_e_pulse
   628  0070                     ?_e_pulse:	; 0 bytes @ 0x0
   629                           	global	?_main
   630  0070                     ?_main:	; 0 bytes @ 0x0
   631                           	global	?_isr
   632  0070                     ?_isr:	; 0 bytes @ 0x0
   633                           	global	?_store
   634  0070                     ?_store:	; 0 bytes @ 0x0
   635                           	global	?_send_char
   636  0070                     ?_send_char:	; 0 bytes @ 0x0
   637                           	global	?i1_RestartTimer1
   638  0070                     ?i1_RestartTimer1:	; 0 bytes @ 0x0
   639                           	global	??i1_RestartTimer1
   640  0070                     ??i1_RestartTimer1:	; 0 bytes @ 0x0
   641                           	global	?_winlose
   642  0070                     ?_winlose:	; 1 bytes @ 0x0
   643  0070                     	ds	1
   644                           	global	??_GetReading
   645  0071                     ??_GetReading:	; 0 bytes @ 0x1
   646  0071                     	ds	7
   647                           	global	??_isr
   648  0078                     ??_isr:	; 0 bytes @ 0x8
   649  0078                     	ds	4
   650                           psect	cstackBANK0,class=BANK0,space=1
   651                           global __pcstackBANK0
   652  0052                     __pcstackBANK0:
   653                           	global	?_delay
   654  0052                     ?_delay:	; 0 bytes @ 0x0
   655                           	global	??_RestartTimer1
   656  0052                     ??_RestartTimer1:	; 0 bytes @ 0x0
   657                           	global	??_led_display1
   658  0052                     ??_led_display1:	; 0 bytes @ 0x0
   659                           	global	??_led_display2
   660  0052                     ??_led_display2:	; 0 bytes @ 0x0
   661                           	global	??_led_display3
   662  0052                     ??_led_display3:	; 0 bytes @ 0x0
   663                           	global	??_store
   664  0052                     ??_store:	; 0 bytes @ 0x0
   665                           	global	?___bmul
   666  0052                     ?___bmul:	; 1 bytes @ 0x0
   667                           	global	___bmul@multiplicand
   668  0052                     ___bmul@multiplicand:	; 1 bytes @ 0x0
   669                           	global	delay@data
   670  0052                     delay@data:	; 4 bytes @ 0x0
   671  0052                     	ds	1
   672                           	global	??___bmul
   673  0053                     ??___bmul:	; 0 bytes @ 0x1
   674                           	global	led_display1@value1
   675  0053                     led_display1@value1:	; 1 bytes @ 0x1
   676                           	global	led_display2@value2
   677  0053                     led_display2@value2:	; 1 bytes @ 0x1
   678                           	global	led_display3@value3
   679  0053                     led_display3@value3:	; 1 bytes @ 0x1
   680  0053                     	ds	1
   681                           	global	??_led_off
   682  0054                     ??_led_off:	; 0 bytes @ 0x2
   683                           	global	??_DisplayLEDs
   684  0054                     ??_DisplayLEDs:	; 0 bytes @ 0x2
   685                           	global	___bmul@product
   686  0054                     ___bmul@product:	; 1 bytes @ 0x2
   687  0054                     	ds	1
   688                           	global	___bmul@multiplier
   689  0055                     ___bmul@multiplier:	; 1 bytes @ 0x3
   690                           	global	DisplayLEDs@k
   691  0055                     DisplayLEDs@k:	; 2 bytes @ 0x3
   692  0055                     	ds	1
   693                           	global	??_delay
   694  0056                     ??_delay:	; 0 bytes @ 0x4
   695                           	global	??_winlose
   696  0056                     ??_winlose:	; 0 bytes @ 0x4
   697                           	global	??_CapInit
   698  0056                     ??_CapInit:	; 0 bytes @ 0x4
   699  0056                     	ds	1
   700                           	global	??_checkflag
   701  0057                     ??_checkflag:	; 0 bytes @ 0x5
   702                           	global	??_player_1
   703  0057                     ??_player_1:	; 0 bytes @ 0x5
   704                           	global	??_player_2
   705  0057                     ??_player_2:	; 0 bytes @ 0x5
   706                           	global	??_checkstatus
   707  0057                     ??_checkstatus:	; 0 bytes @ 0x5
   708  0057                     	ds	3
   709                           	global	??_send_config
   710  005A                     ??_send_config:	; 0 bytes @ 0x8
   711                           	global	??_PIEZO_S
   712  005A                     ??_PIEZO_S:	; 0 bytes @ 0x8
   713                           	global	??_PIEZO
   714  005A                     ??_PIEZO:	; 0 bytes @ 0x8
   715                           	global	??_PIEZO_D
   716  005A                     ??_PIEZO_D:	; 0 bytes @ 0x8
   717                           	global	??_draw
   718  005A                     ??_draw:	; 0 bytes @ 0x8
   719                           	global	??_e_pulse
   720  005A                     ??_e_pulse:	; 0 bytes @ 0x8
   721                           	global	??_send_char
   722  005A                     ??_send_char:	; 0 bytes @ 0x8
   723                           	global	send_config@data
   724  005A                     send_config@data:	; 1 bytes @ 0x8
   725                           	global	send_char@data
   726  005A                     send_char@data:	; 1 bytes @ 0x8
   727                           	global	winlose@status
   728  005A                     winlose@status:	; 2 bytes @ 0x8
   729  005A                     	ds	1
   730                           	global	??_lcd_clr
   731  005B                     ??_lcd_clr:	; 0 bytes @ 0x9
   732                           	global	??_lcd_goto
   733  005B                     ??_lcd_goto:	; 0 bytes @ 0x9
   734                           	global	??_send_string
   735  005B                     ??_send_string:	; 0 bytes @ 0x9
   736                           	global	??_lcd_shift
   737  005B                     ??_lcd_shift:	; 0 bytes @ 0x9
   738                           	global	CapInit@i
   739  005B                     CapInit@i:	; 2 bytes @ 0x9
   740  005B                     	ds	1
   741                           	global	lcd_goto@data
   742  005C                     lcd_goto@data:	; 1 bytes @ 0xA
   743                           	global	send_string@s
   744  005C                     send_string@s:	; 1 bytes @ 0xA
   745                           	global	winlose@flag_w
   746  005C                     winlose@flag_w:	; 1 bytes @ 0xA
   747  005C                     	ds	1
   748                           	global	CapInit@j
   749  005D                     CapInit@j:	; 2 bytes @ 0xB
   750                           	global	winlose@i_278
   751  005D                     winlose@i_278:	; 2 bytes @ 0xB
   752  005D                     	ds	2
   753                           	global	winlose@j_279
   754  005F                     winlose@j_279:	; 2 bytes @ 0xD
   755  005F                     	ds	2
   756                           	global	winlose@i_277
   757  0061                     winlose@i_277:	; 2 bytes @ 0xF
   758  0061                     	ds	2
   759                           	global	??_Init
   760  0063                     ??_Init:	; 0 bytes @ 0x11
   761  0063                     	ds	1
   762                           	global	??_main
   763  0064                     ??_main:	; 0 bytes @ 0x12
   764  0064                     	ds	1
   765                           	global	main@i
   766  0065                     main@i:	; 2 bytes @ 0x13
   767  0065                     	ds	2
   768                           ;!
   769                           ;!Data Sizes:
   770                           ;!    Strings     211
   771                           ;!    Constant    0
   772                           ;!    Data        0
   773                           ;!    BSS         70
   774                           ;!    Persistent  0
   775                           ;!    Stack       0
   776                           ;!
   777                           ;!Auto Spaces:
   778                           ;!    Space          Size  Autos    Used
   779                           ;!    COMMON           14     12      14
   780                           ;!    BANK0            80     21      71
   781                           ;!    BANK1            80      0      18
   782                           ;!    BANK3            96      0       0
   783                           ;!    BANK2            96      0       0
   784                           
   785                           ;!
   786                           ;!Pointer List with Targets:
   787                           ;!
   788                           ;!    send_string@s	PTR const unsigned char  size(1) Largest target is 32
   789                           ;!		 -> STR_14(CODE[11]), STR_13(CODE[17]), STR_12(CODE[17]), STR_11(CODE[17]), 
   790                           ;!		 -> STR_10(CODE[17]), STR_9(CODE[17]), STR_8(CODE[16]), STR_7(CODE[16]), 
   791                           ;!		 -> STR_6(CODE[6]), STR_5(CODE[16]), STR_4(CODE[17]), STR_3(CODE[15]), 
   792                           ;!		 -> STR_2(CODE[32]), STR_1(CODE[31]), 
   793                           ;!
   794                           
   795                           
   796                           ;!
   797                           ;!Critical Paths under _main in COMMON
   798                           ;!
   799                           ;!    None.
   800                           ;!
   801                           ;!Critical Paths under _isr in COMMON
   802                           ;!
   803                           ;!    _isr->_GetReading
   804                           ;!    _GetReading->_SetNextChannel
   805                           ;!
   806                           ;!Critical Paths under _main in BANK0
   807                           ;!
   808                           ;!    _main->_Init
   809                           ;!    _Init->_winlose
   810                           ;!    _lcd_clr->_send_config
   811                           ;!    _lcd_goto->_send_config
   812                           ;!    _send_string->_send_char
   813                           ;!    _lcd_shift->_send_config
   814                           ;!    _send_config->_delay
   815                           ;!    _PIEZO_S->_delay
   816                           ;!    _winlose->___bmul
   817                           ;!    _PIEZO->_delay
   818                           ;!    _PIEZO_D->_delay
   819                           ;!    _draw->_delay
   820                           ;!    _led_off->_led_display1
   821                           ;!    _led_off->_led_display2
   822                           ;!    _led_off->_led_display3
   823                           ;!    _CapInit->___bmul
   824                           ;!    _checkstatus->_DisplayLEDs
   825                           ;!    _DisplayLEDs->_led_display1
   826                           ;!    _DisplayLEDs->_led_display2
   827                           ;!    _DisplayLEDs->_led_display3
   828                           ;!    _send_char->_delay
   829                           ;!    _e_pulse->_delay
   830                           ;!
   831                           ;!Critical Paths under _isr in BANK0
   832                           ;!
   833                           ;!    None.
   834                           ;!
   835                           ;!Critical Paths under _main in BANK1
   836                           ;!
   837                           ;!    None.
   838                           ;!
   839                           ;!Critical Paths under _isr in BANK1
   840                           ;!
   841                           ;!    None.
   842                           ;!
   843                           ;!Critical Paths under _main in BANK3
   844                           ;!
   845                           ;!    None.
   846                           ;!
   847                           ;!Critical Paths under _isr in BANK3
   848                           ;!
   849                           ;!    None.
   850                           ;!
   851                           ;!Critical Paths under _main in BANK2
   852                           ;!
   853                           ;!    None.
   854                           ;!
   855                           ;!Critical Paths under _isr in BANK2
   856                           ;!
   857                           ;!    None.
   858                           
   859 ;;
   860 ;;Main: autosize = 0, tempsize = 1, incstack = 0, save=0
   861 ;;
   862                           
   863                           ;!
   864                           ;!Call Graph Tables:
   865                           ;!
   866                           ;! ---------------------------------------------------------------------------------
   867                           ;! (Depth) Function   	        Calls       Base Space   Used Autos Params    Refs
   868                           ;! ---------------------------------------------------------------------------------
   869                           ;! (0) _main                                                 3     3      0   15021
   870                           ;!                                             18 BANK0      3     3      0
   871                           ;!                               _Init
   872                           ;!                        _send_config
   873                           ;!                            _lcd_clr
   874                           ;!                           _lcd_goto
   875                           ;!                        _send_string
   876                           ;!                              _delay
   877                           ;!                          _lcd_shift
   878                           ;!                            _PIEZO_S
   879                           ;!                          _checkflag
   880                           ;!                            _winlose
   881                           ;!                              _PIEZO
   882                           ;!                            _PIEZO_D
   883                           ;!                               _draw
   884                           ;! ---------------------------------------------------------------------------------
   885                           ;! (1) _Init                                                 1     1      0    1320
   886                           ;!                                             17 BANK0      1     1      0
   887                           ;!                            _led_off
   888                           ;!                            _CapInit
   889                           ;!                            _winlose
   890                           ;! ---------------------------------------------------------------------------------
   891                           ;! (1) _lcd_clr                                              0     0      0     157
   892                           ;!                        _send_config
   893                           ;!                              _delay
   894                           ;! ---------------------------------------------------------------------------------
   895                           ;! (1) _lcd_goto                                             2     2      0     201
   896                           ;!                                              9 BANK0      2     2      0
   897                           ;!                        _send_config
   898                           ;! ---------------------------------------------------------------------------------
   899                           ;! (1) _send_string                                          2     2      0     179
   900                           ;!                                              9 BANK0      2     2      0
   901                           ;!                          _send_char
   902                           ;! ---------------------------------------------------------------------------------
   903                           ;! (1) _lcd_shift                                            0     0      0     157
   904                           ;!                        _send_config
   905                           ;!                              _delay
   906                           ;! ---------------------------------------------------------------------------------
   907                           ;! (2) _send_config                                          1     1      0     112
   908                           ;!                                              8 BANK0      1     1      0
   909                           ;!                              _delay
   910                           ;!                            _e_pulse
   911                           ;! ---------------------------------------------------------------------------------
   912                           ;! (1) _PIEZO_S                                              0     0      0      45
   913                           ;!                              _delay
   914                           ;!                      _RestartTimer1
   915                           ;! ---------------------------------------------------------------------------------
   916                           ;! (1) _checkflag                                            0     0      0   11004
   917                           ;!                           _player_1
   918                           ;!                           _player_2
   919                           ;! ---------------------------------------------------------------------------------
   920                           ;! (1) _winlose                                             17    17      0     564
   921                           ;!                                              4 BANK0     13    13      0
   922                           ;!                             ___bmul
   923                           ;! ---------------------------------------------------------------------------------
   924                           ;! (1) _PIEZO                                                0     0      0      45
   925                           ;!                              _delay
   926                           ;!                      _RestartTimer1
   927                           ;! ---------------------------------------------------------------------------------
   928                           ;! (1) _PIEZO_D                                              0     0      0      45
   929                           ;!                              _delay
   930                           ;!                      _RestartTimer1
   931                           ;! ---------------------------------------------------------------------------------
   932                           ;! (1) _draw                                                 1     1      0    1101
   933                           ;!                                              8 BANK0      1     1      0
   934                           ;!                       _led_display1
   935                           ;!                       _led_display2
   936                           ;!                       _led_display3
   937                           ;!                              _delay
   938                           ;!                            _led_off
   939                           ;! ---------------------------------------------------------------------------------
   940                           ;! (2) _led_off                                              0     0      0     528
   941                           ;!                       _led_display1
   942                           ;!                       _led_display2
   943                           ;!                       _led_display3
   944                           ;! ---------------------------------------------------------------------------------
   945                           ;! (2) _CapInit                                              9     9      0     228
   946                           ;!                                              4 BANK0      9     9      0
   947                           ;!                             ___bmul
   948                           ;! ---------------------------------------------------------------------------------
   949                           ;! (2) _player_1                                             0     0      0    5502
   950                           ;!                        _checkstatus
   951                           ;! ---------------------------------------------------------------------------------
   952                           ;! (2) _player_2                                             0     0      0    5502
   953                           ;!                        _checkstatus
   954                           ;! ---------------------------------------------------------------------------------
   955                           ;! (3) _checkstatus                                          0     0      0    5502
   956                           ;!                              _store
   957                           ;!                        _DisplayLEDs
   958                           ;! ---------------------------------------------------------------------------------
   959                           ;! (4) _store                                                1     1      0       0
   960                           ;!                                              0 BANK0      1     1      0
   961                           ;! ---------------------------------------------------------------------------------
   962                           ;! (4) _DisplayLEDs                                          3     3      0    5502
   963                           ;!                                              2 BANK0      3     3      0
   964                           ;!                       _led_display1
   965                           ;!                       _led_display2
   966                           ;!                       _led_display3
   967                           ;! ---------------------------------------------------------------------------------
   968                           ;! (2) _RestartTimer1                                        0     0      0       0
   969                           ;! ---------------------------------------------------------------------------------
   970                           ;! (3) _led_display1                                         2     2      0     176
   971                           ;!                                              0 BANK0      2     2      0
   972                           ;! ---------------------------------------------------------------------------------
   973                           ;! (3) _led_display2                                         2     2      0     176
   974                           ;!                                              0 BANK0      2     2      0
   975                           ;! ---------------------------------------------------------------------------------
   976                           ;! (3) _led_display3                                         2     2      0     176
   977                           ;!                                              0 BANK0      2     2      0
   978                           ;! ---------------------------------------------------------------------------------
   979                           ;! (2) _send_char                                            1     1      0     112
   980                           ;!                                              8 BANK0      1     1      0
   981                           ;!                              _delay
   982                           ;!                            _e_pulse
   983                           ;! ---------------------------------------------------------------------------------
   984                           ;! (3) _e_pulse                                              0     0      0      45
   985                           ;!                              _delay
   986                           ;! ---------------------------------------------------------------------------------
   987                           ;! (2) _delay                                                8     4      4      45
   988                           ;!                                              0 BANK0      8     4      4
   989                           ;! ---------------------------------------------------------------------------------
   990                           ;! (2) ___bmul                                               4     3      1      92
   991                           ;!                                              0 BANK0      4     3      1
   992                           ;! ---------------------------------------------------------------------------------
   993                           ;! Estimated maximum stack depth 4
   994                           ;! ---------------------------------------------------------------------------------
   995                           ;! (Depth) Function   	        Calls       Base Space   Used Autos Params    Refs
   996                           ;! ---------------------------------------------------------------------------------
   997                           ;! (6) _isr                                                  4     4      0       0
   998                           ;!                                              8 COMMON     4     4      0
   999                           ;!                         _GetReading
  1000                           ;! ---------------------------------------------------------------------------------
  1001                           ;! (7) _GetReading                                           7     7      0       0
  1002                           ;!                                              1 COMMON     7     7      0
  1003                           ;!                     _SetNextChannel
  1004                           ;!                    i1_RestartTimer1
  1005                           ;! ---------------------------------------------------------------------------------
  1006                           ;! (8) _SetNextChannel                                       1     1      0       0
  1007                           ;!                                              0 COMMON     1     1      0
  1008                           ;! ---------------------------------------------------------------------------------
  1009                           ;! (8) i1_RestartTimer1                                      0     0      0       0
  1010                           ;! ---------------------------------------------------------------------------------
  1011                           ;! Estimated maximum stack depth 8
  1012                           ;! ---------------------------------------------------------------------------------
  1013                           ;!
  1014                           ;! Call Graph Graphs:
  1015                           ;!
  1016                           ;! _main (ROOT)
  1017                           ;!   _Init
  1018                           ;!     _led_off
  1019                           ;!       _led_display1
  1020                           ;!       _led_display2
  1021                           ;!       _led_display3
  1022                           ;!     _CapInit
  1023                           ;!       ___bmul
  1024                           ;!     _winlose
  1025                           ;!       ___bmul
  1026                           ;!   _send_config
  1027                           ;!     _delay
  1028                           ;!     _e_pulse
  1029                           ;!       _delay
  1030                           ;!   _lcd_clr
  1031                           ;!     _send_config
  1032                           ;!       _delay
  1033                           ;!       _e_pulse
  1034                           ;!         _delay
  1035                           ;!     _delay
  1036                           ;!   _lcd_goto
  1037                           ;!     _send_config
  1038                           ;!       _delay
  1039                           ;!       _e_pulse
  1040                           ;!         _delay
  1041                           ;!   _send_string
  1042                           ;!     _send_char
  1043                           ;!       _delay
  1044                           ;!       _e_pulse
  1045                           ;!         _delay
  1046                           ;!   _delay
  1047                           ;!   _lcd_shift
  1048                           ;!     _send_config
  1049                           ;!       _delay
  1050                           ;!       _e_pulse
  1051                           ;!         _delay
  1052                           ;!     _delay
  1053                           ;!   _PIEZO_S
  1054                           ;!     _delay
  1055                           ;!     _RestartTimer1
  1056                           ;!   _checkflag
  1057                           ;!     _player_1
  1058                           ;!       _checkstatus
  1059                           ;!         _store
  1060                           ;!         _DisplayLEDs
  1061                           ;!           _led_display1
  1062                           ;!           _led_display2
  1063                           ;!           _led_display3
  1064                           ;!     _player_2
  1065                           ;!       _checkstatus
  1066                           ;!         _store
  1067                           ;!         _DisplayLEDs
  1068                           ;!           _led_display1
  1069                           ;!           _led_display2
  1070                           ;!           _led_display3
  1071                           ;!   _winlose
  1072                           ;!     ___bmul
  1073                           ;!   _PIEZO
  1074                           ;!     _delay
  1075                           ;!     _RestartTimer1
  1076                           ;!   _PIEZO_D
  1077                           ;!     _delay
  1078                           ;!     _RestartTimer1
  1079                           ;!   _draw
  1080                           ;!     _led_display1
  1081                           ;!     _led_display2
  1082                           ;!     _led_display3
  1083                           ;!     _delay
  1084                           ;!     _led_off
  1085                           ;!       _led_display1
  1086                           ;!       _led_display2
  1087                           ;!       _led_display3
  1088                           ;!
  1089                           ;! _isr (ROOT)
  1090                           ;!   _GetReading
  1091                           ;!     _SetNextChannel
  1092                           ;!     i1_RestartTimer1
  1093                           ;!
  1094                           
  1095                           ;! Address spaces:
  1096                           
  1097                           ;!Name               Size   Autos  Total    Cost      Usage
  1098                           ;!BITCOMMON            E      0       0       0        0.0%
  1099                           ;!NULL                 0      0       0       0        0.0%
  1100                           ;!CODE                 0      0       0       0        0.0%
  1101                           ;!COMMON               E      C       E       1      100.0%
  1102                           ;!BITSFR0              0      0       0       1        0.0%
  1103                           ;!SFR0                 0      0       0       1        0.0%
  1104                           ;!BITSFR1              0      0       0       2        0.0%
  1105                           ;!SFR1                 0      0       0       2        0.0%
  1106                           ;!STACK                0      0       B       2        0.0%
  1107                           ;!ABS                  0      0      67       3        0.0%
  1108                           ;!BITBANK0            50      0       0       4        0.0%
  1109                           ;!BITSFR3              0      0       0       4        0.0%
  1110                           ;!SFR3                 0      0       0       4        0.0%
  1111                           ;!BANK0               50     15      47       5       88.8%
  1112                           ;!BITSFR2              0      0       0       5        0.0%
  1113                           ;!SFR2                 0      0       0       5        0.0%
  1114                           ;!DATA                 0      0      72       6        0.0%
  1115                           ;!BITBANK1            50      0       0       7        0.0%
  1116                           ;!BANK1               50      0      12       8       22.5%
  1117                           ;!BITBANK3            60      0       0       9        0.0%
  1118                           ;!BANK3               60      0       0      10        0.0%
  1119                           ;!BITBANK2            60      0       0      11        0.0%
  1120                           ;!BANK2               60      0       0      12        0.0%
  1121                           
  1122                           	global	_main
  1123                           
  1124 ;; *************** function _main *****************
  1125 ;; Defined at:
  1126 ;;		line 85 in file "PR28.c"
  1127 ;; Parameters:    Size  Location     Type
  1128 ;;		None
  1129 ;; Auto vars:     Size  Location     Type
  1130 ;;  i               2   19[BANK0 ] int 
  1131 ;; Return value:  Size  Location     Type
  1132 ;;		None               void
  1133 ;; Registers used:
  1134 ;;		wreg, fsr0l, fsr0h, fsr1l, fsr1h, status,2, status,0, btemp+1, pclath, cstack
  1135 ;; Tracked objects:
  1136 ;;		On entry : 17F/0
  1137 ;;		On exit  : 0/0
  1138 ;;		Unchanged: 0/0
  1139 ;; Data sizes:     COMMON   BANK0   BANK1   BANK3   BANK2
  1140 ;;      Params:         0       0       0       0       0
  1141 ;;      Locals:         0       2       0       0       0
  1142 ;;      Temps:          0       1       0       0       0
  1143 ;;      Totals:         0       3       0       0       0
  1144 ;;Total ram usage:        3 bytes
  1145 ;; Hardware stack levels required when called:    8
  1146 ;; This function calls:
  1147 ;;		_Init
  1148 ;;		_send_config
  1149 ;;		_lcd_clr
  1150 ;;		_lcd_goto
  1151 ;;		_send_string
  1152 ;;		_delay
  1153 ;;		_lcd_shift
  1154 ;;		_PIEZO_S
  1155 ;;		_checkflag
  1156 ;;		_winlose
  1157 ;;		_PIEZO
  1158 ;;		_PIEZO_D
  1159 ;;		_draw
  1160 ;; This function is called by:
  1161 ;;		Startup code after reset
  1162 ;; This function uses a non-reentrant model
  1163 ;;
  1164                           psect	maintext,global,class=CODE,delta=2,split=1
  1165                           global __pmaintext
  1166  0997                     __pmaintext:
  1167                           psect	maintext
  1168                           	file	"PR28.c"
  1169                           	line	85
  1170                           	global	__size_of_main
  1171  01CA                     	__size_of_main	equ	__end_of_main-_main
  1172                           	
  1173  0997                     _main:	
  1174                           	opt	stack 0
  1175                           ; Regs used in _main: [allreg]
  1176                           	line	87
  1177                           	
  1178  0997                     l2600:	
  1179                           ;PR28.c: 87: Init();
  1180  0997  120A  158A  2003   	fcall	_Init
              120A  158A         
  1181                           	line	90
  1182                           ;PR28.c: 90: send_config(0b00000001);
  1183  099C  3001               	movlw	(01h)
  1184  099D  160A  158A  2690   	fcall	_send_config
              120A  158A         
  1185                           	line	91
  1186                           ;PR28.c: 91: send_config(0b00000010);
  1187  09A2  3002               	movlw	(02h)
  1188  09A3  160A  158A  2690   	fcall	_send_config
              120A  158A         
  1189                           	line	92
  1190                           ;PR28.c: 92: send_config(0b00000110);
  1191  09A8  3006               	movlw	(06h)
  1192  09A9  160A  158A  2690   	fcall	_send_config
              120A  158A         
  1193                           	line	93
  1194                           ;PR28.c: 93: send_config(0b00001100);
  1195  09AE  300C               	movlw	(0Ch)
  1196  09AF  160A  158A  2690   	fcall	_send_config
              120A  158A         
  1197                           	line	94
  1198                           ;PR28.c: 94: send_config(0b00111000);
  1199  09B4  3038               	movlw	(038h)
  1200  09B5  160A  158A  2690   	fcall	_send_config
              120A  158A         
  1201                           	line	95
  1202                           ;PR28.c: 95: lcd_clr();
  1203  09BA  160A  158A  264A   	fcall	_lcd_clr
              120A  158A         
  1204                           	line	96
  1205                           ;PR28.c: 96: lcd_goto(0);
  1206  09BF  3000               	movlw	(0)
  1207  09C0  160A  118A  20DE   	fcall	_lcd_goto
              120A  158A         
  1208                           	line	97
  1209                           ;PR28.c: 97: send_string("Cytron Technologies Sdn Bhd   ");
  1210  09C5  3021               	movlw	((STR_1-__stringbase))&0ffh
  1211  09C6  160A  158A  273A   	fcall	_send_string
              120A  158A         
  1212                           	line	98
  1213                           ;PR28.c: 98: lcd_goto(20);
  1214  09CB  3014               	movlw	(014h)
  1215  09CC  160A  118A  20DE   	fcall	_lcd_goto
              120A  158A         
  1216                           	line	99
  1217                           ;PR28.c: 99: send_string("PR 28 - mTouch with Tic Tac Toe");
  1218  09D1  3001               	movlw	((STR_2-__stringbase))&0ffh
  1219  09D2  160A  158A  273A   	fcall	_send_string
              120A  158A         
  1220                           	line	100
  1221                           	
  1222  09D7                     l2602:	
  1223                           ;PR28.c: 100: delay(10000);
  1224  09D7  3000               	movlw	0
  1225  09D8  1283               	bcf	status, 5	;RP0=0, select bank0
  1226  09D9  1303               	bcf	status, 6	;RP1=0, select bank0
  1227  09DA  00D5               	movwf	(?_delay+3)
  1228  09DB  3000               	movlw	0
  1229  09DC  00D4               	movwf	(?_delay+2)
  1230  09DD  3027               	movlw	027h
  1231  09DE  00D3               	movwf	(?_delay+1)
  1232  09DF  3010               	movlw	010h
  1233  09E0  00D2               	movwf	(?_delay)
  1234                           
  1235  09E1  160A  158A  2764   	fcall	_delay
              120A  158A         
  1236                           	line	101
  1237                           	
  1238  09E6                     l2604:	
  1239                           ;PR28.c: 101: for (int i = 0; i <15 ; i++)
  1240  09E6  1283               	bcf	status, 5	;RP0=0, select bank0
  1241  09E7  1303               	bcf	status, 6	;RP1=0, select bank0
  1242  09E8  01E5               	clrf	(main@i)
  1243  09E9  01E6               	clrf	(main@i+1)
  1244                           	
  1245  09EA                     l2606:	
  1246  09EA  0866               	movf	(main@i+1),w
  1247  09EB  3A80               	xorlw	80h
  1248  09EC  00FF               	movwf	btemp+1
  1249  09ED  3080               	movlw	(high(0Fh))^80h
  1250  09EE  027F               	subwf	btemp+1,w
  1251  09EF  1D03               	skipz
  1252  09F0  29F3               	goto	u3425
  1253  09F1  300F               	movlw	low(0Fh)
  1254  09F2  0265               	subwf	(main@i),w
  1255  09F3                     u3425:
  1256                           
  1257  09F3  1C03               	skipc
  1258  09F4  29F6               	goto	u3421
  1259  09F5  29F7               	goto	u3420
  1260  09F6                     u3421:
  1261  09F6  29F9               	goto	l2610
  1262  09F7                     u3420:
  1263  09F7  2A14               	goto	l2616
  1264                           	
  1265  09F8                     l2608:	
  1266  09F8  2A14               	goto	l2616
  1267                           	line	102
  1268                           	
  1269  09F9                     l179:	
  1270                           	line	103
  1271                           	
  1272  09F9                     l2610:	
  1273                           ;PR28.c: 102: {
  1274                           ;PR28.c: 103: lcd_shift();
  1275  09F9  160A  158A  2634   	fcall	_lcd_shift
              120A  158A         
  1276                           	line	101
  1277                           	
  1278  09FE                     l2612:	
  1279  09FE  3001               	movlw	low(01h)
  1280  09FF  1283               	bcf	status, 5	;RP0=0, select bank0
  1281  0A00  1303               	bcf	status, 6	;RP1=0, select bank0
  1282  0A01  07E5               	addwf	(main@i),f
  1283  0A02  1803               	skipnc
  1284  0A03  0AE6               	incf	(main@i+1),f
  1285  0A04  3000               	movlw	high(01h)
  1286  0A05  07E6               	addwf	(main@i+1),f
  1287                           	
  1288  0A06                     l2614:	
  1289  0A06  0866               	movf	(main@i+1),w
  1290  0A07  3A80               	xorlw	80h
  1291  0A08  00FF               	movwf	btemp+1
  1292  0A09  3080               	movlw	(high(0Fh))^80h
  1293  0A0A  027F               	subwf	btemp+1,w
  1294  0A0B  1D03               	skipz
  1295  0A0C  2A0F               	goto	u3435
  1296  0A0D  300F               	movlw	low(0Fh)
  1297  0A0E  0265               	subwf	(main@i),w
  1298  0A0F                     u3435:
  1299                           
  1300  0A0F  1C03               	skipc
  1301  0A10  2A12               	goto	u3431
  1302  0A11  2A13               	goto	u3430
  1303  0A12                     u3431:
  1304  0A12  29F9               	goto	l2610
  1305  0A13                     u3430:
  1306  0A13  2A14               	goto	l2616
  1307                           	
  1308  0A14                     l180:	
  1309                           	line	105
  1310                           	
  1311  0A14                     l2616:	
  1312                           ;PR28.c: 104: }
  1313                           ;PR28.c: 105: delay(30000);
  1314  0A14  3000               	movlw	0
  1315  0A15  1283               	bcf	status, 5	;RP0=0, select bank0
  1316  0A16  1303               	bcf	status, 6	;RP1=0, select bank0
  1317  0A17  00D5               	movwf	(?_delay+3)
  1318  0A18  3000               	movlw	0
  1319  0A19  00D4               	movwf	(?_delay+2)
  1320  0A1A  3075               	movlw	075h
  1321  0A1B  00D3               	movwf	(?_delay+1)
  1322  0A1C  3030               	movlw	030h
  1323  0A1D  00D2               	movwf	(?_delay)
  1324                           
  1325  0A1E  160A  158A  2764   	fcall	_delay
              120A  158A         
  1326                           	line	106
  1327                           	
  1328  0A23                     l2618:	
  1329                           ;PR28.c: 106: lcd_clr();
  1330  0A23  160A  158A  264A   	fcall	_lcd_clr
              120A  158A         
  1331                           	line	107
  1332                           	
  1333  0A28                     l2620:	
  1334                           ;PR28.c: 107: lcd_goto(0);
  1335  0A28  3000               	movlw	(0)
  1336  0A29  160A  118A  20DE   	fcall	_lcd_goto
              120A  158A         
  1337                           	line	108
  1338                           	
  1339  0A2E                     l2622:	
  1340                           ;PR28.c: 108: send_string("Player 1 = red");
  1341  0A2E  30B4               	movlw	((STR_3-__stringbase))&0ffh
  1342  0A2F  160A  158A  273A   	fcall	_send_string
              120A  158A         
  1343                           	line	109
  1344                           	
  1345  0A34                     l2624:	
  1346                           ;PR28.c: 109: lcd_goto(20);
  1347  0A34  3014               	movlw	(014h)
  1348  0A35  160A  118A  20DE   	fcall	_lcd_goto
              120A  158A         
  1349                           	line	110
  1350                           	
  1351  0A3A                     l2626:	
  1352                           ;PR28.c: 110: send_string("Player 2 = green");
  1353  0A3A  3073               	movlw	((STR_4-__stringbase))&0ffh
  1354  0A3B  160A  158A  273A   	fcall	_send_string
              120A  158A         
  1355                           	line	111
  1356                           	
  1357  0A40                     l2628:	
  1358                           ;PR28.c: 111: delay(60000);
  1359  0A40  3000               	movlw	0
  1360  0A41  1283               	bcf	status, 5	;RP0=0, select bank0
  1361  0A42  1303               	bcf	status, 6	;RP1=0, select bank0
  1362  0A43  00D5               	movwf	(?_delay+3)
  1363  0A44  3000               	movlw	0
  1364  0A45  00D4               	movwf	(?_delay+2)
  1365  0A46  30EA               	movlw	0EAh
  1366  0A47  00D3               	movwf	(?_delay+1)
  1367  0A48  3060               	movlw	060h
  1368  0A49  00D2               	movwf	(?_delay)
  1369                           
  1370  0A4A  160A  158A  2764   	fcall	_delay
              120A  158A         
  1371                           	line	112
  1372                           ;PR28.c: 112: lcd_clr();
  1373  0A4F  160A  158A  264A   	fcall	_lcd_clr
              120A  158A         
  1374                           	line	113
  1375                           ;PR28.c: 113: lcd_goto(0);
  1376  0A54  3000               	movlw	(0)
  1377  0A55  160A  118A  20DE   	fcall	_lcd_goto
              120A  158A         
  1378                           	line	114
  1379                           ;PR28.c: 114: send_string("Player 1 starts");
  1380  0A5A  30A4               	movlw	((STR_5-__stringbase))&0ffh
  1381  0A5B  160A  158A  273A   	fcall	_send_string
              120A  158A         
  1382                           	line	115
  1383                           ;PR28.c: 115: lcd_goto(20);
  1384  0A60  3014               	movlw	(014h)
  1385  0A61  160A  118A  20DE   	fcall	_lcd_goto
              120A  158A         
  1386                           	line	116
  1387                           ;PR28.c: 116: send_string("first");
  1388  0A66  30CE               	movlw	((STR_6-__stringbase))&0ffh
  1389  0A67  160A  158A  273A   	fcall	_send_string
              120A  158A         
  1390                           	line	117
  1391                           	
  1392  0A6C                     l2630:	
  1393                           ;PR28.c: 117: delay(30000);
  1394  0A6C  3000               	movlw	0
  1395  0A6D  1283               	bcf	status, 5	;RP0=0, select bank0
  1396  0A6E  1303               	bcf	status, 6	;RP1=0, select bank0
  1397  0A6F  00D5               	movwf	(?_delay+3)
  1398  0A70  3000               	movlw	0
  1399  0A71  00D4               	movwf	(?_delay+2)
  1400  0A72  3075               	movlw	075h
  1401  0A73  00D3               	movwf	(?_delay+1)
  1402  0A74  3030               	movlw	030h
  1403  0A75  00D2               	movwf	(?_delay)
  1404                           
  1405  0A76  160A  158A  2764   	fcall	_delay
              120A  158A         
  1406                           	line	119
  1407                           	
  1408  0A7B                     l2632:	
  1409                           ;PR28.c: 119: Buttons.BTN0 = Buttons.BTN1 = Buttons.BTN2 = Buttons.BTN3 = 0;
  1410  0A7B  3000               	movlw	(0)
  1411  0A7C  1283               	bcf	status, 5	;RP0=0, select bank0
  1412  0A7D  1303               	bcf	status, 6	;RP1=0, select bank0
  1413  0A7E  00B5               	movwf	0+(_Buttons)+03h
  1414  0A7F  00B4               	movwf	0+(_Buttons)+02h
  1415  0A80  00B3               	movwf	0+(_Buttons)+01h
  1416  0A81  00E4               	movwf	(??_main+0)+0
  1417  0A82  0864               	movf	(??_main+0)+0,w
  1418  0A83  00B2               	movwf	(_Buttons)
  1419                           	line	120
  1420                           	
  1421  0A84                     l2634:	
  1422                           ;PR28.c: 120: Buttons.BTN4 = Buttons.BTN5 = Buttons.BTN6 = Buttons.BTN7 = 0;
  1423  0A84  3000               	movlw	(0)
  1424  0A85  00B9               	movwf	0+(_Buttons)+07h
  1425  0A86  00B8               	movwf	0+(_Buttons)+06h
  1426  0A87  00B7               	movwf	0+(_Buttons)+05h
  1427  0A88  00E4               	movwf	(??_main+0)+0
  1428  0A89  0864               	movf	(??_main+0)+0,w
  1429  0A8A  00B6               	movwf	0+(_Buttons)+04h
  1430                           	line	121
  1431                           	
  1432  0A8B                     l2636:	
  1433                           ;PR28.c: 121: Buttons.BTN8 = 0;
  1434  0A8B  01BA               	clrf	0+(_Buttons)+08h
  1435                           	line	124
  1436                           	
  1437  0A8C                     l2638:	
  1438                           ;PR28.c: 124: PIEZO_S();
  1439  0A8C  160A  118A  23CA   	fcall	_PIEZO_S
              120A  158A         
  1440                           	line	125
  1441                           ;PR28.c: 125: while (data == ' ')
  1442  0A91  2ACC               	goto	l2646
  1443                           	
  1444  0A92                     l182:	
  1445                           	line	127
  1446                           	
  1447  0A92                     l2640:	
  1448                           ;PR28.c: 126: {
  1449                           ;PR28.c: 127: if( flag == 0)
  1450  0A92  1283               	bcf	status, 5	;RP0=0, select bank0
  1451  0A93  1303               	bcf	status, 6	;RP1=0, select bank0
  1452  0A94  08CF               	movf	(_flag),f
  1453  0A95  1D03               	skipz
  1454  0A96  2A98               	goto	u3441
  1455  0A97  2A99               	goto	u3440
  1456  0A98                     u3441:
  1457  0A98  2AAB               	goto	l2644
  1458  0A99                     u3440:
  1459                           	line	129
  1460                           	
  1461  0A99                     l2642:	
  1462                           ;PR28.c: 128: {
  1463                           ;PR28.c: 129: lcd_clr();
  1464  0A99  160A  158A  264A   	fcall	_lcd_clr
              120A  158A         
  1465                           	line	130
  1466                           ;PR28.c: 130: lcd_goto(0);
  1467  0A9E  3000               	movlw	(0)
  1468  0A9F  160A  118A  20DE   	fcall	_lcd_goto
              120A  158A         
  1469                           	line	131
  1470                           ;PR28.c: 131: send_string("Player 1's turn");
  1471  0AA4  3084               	movlw	((STR_7-__stringbase))&0ffh
  1472  0AA5  160A  158A  273A   	fcall	_send_string
              120A  158A         
  1473                           	line	132
  1474                           ;PR28.c: 132: }else
  1475  0AAA  2ABC               	goto	l184
  1476                           	
  1477  0AAB                     l183:	
  1478                           	line	134
  1479                           	
  1480  0AAB                     l2644:	
  1481                           ;PR28.c: 133: {
  1482                           ;PR28.c: 134: lcd_clr();
  1483  0AAB  160A  158A  264A   	fcall	_lcd_clr
              120A  158A         
  1484                           	line	135
  1485                           ;PR28.c: 135: lcd_goto(0);
  1486  0AB0  3000               	movlw	(0)
  1487  0AB1  160A  118A  20DE   	fcall	_lcd_goto
              120A  158A         
  1488                           	line	136
  1489                           ;PR28.c: 136: send_string("Player 2's turn");
  1490  0AB6  3094               	movlw	((STR_8-__stringbase))&0ffh
  1491  0AB7  160A  158A  273A   	fcall	_send_string
              120A  158A         
  1492                           	line	137
  1493                           	
  1494  0ABC                     l184:	
  1495                           	line	138
  1496                           ;PR28.c: 137: }
  1497                           ;PR28.c: 138: checkflag();
  1498  0ABC  160A  158A  26C3   	fcall	_checkflag
              120A  158A         
  1499                           	line	139
  1500                           ;PR28.c: 139: data = winlose();
  1501  0AC1  120A  158A  203E   	fcall	_winlose
              120A  158A         
  1502  0AC6  1283               	bcf	status, 5	;RP0=0, select bank0
  1503  0AC7  1303               	bcf	status, 6	;RP1=0, select bank0
  1504  0AC8  00E4               	movwf	(??_main+0)+0
  1505  0AC9  0864               	movf	(??_main+0)+0,w
  1506  0ACA  00CE               	movwf	(_data)
  1507  0ACB  2ACC               	goto	l2646
  1508                           	line	140
  1509                           	
  1510  0ACC                     l181:	
  1511                           	line	125
  1512                           	
  1513  0ACC                     l2646:	
  1514  0ACC  1283               	bcf	status, 5	;RP0=0, select bank0
  1515  0ACD  1303               	bcf	status, 6	;RP1=0, select bank0
  1516  0ACE  084E               	movf	(_data),w
  1517  0ACF  3A20               	xorlw	020h
  1518  0AD0  1903               	skipnz
  1519  0AD1  2AD3               	goto	u3451
  1520  0AD2  2AD4               	goto	u3450
  1521  0AD3                     u3451:
  1522  0AD3  2A92               	goto	l2640
  1523  0AD4                     u3450:
  1524  0AD4  2AD5               	goto	l2648
  1525                           	
  1526  0AD5                     l185:	
  1527                           	line	141
  1528                           	
  1529  0AD5                     l2648:	
  1530                           ;PR28.c: 140: }
  1531                           ;PR28.c: 141: if(data =='X'){
  1532  0AD5  084E               	movf	(_data),w
  1533  0AD6  3A58               	xorlw	058h
  1534  0AD7  1D03               	skipz
  1535  0AD8  2ADA               	goto	u3461
  1536  0AD9  2ADB               	goto	u3460
  1537  0ADA                     u3461:
  1538  0ADA  2AFE               	goto	l2652
  1539  0ADB                     u3460:
  1540                           	line	142
  1541                           	
  1542  0ADB                     l2650:	
  1543                           ;PR28.c: 142: PIEZO();
  1544  0ADB  160A  118A  25AC   	fcall	_PIEZO
              120A  158A         
  1545                           	line	143
  1546                           ;PR28.c: 143: lcd_clr();
  1547  0AE0  160A  158A  264A   	fcall	_lcd_clr
              120A  158A         
  1548                           	line	144
  1549                           ;PR28.c: 144: lcd_goto(0);
  1550  0AE5  3000               	movlw	(0)
  1551  0AE6  160A  118A  20DE   	fcall	_lcd_goto
              120A  158A         
  1552                           	line	145
  1553                           ;PR28.c: 145: send_string("congratulation! ");
  1554  0AEB  3040               	movlw	((STR_9-__stringbase))&0ffh
  1555  0AEC  160A  158A  273A   	fcall	_send_string
              120A  158A         
  1556                           	line	146
  1557                           ;PR28.c: 146: lcd_goto(20);
  1558  0AF1  3014               	movlw	(014h)
  1559  0AF2  160A  118A  20DE   	fcall	_lcd_goto
              120A  158A         
  1560                           	line	147
  1561                           ;PR28.c: 147: send_string("**player1 wins**");
  1562  0AF7  3051               	movlw	((STR_10-__stringbase))&0ffh
  1563  0AF8  160A  158A  273A   	fcall	_send_string
              120A  158A         
  1564  0AFD  2AFE               	goto	l2652
  1565                           	line	148
  1566                           	
  1567  0AFE                     l186:	
  1568                           	line	149
  1569                           	
  1570  0AFE                     l2652:	
  1571                           ;PR28.c: 148: }
  1572                           ;PR28.c: 149: if(data == 'O'){
  1573  0AFE  1283               	bcf	status, 5	;RP0=0, select bank0
  1574  0AFF  1303               	bcf	status, 6	;RP1=0, select bank0
  1575  0B00  084E               	movf	(_data),w
  1576  0B01  3A4F               	xorlw	04Fh
  1577  0B02  1D03               	skipz
  1578  0B03  2B05               	goto	u3471
  1579  0B04  2B06               	goto	u3470
  1580  0B05                     u3471:
  1581  0B05  2B54               	goto	l2658
  1582  0B06                     u3470:
  1583                           	line	150
  1584                           	
  1585  0B06                     l2654:	
  1586                           ;PR28.c: 150: PIEZO();
  1587  0B06  160A  118A  25AC   	fcall	_PIEZO
              120A  158A         
  1588                           	line	151
  1589                           ;PR28.c: 151: lcd_clr();
  1590  0B0B  160A  158A  264A   	fcall	_lcd_clr
              120A  158A         
  1591                           	line	152
  1592                           ;PR28.c: 152: lcd_goto(0);
  1593  0B10  3000               	movlw	(0)
  1594  0B11  160A  118A  20DE   	fcall	_lcd_goto
              120A  158A         
  1595                           	line	153
  1596                           ;PR28.c: 153: send_string("congratulation! ");
  1597  0B16  3040               	movlw	((STR_11-__stringbase))&0ffh
  1598  0B17  160A  158A  273A   	fcall	_send_string
              120A  158A         
  1599                           	line	154
  1600                           ;PR28.c: 154: lcd_goto(20);
  1601  0B1C  3014               	movlw	(014h)
  1602  0B1D  160A  118A  20DE   	fcall	_lcd_goto
              120A  158A         
  1603                           	line	155
  1604                           ;PR28.c: 155: send_string("**player2 wins**");
  1605  0B22  3062               	movlw	((STR_12-__stringbase))&0ffh
  1606  0B23  160A  158A  273A   	fcall	_send_string
              120A  158A         
  1607  0B28  2B54               	goto	l2658
  1608                           	line	156
  1609                           	
  1610  0B29                     l187:	
  1611                           ;PR28.c: 156: }while(data == 'd'){
  1612  0B29  2B54               	goto	l2658
  1613                           	
  1614  0B2A                     l189:	
  1615                           	line	157
  1616                           	
  1617  0B2A                     l2656:	
  1618                           ;PR28.c: 157: PIEZO_D();
  1619  0B2A  120A  158A  255C   	fcall	_PIEZO_D
              120A  158A         
  1620                           	line	158
  1621                           ;PR28.c: 158: while(1){
  1622                           	
  1623  0B2F                     l190:	
  1624                           	line	159
  1625                           ;PR28.c: 159: draw();
  1626  0B2F  160A  158A  2796   	fcall	_draw
              120A  158A         
  1627                           	line	160
  1628                           ;PR28.c: 160: lcd_clr();
  1629  0B34  160A  158A  264A   	fcall	_lcd_clr
              120A  158A         
  1630                           	line	161
  1631                           ;PR28.c: 161: lcd_goto(0);
  1632  0B39  3000               	movlw	(0)
  1633  0B3A  160A  118A  20DE   	fcall	_lcd_goto
              120A  158A         
  1634                           	line	162
  1635                           ;PR28.c: 162: send_string("congratulation! ");
  1636  0B3F  3040               	movlw	((STR_13-__stringbase))&0ffh
  1637  0B40  160A  158A  273A   	fcall	_send_string
              120A  158A         
  1638                           	line	163
  1639                           ;PR28.c: 163: lcd_goto(20);
  1640  0B45  3014               	movlw	(014h)
  1641  0B46  160A  118A  20DE   	fcall	_lcd_goto
              120A  158A         
  1642                           	line	164
  1643                           ;PR28.c: 164: send_string("***draw***");
  1644  0B4B  30C3               	movlw	((STR_14-__stringbase))&0ffh
  1645  0B4C  160A  158A  273A   	fcall	_send_string
              120A  158A         
  1646  0B51  2B2F               	goto	l190
  1647                           	line	165
  1648                           	
  1649  0B52                     l191:	
  1650                           	line	158
  1651  0B52  2B2F               	goto	l190
  1652                           	
  1653  0B53                     l192:	
  1654  0B53  2B54               	goto	l2658
  1655                           	line	166
  1656                           	
  1657  0B54                     l188:	
  1658                           	line	156
  1659                           	
  1660  0B54                     l2658:	
  1661  0B54  1283               	bcf	status, 5	;RP0=0, select bank0
  1662  0B55  1303               	bcf	status, 6	;RP1=0, select bank0
  1663  0B56  084E               	movf	(_data),w
  1664  0B57  3A64               	xorlw	064h
  1665  0B58  1903               	skipnz
  1666  0B59  2B5B               	goto	u3481
  1667  0B5A  2B5C               	goto	u3480
  1668  0B5B                     u3481:
  1669  0B5B  2B2A               	goto	l2656
  1670  0B5C                     u3480:
  1671  0B5C  2B5D               	goto	l194
  1672                           	
  1673  0B5D                     l193:	
  1674                           	line	167
  1675                           ;PR28.c: 165: }
  1676                           ;PR28.c: 166: }
  1677                           ;PR28.c: 167: while(1){}
  1678                           	
  1679  0B5D                     l194:	
  1680                           	
  1681  0B5D                     l195:	
  1682  0B5D  2B5D               	goto	l194
  1683                           	
  1684  0B5E                     l196:	
  1685                           	line	168
  1686                           	
  1687  0B5E                     l197:	
  1688                           	global	start
  1689  0B5E  120A  118A  2812   	ljmp	start
  1690                           	opt stack 0
  1691                           GLOBAL	__end_of_main
  1692  0B61                     	__end_of_main:
  1693                           	signat	_main,88
  1694                           	global	_Init
  1695                           
  1696 ;; *************** function _Init *****************
  1697 ;; Defined at:
  1698 ;;		line 177 in file "PR28.c"
  1699 ;; Parameters:    Size  Location     Type
  1700 ;;		None
  1701 ;; Auto vars:     Size  Location     Type
  1702 ;;		None
  1703 ;; Return value:  Size  Location     Type
  1704 ;;		None               void
  1705 ;; Registers used:
  1706 ;;		wreg, fsr0l, fsr0h, fsr1l, fsr1h, status,2, status,0, btemp+1, pclath, cstack
  1707 ;; Tracked objects:
  1708 ;;		On entry : 0/0
  1709 ;;		On exit  : 0/0
  1710 ;;		Unchanged: 0/0
  1711 ;; Data sizes:     COMMON   BANK0   BANK1   BANK3   BANK2
  1712 ;;      Params:         0       0       0       0       0
  1713 ;;      Locals:         0       0       0       0       0
  1714 ;;      Temps:          0       1       0       0       0
  1715 ;;      Totals:         0       1       0       0       0
  1716 ;;Total ram usage:        1 bytes
  1717 ;; Hardware stack levels used:    1
  1718 ;; Hardware stack levels required when called:    5
  1719 ;; This function calls:
  1720 ;;		_led_off
  1721 ;;		_CapInit
  1722 ;;		_winlose
  1723 ;; This function is called by:
  1724 ;;		_main
  1725 ;; This function uses a non-reentrant model
  1726 ;;
  1727                           psect	text657,local,class=CODE,delta=2,merge=1
  1728                           global __ptext657
  1729  0803                     __ptext657:
  1730                           psect	text657
  1731                           	file	"PR28.c"
  1732                           	line	177
  1733                           	global	__size_of_Init
  1734  003B                     	__size_of_Init	equ	__end_of_Init-_Init
  1735                           	
  1736  0803                     _Init:	
  1737                           	opt	stack 2
  1738                           ; Regs used in _Init: [allreg]
  1739                           	line	192
  1740                           	
  1741  0803                     l2660:	
  1742                           ;PR28.c: 192: TRISA = 0b00010000;
  1743  0803  3010               	movlw	(010h)
  1744  0804  1683               	bsf	status, 5	;RP0=1, select bank1
  1745  0805  1303               	bcf	status, 6	;RP1=0, select bank1
  1746  0806  0085               	movwf	(133)^080h	;volatile
  1747                           	line	193
  1748                           	
  1749  0807                     l2662:	
  1750                           ;PR28.c: 193: TRISB = 0b00000000;
  1751  0807  0186               	clrf	(134)^080h	;volatile
  1752                           	line	194
  1753                           	
  1754  0808                     l2664:	
  1755                           ;PR28.c: 194: TRISC = 0b00000000;
  1756  0808  0187               	clrf	(135)^080h	;volatile
  1757                           	line	195
  1758                           ;PR28.c: 195: TRISD = 0b11111111;
  1759  0809  30FF               	movlw	(0FFh)
  1760  080A  0088               	movwf	(136)^080h	;volatile
  1761                           	line	196
  1762                           	
  1763  080B                     l2666:	
  1764                           ;PR28.c: 196: TRISE = 0b00000000;
  1765  080B  0189               	clrf	(137)^080h	;volatile
  1766                           	line	197
  1767                           	
  1768  080C                     l2668:	
  1769                           ;PR28.c: 197: PORTB = 0;
  1770  080C  1283               	bcf	status, 5	;RP0=0, select bank0
  1771  080D  1303               	bcf	status, 6	;RP1=0, select bank0
  1772  080E  0186               	clrf	(6)	;volatile
  1773                           	line	198
  1774                           	
  1775  080F                     l2670:	
  1776                           ;PR28.c: 198: PORTE = 0;
  1777  080F  0189               	clrf	(9)	;volatile
  1778                           	line	200
  1779                           	
  1780  0810                     l2672:	
  1781                           ;PR28.c: 200: led_off();
  1782  0810  160A  158A  26F9   	fcall	_led_off
              120A  158A         
  1783                           	line	202
  1784                           	
  1785  0815                     l2674:	
  1786                           ;PR28.c: 202: ANSELA = 0x10;
  1787  0815  3010               	movlw	(010h)
  1788  0816  1683               	bsf	status, 5	;RP0=1, select bank3
  1789  0817  1703               	bsf	status, 6	;RP1=1, select bank3
  1790  0818  0085               	movwf	(389)^0180h	;volatile
  1791                           	line	203
  1792                           	
  1793  0819                     l2676:	
  1794                           ;PR28.c: 203: ANSELB = 0x00;
  1795  0819  0186               	clrf	(390)^0180h	;volatile
  1796                           	line	204
  1797                           	
  1798  081A                     l2678:	
  1799                           ;PR28.c: 204: ANSELE = 0x00;
  1800  081A  0189               	clrf	(393)^0180h	;volatile
  1801                           	line	205
  1802                           	
  1803  081B                     l2680:	
  1804                           ;PR28.c: 205: ANSELD = 0b11111111;
  1805  081B  30FF               	movlw	(0FFh)
  1806  081C  0088               	movwf	(392)^0180h	;volatile
  1807                           	line	207
  1808                           	
  1809  081D                     l2682:	
  1810                           ;PR28.c: 207: result = 0;
  1811  081D  1283               	bcf	status, 5	;RP0=0, select bank0
  1812  081E  1303               	bcf	status, 6	;RP1=0, select bank0
  1813  081F  01D1               	clrf	(_result)
  1814                           	line	208
  1815                           	
  1816  0820                     l2684:	
  1817                           ;PR28.c: 208: flag = 0;
  1818  0820  01CF               	clrf	(_flag)
  1819                           	line	209
  1820                           	
  1821  0821                     l2686:	
  1822                           ;PR28.c: 209: index =0;
  1823  0821  01D0               	clrf	(_index)
  1824                           	line	210
  1825                           	
  1826  0822                     l2688:	
  1827                           ;PR28.c: 210: OSCCON = 0x10;
  1828  0822  3010               	movlw	(010h)
  1829  0823  1683               	bsf	status, 5	;RP0=1, select bank1
  1830  0824  1303               	bcf	status, 6	;RP1=0, select bank1
  1831  0825  0090               	movwf	(144)^080h	;volatile
  1832                           	line	219
  1833                           	
  1834  0826                     l2690:	
  1835                           ;PR28.c: 219: GIE = 1;
  1836  0826  178B               	bsf	(95/8),(95)&7	;volatile
  1837                           	line	220
  1838                           	
  1839  0827                     l2692:	
  1840                           ;PR28.c: 220: CPSCON0 = 0b10001101;
  1841  0827  308D               	movlw	(08Dh)
  1842  0828  1283               	bcf	status, 5	;RP0=0, select bank2
  1843  0829  1703               	bsf	status, 6	;RP1=1, select bank2
  1844  082A  0088               	movwf	(264)^0100h	;volatile
  1845                           	line	221
  1846                           	
  1847  082B                     l2694:	
  1848                           ;PR28.c: 221: CPSCON1 = 0b00001000;
  1849  082B  3008               	movlw	(08h)
  1850  082C  0089               	movwf	(265)^0100h	;volatile
  1851                           	line	222
  1852                           	
  1853  082D                     l2696:	
  1854                           ;PR28.c: 222: CapInit();
  1855  082D  120A  118A  274D   	fcall	_CapInit
              120A  158A         
  1856                           	line	223
  1857                           	
  1858  0832                     l2698:	
  1859                           ;PR28.c: 223: data = winlose();
  1860  0832  120A  158A  203E   	fcall	_winlose
              120A  158A         
  1861  0837  1283               	bcf	status, 5	;RP0=0, select bank0
  1862  0838  1303               	bcf	status, 6	;RP1=0, select bank0
  1863  0839  00E3               	movwf	(??_Init+0)+0
  1864  083A  0863               	movf	(??_Init+0)+0,w
  1865  083B  00CE               	movwf	(_data)
  1866                           	line	224
  1867                           	
  1868  083C                     l2700:	
  1869                           ;PR28.c: 224: PEIE = 1;
  1870  083C  170B               	bsf	(94/8),(94)&7	;volatile
  1871                           	line	225
  1872                           	
  1873  083D                     l200:	
  1874  083D  0008               	return
  1875                           	opt stack 0
  1876                           GLOBAL	__end_of_Init
  1877  083E                     	__end_of_Init:
  1878                           	signat	_Init,88
  1879                           	global	_lcd_clr
  1880                           
  1881 ;; *************** function _lcd_clr *****************
  1882 ;; Defined at:
  1883 ;;		line 894 in file "PR28.c"
  1884 ;; Parameters:    Size  Location     Type
  1885 ;;		None
  1886 ;; Auto vars:     Size  Location     Type
  1887 ;;		None
  1888 ;; Return value:  Size  Location     Type
  1889 ;;		None               void
  1890 ;; Registers used:
  1891 ;;		wreg, status,2, status,0, pclath, cstack
  1892 ;; Tracked objects:
  1893 ;;		On entry : 0/0
  1894 ;;		On exit  : 0/0
  1895 ;;		Unchanged: 0/0
  1896 ;; Data sizes:     COMMON   BANK0   BANK1   BANK3   BANK2
  1897 ;;      Params:         0       0       0       0       0
  1898 ;;      Locals:         0       0       0       0       0
  1899 ;;      Temps:          0       0       0       0       0
  1900 ;;      Totals:         0       0       0       0       0
  1901 ;;Total ram usage:        0 bytes
  1902 ;; Hardware stack levels used:    1
  1903 ;; Hardware stack levels required when called:    6
  1904 ;; This function calls:
  1905 ;;		_send_config
  1906 ;;		_delay
  1907 ;; This function is called by:
  1908 ;;		_main
  1909 ;; This function uses a non-reentrant model
  1910 ;;
  1911                           psect	text658,local,class=CODE,delta=2,merge=1
  1912                           global __ptext658
  1913  1E4A                     __ptext658:
  1914                           psect	text658
  1915                           	file	"PR28.c"
  1916                           	line	894
  1917                           	global	__size_of_lcd_clr
  1918  0016                     	__size_of_lcd_clr	equ	__end_of_lcd_clr-_lcd_clr
  1919                           	
  1920  1E4A                     _lcd_clr:	
  1921                           	opt	stack 1
  1922                           ; Regs used in _lcd_clr: [wreg+status,2+status,0+pclath+cstack]
  1923                           	line	895
  1924                           	
  1925  1E4A                     l2710:	
  1926                           ;PR28.c: 895: send_config(0x01);
  1927  1E4A  3001               	movlw	(01h)
  1928  1E4B  160A  158A  2690   	fcall	_send_config
              160A  158A         
  1929                           	line	896
  1930                           ;PR28.c: 896: delay(50);
  1931  1E50  3000               	movlw	0
  1932  1E51  1283               	bcf	status, 5	;RP0=0, select bank0
  1933  1E52  1303               	bcf	status, 6	;RP1=0, select bank0
  1934  1E53  00D5               	movwf	(?_delay+3)
  1935  1E54  3000               	movlw	0
  1936  1E55  00D4               	movwf	(?_delay+2)
  1937  1E56  3000               	movlw	0
  1938  1E57  00D3               	movwf	(?_delay+1)
  1939  1E58  3032               	movlw	032h
  1940  1E59  00D2               	movwf	(?_delay)
  1941                           
  1942  1E5A  160A  158A  2764   	fcall	_delay
              160A  158A         
  1943                           	line	897
  1944                           	
  1945  1E5F                     l587:	
  1946  1E5F  0008               	return
  1947                           	opt stack 0
  1948                           GLOBAL	__end_of_lcd_clr
  1949  1E60                     	__end_of_lcd_clr:
  1950                           	signat	_lcd_clr,88
  1951                           	global	_lcd_goto
  1952                           
  1953 ;; *************** function _lcd_goto *****************
  1954 ;; Defined at:
  1955 ;;		line 867 in file "PR28.c"
  1956 ;; Parameters:    Size  Location     Type
  1957 ;;  data            1    wreg     unsigned char 
  1958 ;; Auto vars:     Size  Location     Type
  1959 ;;  data            1   10[BANK0 ] unsigned char 
  1960 ;; Return value:  Size  Location     Type
  1961 ;;		None               void
  1962 ;; Registers used:
  1963 ;;		wreg, status,2, status,0, pclath, cstack
  1964 ;; Tracked objects:
  1965 ;;		On entry : 0/0
  1966 ;;		On exit  : 0/0
  1967 ;;		Unchanged: 0/0
  1968 ;; Data sizes:     COMMON   BANK0   BANK1   BANK3   BANK2
  1969 ;;      Params:         0       0       0       0       0
  1970 ;;      Locals:         0       1       0       0       0
  1971 ;;      Temps:          0       1       0       0       0
  1972 ;;      Totals:         0       2       0       0       0
  1973 ;;Total ram usage:        2 bytes
  1974 ;; Hardware stack levels used:    1
  1975 ;; Hardware stack levels required when called:    6
  1976 ;; This function calls:
  1977 ;;		_send_config
  1978 ;; This function is called by:
  1979 ;;		_main
  1980 ;; This function uses a non-reentrant model
  1981 ;;
  1982                           psect	text659,local,class=CODE,delta=2,merge=1
  1983                           global __ptext659
  1984  10DE                     __ptext659:
  1985                           psect	text659
  1986                           	file	"PR28.c"
  1987                           	line	867
  1988                           	global	__size_of_lcd_goto
  1989  0021                     	__size_of_lcd_goto	equ	__end_of_lcd_goto-_lcd_goto
  1990                           	
  1991  10DE                     _lcd_goto:	
  1992                           	opt	stack 1
  1993                           ; Regs used in _lcd_goto: [wreg+status,2+status,0+pclath+cstack]
  1994                           ;lcd_goto@data stored from wreg
  1995  10DE  1283               	bcf	status, 5	;RP0=0, select bank0
  1996  10DF  1303               	bcf	status, 6	;RP1=0, select bank0
  1997  10E0  00DC               	movwf	(lcd_goto@data)
  1998                           	line	868
  1999                           	
  2000  10E1                     l2712:	
  2001                           ;PR28.c: 868: if(data<16)
  2002  10E1  3010               	movlw	(010h)
  2003  10E2  025C               	subwf	(lcd_goto@data),w
  2004  10E3  1803               	skipnc
  2005  10E4  28E6               	goto	u3491
  2006  10E5  28E7               	goto	u3490
  2007  10E6                     u3491:
  2008  10E6  28EF               	goto	l2716
  2009  10E7                     u3490:
  2010                           	line	870
  2011                           	
  2012  10E7                     l2714:	
  2013                           ;PR28.c: 869: {
  2014                           ;PR28.c: 870: send_config(0x80+data);
  2015  10E7  085C               	movf	(lcd_goto@data),w
  2016  10E8  3E80               	addlw	080h
  2017  10E9  160A  158A  2690   	fcall	_send_config
              160A  118A         
  2018                           	line	871
  2019                           ;PR28.c: 871: }
  2020  10EE  28FE               	goto	l581
  2021                           	line	872
  2022                           	
  2023  10EF                     l579:	
  2024                           	line	874
  2025                           	
  2026  10EF                     l2716:	
  2027                           ;PR28.c: 872: else
  2028                           ;PR28.c: 873: {
  2029                           ;PR28.c: 874: data=data-20;
  2030  10EF  1283               	bcf	status, 5	;RP0=0, select bank0
  2031  10F0  1303               	bcf	status, 6	;RP1=0, select bank0
  2032  10F1  085C               	movf	(lcd_goto@data),w
  2033  10F2  3EEC               	addlw	0ECh
  2034  10F3  00DB               	movwf	(??_lcd_goto+0)+0
  2035  10F4  085B               	movf	(??_lcd_goto+0)+0,w
  2036  10F5  00DC               	movwf	(lcd_goto@data)
  2037                           	line	875
  2038                           	
  2039  10F6                     l2718:	
  2040                           ;PR28.c: 875: send_config(0xc0+data);
  2041  10F6  085C               	movf	(lcd_goto@data),w
  2042  10F7  3EC0               	addlw	0C0h
  2043  10F8  160A  158A  2690   	fcall	_send_config
              160A  118A         
  2044  10FD  28FE               	goto	l581
  2045                           	line	876
  2046                           	
  2047  10FE                     l580:	
  2048                           	line	877
  2049                           	
  2050  10FE                     l581:	
  2051  10FE  0008               	return
  2052                           	opt stack 0
  2053                           GLOBAL	__end_of_lcd_goto
  2054  10FF                     	__end_of_lcd_goto:
  2055                           	signat	_lcd_goto,4216
  2056                           	global	_send_string
  2057                           
  2058 ;; *************** function _send_string *****************
  2059 ;; Defined at:
  2060 ;;		line 904 in file "PR28.c"
  2061 ;; Parameters:    Size  Location     Type
  2062 ;;  s               1    wreg     PTR const unsigned char 
  2063 ;;		 -> STR_14(11), STR_13(17), STR_12(17), STR_11(17), 
  2064 ;;		 -> STR_10(17), STR_9(17), STR_8(16), STR_7(16), 
  2065 ;;		 -> STR_6(6), STR_5(16), STR_4(17), STR_3(15), 
  2066 ;;		 -> STR_2(32), STR_1(31), 
  2067 ;; Auto vars:     Size  Location     Type
  2068 ;;  s               1   10[BANK0 ] PTR const unsigned char 
  2069 ;;		 -> STR_14(11), STR_13(17), STR_12(17), STR_11(17), 
  2070 ;;		 -> STR_10(17), STR_9(17), STR_8(16), STR_7(16), 
  2071 ;;		 -> STR_6(6), STR_5(16), STR_4(17), STR_3(15), 
  2072 ;;		 -> STR_2(32), STR_1(31), 
  2073 ;; Return value:  Size  Location     Type
  2074 ;;		None               void
  2075 ;; Registers used:
  2076 ;;		wreg, fsr0l, fsr0h, status,2, status,0, pclath, cstack
  2077 ;; Tracked objects:
  2078 ;;		On entry : 0/0
  2079 ;;		On exit  : 0/0
  2080 ;;		Unchanged: 0/0
  2081 ;; Data sizes:     COMMON   BANK0   BANK1   BANK3   BANK2
  2082 ;;      Params:         0       0       0       0       0
  2083 ;;      Locals:         0       1       0       0       0
  2084 ;;      Temps:          0       1       0       0       0
  2085 ;;      Totals:         0       2       0       0       0
  2086 ;;Total ram usage:        2 bytes
  2087 ;; Hardware stack levels used:    1
  2088 ;; Hardware stack levels required when called:    6
  2089 ;; This function calls:
  2090 ;;		_send_char
  2091 ;; This function is called by:
  2092 ;;		_main
  2093 ;; This function uses a non-reentrant model
  2094 ;;
  2095                           psect	text660,local,class=CODE,delta=2,merge=1
  2096                           global __ptext660
  2097  1F3A                     __ptext660:
  2098                           psect	text660
  2099                           	file	"PR28.c"
  2100                           	line	904
  2101                           	global	__size_of_send_string
  2102  002A                     	__size_of_send_string	equ	__end_of_send_string-_send_string
  2103                           	
  2104  1F3A                     _send_string:	
  2105                           	opt	stack 1
  2106                           ; Regs used in _send_string: [wreg-fsr0h+status,2+status,0+pclath+cstack]
  2107                           ;send_string@s stored from wreg
  2108  1F3A  1283               	bcf	status, 5	;RP0=0, select bank0
  2109  1F3B  1303               	bcf	status, 6	;RP1=0, select bank0
  2110  1F3C  00DC               	movwf	(send_string@s)
  2111                           	line	906
  2112                           	
  2113  1F3D                     l2720:	
  2114                           ;PR28.c: 906: while (s && *s)send_char (*s++);
  2115  1F3D  2F51               	goto	l2726
  2116                           	
  2117  1F3E                     l591:	
  2118                           	
  2119  1F3E                     l2722:	
  2120  1F3E  085C               	movf	(send_string@s),w
  2121  1F3F  0084               	movwf	fsr0
  2122  1F40  160A  118A  2000   	fcall	stringdir
              160A  158A         
  2123  1F45  160A  158A  2677   	fcall	_send_char
              160A  158A         
  2124                           	
  2125  1F4A                     l2724:	
  2126  1F4A  3001               	movlw	(01h)
  2127  1F4B  1283               	bcf	status, 5	;RP0=0, select bank0
  2128  1F4C  1303               	bcf	status, 6	;RP1=0, select bank0
  2129  1F4D  00DB               	movwf	(??_send_string+0)+0
  2130  1F4E  085B               	movf	(??_send_string+0)+0,w
  2131  1F4F  07DC               	addwf	(send_string@s),f
  2132  1F50  2F51               	goto	l2726
  2133                           	
  2134  1F51                     l590:	
  2135                           	
  2136  1F51                     l2726:	
  2137  1F51  085C               	movf	(send_string@s),w
  2138  1F52  1D03               	skipz
  2139  1F53  2F55               	goto	u3500
  2140  1F54  2F63               	goto	l595
  2141  1F55                     u3500:
  2142                           	
  2143  1F55                     l2728:	
  2144  1F55  085C               	movf	(send_string@s),w
  2145  1F56  0084               	movwf	fsr0
  2146  1F57  160A  118A  2000   	fcall	stringdir
              160A  158A         
  2147  1F5C  3800               	iorlw	0
  2148  1F5D  1D03               	skipz
  2149  1F5E  2F60               	goto	u3511
  2150  1F5F  2F61               	goto	u3510
  2151  1F60                     u3511:
  2152  1F60  2F3E               	goto	l2722
  2153  1F61                     u3510:
  2154  1F61  2F63               	goto	l595
  2155                           	
  2156  1F62                     l593:	
  2157  1F62  2F63               	goto	l595
  2158                           	
  2159  1F63                     l594:	
  2160                           	line	908
  2161                           	
  2162  1F63                     l595:	
  2163  1F63  0008               	return
  2164                           	opt stack 0
  2165                           GLOBAL	__end_of_send_string
  2166  1F64                     	__end_of_send_string:
  2167                           	signat	_send_string,4216
  2168                           	global	_lcd_shift
  2169                           
  2170 ;; *************** function _lcd_shift *****************
  2171 ;; Defined at:
  2172 ;;		line 884 in file "PR28.c"
  2173 ;; Parameters:    Size  Location     Type
  2174 ;;		None
  2175 ;; Auto vars:     Size  Location     Type
  2176 ;;		None
  2177 ;; Return value:  Size  Location     Type
  2178 ;;		None               void
  2179 ;; Registers used:
  2180 ;;		wreg, status,2, status,0, pclath, cstack
  2181 ;; Tracked objects:
  2182 ;;		On entry : 0/0
  2183 ;;		On exit  : 0/0
  2184 ;;		Unchanged: 0/0
  2185 ;; Data sizes:     COMMON   BANK0   BANK1   BANK3   BANK2
  2186 ;;      Params:         0       0       0       0       0
  2187 ;;      Locals:         0       0       0       0       0
  2188 ;;      Temps:          0       0       0       0       0
  2189 ;;      Totals:         0       0       0       0       0
  2190 ;;Total ram usage:        0 bytes
  2191 ;; Hardware stack levels used:    1
  2192 ;; Hardware stack levels required when called:    6
  2193 ;; This function calls:
  2194 ;;		_send_config
  2195 ;;		_delay
  2196 ;; This function is called by:
  2197 ;;		_main
  2198 ;; This function uses a non-reentrant model
  2199 ;;
  2200                           psect	text661,local,class=CODE,delta=2,merge=1
  2201                           global __ptext661
  2202  1E34                     __ptext661:
  2203                           psect	text661
  2204                           	file	"PR28.c"
  2205                           	line	884
  2206                           	global	__size_of_lcd_shift
  2207  0016                     	__size_of_lcd_shift	equ	__end_of_lcd_shift-_lcd_shift
  2208                           	
  2209  1E34                     _lcd_shift:	
  2210                           	opt	stack 1
  2211                           ; Regs used in _lcd_shift: [wreg+status,2+status,0+pclath+cstack]
  2212                           	line	885
  2213                           	
  2214  1E34                     l2736:	
  2215                           ;PR28.c: 885: send_config(0x18);
  2216  1E34  3018               	movlw	(018h)
  2217  1E35  160A  158A  2690   	fcall	_send_config
              160A  158A         
  2218                           	line	886
  2219                           ;PR28.c: 886: delay(6000);
  2220  1E3A  3000               	movlw	0
  2221  1E3B  1283               	bcf	status, 5	;RP0=0, select bank0
  2222  1E3C  1303               	bcf	status, 6	;RP1=0, select bank0
  2223  1E3D  00D5               	movwf	(?_delay+3)
  2224  1E3E  3000               	movlw	0
  2225  1E3F  00D4               	movwf	(?_delay+2)
  2226  1E40  3017               	movlw	017h
  2227  1E41  00D3               	movwf	(?_delay+1)
  2228  1E42  3070               	movlw	070h
  2229  1E43  00D2               	movwf	(?_delay)
  2230                           
  2231  1E44  160A  158A  2764   	fcall	_delay
              160A  158A         
  2232                           	line	887
  2233                           	
  2234  1E49                     l584:	
  2235  1E49  0008               	return
  2236                           	opt stack 0
  2237                           GLOBAL	__end_of_lcd_shift
  2238  1E4A                     	__end_of_lcd_shift:
  2239                           	signat	_lcd_shift,88
  2240                           	global	_send_config
  2241                           
  2242 ;; *************** function _send_config *****************
  2243 ;; Defined at:
  2244 ;;		line 831 in file "PR28.c"
  2245 ;; Parameters:    Size  Location     Type
  2246 ;;  data            1    wreg     unsigned char 
  2247 ;; Auto vars:     Size  Location     Type
  2248 ;;  data            1    8[BANK0 ] unsigned char 
  2249 ;; Return value:  Size  Location     Type
  2250 ;;		None               void
  2251 ;; Registers used:
  2252 ;;		wreg, status,2, status,0, pclath, cstack
  2253 ;; Tracked objects:
  2254 ;;		On entry : 0/0
  2255 ;;		On exit  : 0/0
  2256 ;;		Unchanged: 0/0
  2257 ;; Data sizes:     COMMON   BANK0   BANK1   BANK3   BANK2
  2258 ;;      Params:         0       0       0       0       0
  2259 ;;      Locals:         0       1       0       0       0
  2260 ;;      Temps:          0       0       0       0       0
  2261 ;;      Totals:         0       1       0       0       0
  2262 ;;Total ram usage:        1 bytes
  2263 ;; Hardware stack levels used:    1
  2264 ;; Hardware stack levels required when called:    5
  2265 ;; This function calls:
  2266 ;;		_delay
  2267 ;;		_e_pulse
  2268 ;; This function is called by:
  2269 ;;		_main
  2270 ;;		_lcd_goto
  2271 ;;		_lcd_shift
  2272 ;;		_lcd_clr
  2273 ;; This function uses a non-reentrant model
  2274 ;;
  2275                           psect	text662,local,class=CODE,delta=2,merge=1
  2276                           global __ptext662
  2277  1E90                     __ptext662:
  2278                           psect	text662
  2279                           	file	"PR28.c"
  2280                           	line	831
  2281                           	global	__size_of_send_config
  2282  0019                     	__size_of_send_config	equ	__end_of_send_config-_send_config
  2283                           	
  2284  1E90                     _send_config:	
  2285                           	opt	stack 1
  2286                           ; Regs used in _send_config: [wreg+status,2+status,0+pclath+cstack]
  2287                           ;send_config@data stored from wreg
  2288  1E90  1283               	bcf	status, 5	;RP0=0, select bank0
  2289  1E91  1303               	bcf	status, 6	;RP1=0, select bank0
  2290  1E92  00DA               	movwf	(send_config@data)
  2291                           	line	832
  2292                           	
  2293  1E93                     l2702:	
  2294                           ;PR28.c: 832: RE0=0;
  2295  1E93  1009               	bcf	(72/8),(72)&7	;volatile
  2296                           	line	833
  2297                           	
  2298  1E94                     l2704:	
  2299                           ;PR28.c: 833: PORTB=data;
  2300  1E94  085A               	movf	(send_config@data),w
  2301  1E95  0086               	movwf	(6)	;volatile
  2302                           	line	834
  2303                           	
  2304  1E96                     l2706:	
  2305                           ;PR28.c: 834: delay(50);
  2306  1E96  3000               	movlw	0
  2307  1E97  00D5               	movwf	(?_delay+3)
  2308  1E98  3000               	movlw	0
  2309  1E99  00D4               	movwf	(?_delay+2)
  2310  1E9A  3000               	movlw	0
  2311  1E9B  00D3               	movwf	(?_delay+1)
  2312  1E9C  3032               	movlw	032h
  2313  1E9D  00D2               	movwf	(?_delay)
  2314                           
  2315  1E9E  160A  158A  2764   	fcall	_delay
              160A  158A         
  2316                           	line	835
  2317                           	
  2318  1EA3                     l2708:	
  2319                           ;PR28.c: 835: e_pulse();
  2320  1EA3  160A  158A  2719   	fcall	_e_pulse
              160A  158A         
  2321                           	line	836
  2322                           	
  2323  1EA8                     l570:	
  2324  1EA8  0008               	return
  2325                           	opt stack 0
  2326                           GLOBAL	__end_of_send_config
  2327  1EA9                     	__end_of_send_config:
  2328                           	signat	_send_config,4216
  2329                           	global	_PIEZO_S
  2330                           
  2331 ;; *************** function _PIEZO_S *****************
  2332 ;; Defined at:
  2333 ;;		line 1129 in file "PR28.c"
  2334 ;; Parameters:    Size  Location     Type
  2335 ;;		None
  2336 ;; Auto vars:     Size  Location     Type
  2337 ;;		None
  2338 ;; Return value:  Size  Location     Type
  2339 ;;		None               void
  2340 ;; Registers used:
  2341 ;;		wreg, status,2, status,0, pclath, cstack
  2342 ;; Tracked objects:
  2343 ;;		On entry : 0/0
  2344 ;;		On exit  : 0/0
  2345 ;;		Unchanged: 0/0
  2346 ;; Data sizes:     COMMON   BANK0   BANK1   BANK3   BANK2
  2347 ;;      Params:         0       0       0       0       0
  2348 ;;      Locals:         0       0       0       0       0
  2349 ;;      Temps:          0       0       0       0       0
  2350 ;;      Totals:         0       0       0       0       0
  2351 ;;Total ram usage:        0 bytes
  2352 ;; Hardware stack levels used:    1
  2353 ;; Hardware stack levels required when called:    4
  2354 ;; This function calls:
  2355 ;;		_delay
  2356 ;;		_RestartTimer1
  2357 ;; This function is called by:
  2358 ;;		_main
  2359 ;; This function uses a non-reentrant model
  2360 ;;
  2361                           psect	text663,local,class=CODE,delta=2,merge=1
  2362                           global __ptext663
  2363  13CA                     __ptext663:
  2364                           psect	text663
  2365                           	file	"PR28.c"
  2366                           	line	1129
  2367                           	global	__size_of_PIEZO_S
  2368  00D6                     	__size_of_PIEZO_S	equ	__end_of_PIEZO_S-_PIEZO_S
  2369                           	
  2370  13CA                     _PIEZO_S:	
  2371                           	opt	stack 3
  2372                           ; Regs used in _PIEZO_S: [wreg+status,2+status,0+pclath+cstack]
  2373                           	line	1130
  2374                           	
  2375  13CA                     l2738:	
  2376                           ;PR28.c: 1130: GIE=0;
  2377  13CA  138B               	bcf	(95/8),(95)&7	;volatile
  2378                           	line	1131
  2379                           ;PR28.c: 1131: TMR2ON = 0;
  2380  13CB  1283               	bcf	status, 5	;RP0=0, select bank0
  2381  13CC  1303               	bcf	status, 6	;RP1=0, select bank0
  2382  13CD  1112               	bcf	(146/8),(146)&7	;volatile
  2383                           	line	1132
  2384                           ;PR28.c: 1132: TMR1ON = 0;
  2385  13CE  1010               	bcf	(128/8),(128)&7	;volatile
  2386                           	line	1134
  2387                           	
  2388  13CF                     l2740:	
  2389                           ;PR28.c: 1134: CCP1CON = 0b00001100;
  2390  13CF  300C               	movlw	(0Ch)
  2391  13D0  0097               	movwf	(23)	;volatile
  2392                           	line	1135
  2393                           ;PR28.c: 1135: T2CON = 0b00000111;
  2394  13D1  3007               	movlw	(07h)
  2395  13D2  0092               	movwf	(18)	;volatile
  2396                           	line	1137
  2397                           ;PR28.c: 1137: PR2 = 0xEE;
  2398  13D3  30EE               	movlw	(0EEh)
  2399  13D4  1683               	bsf	status, 5	;RP0=1, select bank1
  2400  13D5  1303               	bcf	status, 6	;RP1=0, select bank1
  2401  13D6  0092               	movwf	(146)^080h	;volatile
  2402                           	line	1138
  2403                           ;PR28.c: 1138: CCPR1L = 50;
  2404  13D7  3032               	movlw	(032h)
  2405  13D8  1283               	bcf	status, 5	;RP0=0, select bank0
  2406  13D9  1303               	bcf	status, 6	;RP1=0, select bank0
  2407  13DA  0095               	movwf	(21)	;volatile
  2408                           	line	1139
  2409                           	
  2410  13DB                     l2742:	
  2411                           ;PR28.c: 1139: delay(2000);
  2412  13DB  3000               	movlw	0
  2413  13DC  00D5               	movwf	(?_delay+3)
  2414  13DD  3000               	movlw	0
  2415  13DE  00D4               	movwf	(?_delay+2)
  2416  13DF  3007               	movlw	07h
  2417  13E0  00D3               	movwf	(?_delay+1)
  2418  13E1  30D0               	movlw	0D0h
  2419  13E2  00D2               	movwf	(?_delay)
  2420                           
  2421  13E3  160A  158A  2764   	fcall	_delay
              160A  118A         
  2422                           	line	1140
  2423                           	
  2424  13E8                     l2744:	
  2425                           ;PR28.c: 1140: PR2 = 0xD3;
  2426  13E8  30D3               	movlw	(0D3h)
  2427  13E9  1683               	bsf	status, 5	;RP0=1, select bank1
  2428  13EA  1303               	bcf	status, 6	;RP1=0, select bank1
  2429  13EB  0092               	movwf	(146)^080h	;volatile
  2430                           	line	1141
  2431                           	
  2432  13EC                     l2746:	
  2433                           ;PR28.c: 1141: CCPR1L = 50;
  2434  13EC  3032               	movlw	(032h)
  2435  13ED  1283               	bcf	status, 5	;RP0=0, select bank0
  2436  13EE  1303               	bcf	status, 6	;RP1=0, select bank0
  2437  13EF  0095               	movwf	(21)	;volatile
  2438                           	line	1142
  2439                           	
  2440  13F0                     l2748:	
  2441                           ;PR28.c: 1142: delay(2000);
  2442  13F0  3000               	movlw	0
  2443  13F1  00D5               	movwf	(?_delay+3)
  2444  13F2  3000               	movlw	0
  2445  13F3  00D4               	movwf	(?_delay+2)
  2446  13F4  3007               	movlw	07h
  2447  13F5  00D3               	movwf	(?_delay+1)
  2448  13F6  30D0               	movlw	0D0h
  2449  13F7  00D2               	movwf	(?_delay)
  2450                           
  2451  13F8  160A  158A  2764   	fcall	_delay
              160A  118A         
  2452                           	line	1143
  2453                           ;PR28.c: 1143: PR2 = 0xBD;
  2454  13FD  30BD               	movlw	(0BDh)
  2455  13FE  1683               	bsf	status, 5	;RP0=1, select bank1
  2456  13FF  1303               	bcf	status, 6	;RP1=0, select bank1
  2457  1400  0092               	movwf	(146)^080h	;volatile
  2458                           	line	1144
  2459                           ;PR28.c: 1144: CCPR1L = 100;
  2460  1401  3064               	movlw	(064h)
  2461  1402  1283               	bcf	status, 5	;RP0=0, select bank0
  2462  1403  1303               	bcf	status, 6	;RP1=0, select bank0
  2463  1404  0095               	movwf	(21)	;volatile
  2464                           	line	1145
  2465                           	
  2466  1405                     l2750:	
  2467                           ;PR28.c: 1145: delay(2000);
  2468  1405  3000               	movlw	0
  2469  1406  00D5               	movwf	(?_delay+3)
  2470  1407  3000               	movlw	0
  2471  1408  00D4               	movwf	(?_delay+2)
  2472  1409  3007               	movlw	07h
  2473  140A  00D3               	movwf	(?_delay+1)
  2474  140B  30D0               	movlw	0D0h
  2475  140C  00D2               	movwf	(?_delay)
  2476                           
  2477  140D  160A  158A  2764   	fcall	_delay
              160A  118A         
  2478                           	line	1146
  2479                           	
  2480  1412                     l2752:	
  2481                           ;PR28.c: 1146: PR2 = 0xB2;
  2482  1412  30B2               	movlw	(0B2h)
  2483  1413  1683               	bsf	status, 5	;RP0=1, select bank1
  2484  1414  1303               	bcf	status, 6	;RP1=0, select bank1
  2485  1415  0092               	movwf	(146)^080h	;volatile
  2486                           	line	1147
  2487                           	
  2488  1416                     l2754:	
  2489                           ;PR28.c: 1147: CCPR1L = 100;
  2490  1416  3064               	movlw	(064h)
  2491  1417  1283               	bcf	status, 5	;RP0=0, select bank0
  2492  1418  1303               	bcf	status, 6	;RP1=0, select bank0
  2493  1419  0095               	movwf	(21)	;volatile
  2494                           	line	1148
  2495                           	
  2496  141A                     l2756:	
  2497                           ;PR28.c: 1148: delay(2000);
  2498  141A  3000               	movlw	0
  2499  141B  00D5               	movwf	(?_delay+3)
  2500  141C  3000               	movlw	0
  2501  141D  00D4               	movwf	(?_delay+2)
  2502  141E  3007               	movlw	07h
  2503  141F  00D3               	movwf	(?_delay+1)
  2504  1420  30D0               	movlw	0D0h
  2505  1421  00D2               	movwf	(?_delay)
  2506                           
  2507  1422  160A  158A  2764   	fcall	_delay
              160A  118A         
  2508                           	line	1149
  2509                           ;PR28.c: 1149: PR2 = 0x9E;
  2510  1427  309E               	movlw	(09Eh)
  2511  1428  1683               	bsf	status, 5	;RP0=1, select bank1
  2512  1429  1303               	bcf	status, 6	;RP1=0, select bank1
  2513  142A  0092               	movwf	(146)^080h	;volatile
  2514                           	line	1150
  2515                           ;PR28.c: 1150: CCPR1L = 50;
  2516  142B  3032               	movlw	(032h)
  2517  142C  1283               	bcf	status, 5	;RP0=0, select bank0
  2518  142D  1303               	bcf	status, 6	;RP1=0, select bank0
  2519  142E  0095               	movwf	(21)	;volatile
  2520                           	line	1151
  2521                           	
  2522  142F                     l2758:	
  2523                           ;PR28.c: 1151: delay(2000);
  2524  142F  3000               	movlw	0
  2525  1430  00D5               	movwf	(?_delay+3)
  2526  1431  3000               	movlw	0
  2527  1432  00D4               	movwf	(?_delay+2)
  2528  1433  3007               	movlw	07h
  2529  1434  00D3               	movwf	(?_delay+1)
  2530  1435  30D0               	movlw	0D0h
  2531  1436  00D2               	movwf	(?_delay)
  2532                           
  2533  1437  160A  158A  2764   	fcall	_delay
              160A  118A         
  2534                           	line	1152
  2535                           	
  2536  143C                     l2760:	
  2537                           ;PR28.c: 1152: PR2 = 0x8D;
  2538  143C  308D               	movlw	(08Dh)
  2539  143D  1683               	bsf	status, 5	;RP0=1, select bank1
  2540  143E  1303               	bcf	status, 6	;RP1=0, select bank1
  2541  143F  0092               	movwf	(146)^080h	;volatile
  2542                           	line	1153
  2543                           	
  2544  1440                     l2762:	
  2545                           ;PR28.c: 1153: CCPR1L = 50;
  2546  1440  3032               	movlw	(032h)
  2547  1441  1283               	bcf	status, 5	;RP0=0, select bank0
  2548  1442  1303               	bcf	status, 6	;RP1=0, select bank0
  2549  1443  0095               	movwf	(21)	;volatile
  2550                           	line	1154
  2551                           	
  2552  1444                     l2764:	
  2553                           ;PR28.c: 1154: delay(2000);
  2554  1444  3000               	movlw	0
  2555  1445  00D5               	movwf	(?_delay+3)
  2556  1446  3000               	movlw	0
  2557  1447  00D4               	movwf	(?_delay+2)
  2558  1448  3007               	movlw	07h
  2559  1449  00D3               	movwf	(?_delay+1)
  2560  144A  30D0               	movlw	0D0h
  2561  144B  00D2               	movwf	(?_delay)
  2562                           
  2563  144C  160A  158A  2764   	fcall	_delay
              160A  118A         
  2564                           	line	1155
  2565                           ;PR28.c: 1155: PR2 = 0x7D;
  2566  1451  307D               	movlw	(07Dh)
  2567  1452  1683               	bsf	status, 5	;RP0=1, select bank1
  2568  1453  1303               	bcf	status, 6	;RP1=0, select bank1
  2569  1454  0092               	movwf	(146)^080h	;volatile
  2570                           	line	1156
  2571                           ;PR28.c: 1156: CCPR1L = 50;
  2572  1455  3032               	movlw	(032h)
  2573  1456  1283               	bcf	status, 5	;RP0=0, select bank0
  2574  1457  1303               	bcf	status, 6	;RP1=0, select bank0
  2575  1458  0095               	movwf	(21)	;volatile
  2576                           	line	1157
  2577                           	
  2578  1459                     l2766:	
  2579                           ;PR28.c: 1157: delay(2000);
  2580  1459  3000               	movlw	0
  2581  145A  00D5               	movwf	(?_delay+3)
  2582  145B  3000               	movlw	0
  2583  145C  00D4               	movwf	(?_delay+2)
  2584  145D  3007               	movlw	07h
  2585  145E  00D3               	movwf	(?_delay+1)
  2586  145F  30D0               	movlw	0D0h
  2587  1460  00D2               	movwf	(?_delay)
  2588                           
  2589  1461  160A  158A  2764   	fcall	_delay
              160A  118A         
  2590                           	line	1158
  2591                           	
  2592  1466                     l2768:	
  2593                           ;PR28.c: 1158: PR2 = 0x76;
  2594  1466  3076               	movlw	(076h)
  2595  1467  1683               	bsf	status, 5	;RP0=1, select bank1
  2596  1468  1303               	bcf	status, 6	;RP1=0, select bank1
  2597  1469  0092               	movwf	(146)^080h	;volatile
  2598                           	line	1159
  2599                           	
  2600  146A                     l2770:	
  2601                           ;PR28.c: 1159: CCPR1L = 50;
  2602  146A  3032               	movlw	(032h)
  2603  146B  1283               	bcf	status, 5	;RP0=0, select bank0
  2604  146C  1303               	bcf	status, 6	;RP1=0, select bank0
  2605  146D  0095               	movwf	(21)	;volatile
  2606                           	line	1160
  2607                           	
  2608  146E                     l2772:	
  2609                           ;PR28.c: 1160: delay(4000);
  2610  146E  3000               	movlw	0
  2611  146F  00D5               	movwf	(?_delay+3)
  2612  1470  3000               	movlw	0
  2613  1471  00D4               	movwf	(?_delay+2)
  2614  1472  300F               	movlw	0Fh
  2615  1473  00D3               	movwf	(?_delay+1)
  2616  1474  30A0               	movlw	0A0h
  2617  1475  00D2               	movwf	(?_delay)
  2618                           
  2619  1476  160A  158A  2764   	fcall	_delay
              160A  118A         
  2620                           	line	1163
  2621                           	
  2622  147B                     l2774:	
  2623                           ;PR28.c: 1163: CCP1CON = 0x00;
  2624  147B  1283               	bcf	status, 5	;RP0=0, select bank0
  2625  147C  1303               	bcf	status, 6	;RP1=0, select bank0
  2626  147D  0197               	clrf	(23)	;volatile
  2627                           	line	1164
  2628                           	
  2629  147E                     l2776:	
  2630                           ;PR28.c: 1164: T2CON=0b01110110;
  2631  147E  3076               	movlw	(076h)
  2632  147F  0092               	movwf	(18)	;volatile
  2633                           	line	1165
  2634                           	
  2635  1480                     l2778:	
  2636                           ;PR28.c: 1165: PR2 = 0xB4;
  2637  1480  30B4               	movlw	(0B4h)
  2638  1481  1683               	bsf	status, 5	;RP0=1, select bank1
  2639  1482  1303               	bcf	status, 6	;RP1=0, select bank1
  2640  1483  0092               	movwf	(146)^080h	;volatile
  2641                           	line	1166
  2642                           	
  2643  1484                     l2780:	
  2644                           ;PR28.c: 1166: CCPR1L = 0;
  2645  1484  1283               	bcf	status, 5	;RP0=0, select bank0
  2646  1485  1303               	bcf	status, 6	;RP1=0, select bank0
  2647  1486  0195               	clrf	(21)	;volatile
  2648                           	line	1168
  2649                           	
  2650  1487                     l2782:	
  2651                           ;PR28.c: 1168: TMR2IF = 0;
  2652  1487  108C               	bcf	(97/8),(97)&7	;volatile
  2653                           	line	1169
  2654                           	
  2655  1488                     l2784:	
  2656                           ;PR28.c: 1169: TMR2IE = 1;
  2657  1488  1683               	bsf	status, 5	;RP0=1, select bank1
  2658  1489  1303               	bcf	status, 6	;RP1=0, select bank1
  2659  148A  148C               	bsf	(1121/8)^080h,(1121)&7	;volatile
  2660                           	line	1170
  2661                           ;PR28.c: 1170: T1CON = 0b11000101;
  2662  148B  30C5               	movlw	(0C5h)
  2663  148C  1283               	bcf	status, 5	;RP0=0, select bank0
  2664  148D  1303               	bcf	status, 6	;RP1=0, select bank0
  2665  148E  0090               	movwf	(16)	;volatile
  2666                           	line	1171
  2667                           ;PR28.c: 1171: T1GCON = 0b11100010;
  2668  148F  30E2               	movlw	(0E2h)
  2669  1490  1683               	bsf	status, 5	;RP0=1, select bank1
  2670  1491  1303               	bcf	status, 6	;RP1=0, select bank1
  2671  1492  008F               	movwf	(143)^080h	;volatile
  2672                           	line	1172
  2673                           	
  2674  1493                     l2786:	
  2675                           ;PR28.c: 1172: TMR1GIF = 0;
  2676  1493  1283               	bcf	status, 5	;RP0=0, select bank0
  2677  1494  1303               	bcf	status, 6	;RP1=0, select bank0
  2678  1495  138C               	bcf	(103/8),(103)&7	;volatile
  2679                           	line	1173
  2680                           	
  2681  1496                     l2788:	
  2682                           ;PR28.c: 1173: TMR1GIE = 1;
  2683  1496  1683               	bsf	status, 5	;RP0=1, select bank1
  2684  1497  1303               	bcf	status, 6	;RP1=0, select bank1
  2685  1498  178C               	bsf	(1127/8)^080h,(1127)&7	;volatile
  2686                           	line	1175
  2687                           	
  2688  1499                     l2790:	
  2689                           ;PR28.c: 1175: RestartTimer1();
  2690  1499  160A  158A  260B   	fcall	_RestartTimer1
              160A  118A         
  2691                           	line	1176
  2692                           	
  2693  149E                     l2792:	
  2694                           ;PR28.c: 1176: GIE = 1;
  2695  149E  178B               	bsf	(95/8),(95)&7	;volatile
  2696                           	line	1177
  2697                           	
  2698  149F                     l610:	
  2699  149F  0008               	return
  2700                           	opt stack 0
  2701                           GLOBAL	__end_of_PIEZO_S
  2702  14A0                     	__end_of_PIEZO_S:
  2703                           	signat	_PIEZO_S,88
  2704                           	global	_checkflag
  2705                           
  2706 ;; *************** function _checkflag *****************
  2707 ;; Defined at:
  2708 ;;		line 291 in file "PR28.c"
  2709 ;; Parameters:    Size  Location     Type
  2710 ;;		None
  2711 ;; Auto vars:     Size  Location     Type
  2712 ;;		None
  2713 ;; Return value:  Size  Location     Type
  2714 ;;		None               void
  2715 ;; Registers used:
  2716 ;;		wreg, fsr0l, fsr0h, fsr1l, fsr1h, status,2, status,0, btemp+1, pclath, cstack
  2717 ;; Tracked objects:
  2718 ;;		On entry : 0/0
  2719 ;;		On exit  : 0/0
  2720 ;;		Unchanged: 0/0
  2721 ;; Data sizes:     COMMON   BANK0   BANK1   BANK3   BANK2
  2722 ;;      Params:         0       0       0       0       0
  2723 ;;      Locals:         0       0       0       0       0
  2724 ;;      Temps:          0       0       0       0       0
  2725 ;;      Totals:         0       0       0       0       0
  2726 ;;Total ram usage:        0 bytes
  2727 ;; Hardware stack levels used:    1
  2728 ;; Hardware stack levels required when called:    7
  2729 ;; This function calls:
  2730 ;;		_player_1
  2731 ;;		_player_2
  2732 ;; This function is called by:
  2733 ;;		_main
  2734 ;; This function uses a non-reentrant model
  2735 ;;
  2736                           psect	text664,local,class=CODE,delta=2,merge=1
  2737                           global __ptext664
  2738  1EC3                     __ptext664:
  2739                           psect	text664
  2740                           	file	"PR28.c"
  2741                           	line	291
  2742                           	global	__size_of_checkflag
  2743  001A                     	__size_of_checkflag	equ	__end_of_checkflag-_checkflag
  2744                           	
  2745  1EC3                     _checkflag:	
  2746                           	opt	stack 0
  2747                           ; Regs used in _checkflag: [allreg]
  2748                           	line	292
  2749                           	
  2750  1EC3                     l2794:	
  2751                           ;PR28.c: 292: switch(flag){
  2752  1EC3  2ED2               	goto	l2802
  2753                           	line	293
  2754                           ;PR28.c: 293: case 0: player_1(); break;
  2755                           	
  2756  1EC4                     l219:	
  2757                           	
  2758  1EC4                     l2796:	
  2759  1EC4  160A  158A  2614   	fcall	_player_1
              160A  158A         
  2760  1EC9  2EDC               	goto	l223
  2761                           	line	294
  2762                           ;PR28.c: 294: case 1: player_2(); break;
  2763                           	
  2764  1ECA                     l221:	
  2765                           	
  2766  1ECA                     l2798:	
  2767  1ECA  160A  158A  2623   	fcall	_player_2
              160A  158A         
  2768  1ECF  2EDC               	goto	l223
  2769                           	line	295
  2770                           ;PR28.c: 295: default: break;
  2771                           	
  2772  1ED0                     l222:	
  2773  1ED0  2EDC               	goto	l223
  2774                           	line	296
  2775                           	
  2776  1ED1                     l2800:	
  2777                           ;PR28.c: 296: }
  2778  1ED1  2EDC               	goto	l223
  2779                           	line	292
  2780                           	
  2781  1ED2                     l218:	
  2782                           	
  2783  1ED2                     l2802:	
  2784  1ED2  1283               	bcf	status, 5	;RP0=0, select bank0
  2785  1ED3  1303               	bcf	status, 6	;RP1=0, select bank0
  2786  1ED4  084F               	movf	(_flag),w
  2787                           	; Switch size 1, requested type "space"
  2788                           ; Number of cases is 2, Range of values is 0 to 1
  2789                           ; switch strategies available:
  2790                           ; Name         Instructions Cycles
  2791                           ; simple_byte            7     4 (average)
  2792                           ; direct_byte           14     8 (fixed)
  2793                           ; jumptable            260     6 (fixed)
  2794                           ; rangetable             6     6 (fixed)
  2795                           ; spacedrange           10     9 (fixed)
  2796                           ; locatedrange           2     3 (fixed)
  2797                           ;	Chosen strategy is simple_byte
  2798                           
  2799                           	opt asmopt_off
  2800  1ED5  3A00               	xorlw	0^0	; case 0
  2801  1ED6  1903               	skipnz
  2802  1ED7  2EC4               	goto	l2796
  2803  1ED8  3A01               	xorlw	1^0	; case 1
  2804  1ED9  1903               	skipnz
  2805  1EDA  2ECA               	goto	l2798
  2806  1EDB  2EDC               	goto	l223
  2807                           	opt asmopt_on
  2808                           
  2809                           	line	296
  2810                           	
  2811  1EDC                     l220:	
  2812                           	line	297
  2813                           	
  2814  1EDC                     l223:	
  2815  1EDC  0008               	return
  2816                           	opt stack 0
  2817                           GLOBAL	__end_of_checkflag
  2818  1EDD                     	__end_of_checkflag:
  2819                           	signat	_checkflag,88
  2820                           	global	_winlose
  2821                           
  2822 ;; *************** function _winlose *****************
  2823 ;; Defined at:
  2824 ;;		line 1184 in file "PR28.c"
  2825 ;; Parameters:    Size  Location     Type
  2826 ;;		None
  2827 ;; Auto vars:     Size  Location     Type
  2828 ;;  j               2   13[BANK0 ] int 
  2829 ;;  i               2   11[BANK0 ] int 
  2830 ;;  i               2   15[BANK0 ] int 
  2831 ;;  status          2    8[BANK0 ] int 
  2832 ;;  j               2    0        int 
  2833 ;;  i               2    0        int 
  2834 ;;  flag_w          1   10[BANK0 ] unsigned char 
  2835 ;; Return value:  Size  Location     Type
  2836 ;;                  1    wreg      unsigned char 
  2837 ;; Registers used:
  2838 ;;		wreg, fsr0l, fsr0h, status,2, status,0, btemp+1, pclath, cstack
  2839 ;; Tracked objects:
  2840 ;;		On entry : 0/0
  2841 ;;		On exit  : 0/0
  2842 ;;		Unchanged: 0/0
  2843 ;; Data sizes:     COMMON   BANK0   BANK1   BANK3   BANK2
  2844 ;;      Params:         0       0       0       0       0
  2845 ;;      Locals:         0       9       0       0       0
  2846 ;;      Temps:          0       4       0       0       0
  2847 ;;      Totals:         0      13       0       0       0
  2848 ;;Total ram usage:       13 bytes
  2849 ;; Hardware stack levels used:    1
  2850 ;; Hardware stack levels required when called:    4
  2851 ;; This function calls:
  2852 ;;		___bmul
  2853 ;; This function is called by:
  2854 ;;		_main
  2855 ;;		_Init
  2856 ;; This function uses a non-reentrant model
  2857 ;;
  2858                           psect	text665,local,class=CODE,delta=2,merge=1
  2859                           global __ptext665
  2860  083E                     __ptext665:
  2861                           psect	text665
  2862                           	file	"PR28.c"
  2863                           	line	1184
  2864                           	global	__size_of_winlose
  2865  0159                     	__size_of_winlose	equ	__end_of_winlose-_winlose
  2866                           	
  2867  083E                     _winlose:	
  2868                           	opt	stack 3
  2869                           ; Regs used in _winlose: [wreg-fsr0h+status,2+status,0+btemp+1+pclath+cstack]
  2870                           	line	1187
  2871                           	
  2872  083E                     l2804:	
  2873                           ;PR28.c: 1185: int status;
  2874                           ;PR28.c: 1186: int i,j;
  2875                           ;PR28.c: 1187: status =0;
  2876  083E  1283               	bcf	status, 5	;RP0=0, select bank0
  2877  083F  1303               	bcf	status, 6	;RP1=0, select bank0
  2878  0840  01DA               	clrf	(winlose@status)
  2879  0841  01DB               	clrf	(winlose@status+1)
  2880                           	line	1189
  2881                           ;PR28.c: 1188: char flag_w;
  2882                           ;PR28.c: 1189: for(int i=0; i<3; i++)
  2883  0842  01E1               	clrf	(winlose@i_277)
  2884  0843  01E2               	clrf	(winlose@i_277+1)
  2885                           	
  2886  0844                     l2806:	
  2887  0844  0862               	movf	(winlose@i_277+1),w
  2888  0845  3A80               	xorlw	80h
  2889  0846  00FF               	movwf	btemp+1
  2890  0847  3080               	movlw	(high(03h))^80h
  2891  0848  027F               	subwf	btemp+1,w
  2892  0849  1D03               	skipz
  2893  084A  284D               	goto	u3555
  2894  084B  3003               	movlw	low(03h)
  2895  084C  0261               	subwf	(winlose@i_277),w
  2896  084D                     u3555:
  2897                           
  2898  084D  1C03               	skipc
  2899  084E  2850               	goto	u3551
  2900  084F  2851               	goto	u3550
  2901  0850                     u3551:
  2902  0850  2853               	goto	l2810
  2903  0851                     u3550:
  2904  0851  2909               	goto	l2846
  2905                           	
  2906  0852                     l2808:	
  2907  0852  2909               	goto	l2846
  2908                           	line	1190
  2909                           	
  2910  0853                     l613:	
  2911                           	line	1192
  2912                           	
  2913  0853                     l2810:	
  2914                           ;PR28.c: 1190: {
  2915                           ;PR28.c: 1192: if((matrix[i][0]== matrix[i][1]) & (matrix[i][0] == matrix[i][2])){
  2916  0853  3003               	movlw	(03h)
  2917  0854  1283               	bcf	status, 5	;RP0=0, select bank0
  2918  0855  1303               	bcf	status, 6	;RP1=0, select bank0
  2919  0856  00D6               	movwf	(??_winlose+0)+0
  2920  0857  0856               	movf	(??_winlose+0)+0,w
  2921  0858  00D2               	movwf	(?___bmul)
  2922  0859  0861               	movf	(winlose@i_277),w
  2923  085A  160A  158A  26A9   	fcall	___bmul
              120A  158A         
  2924  085F  3E01               	addlw	01h
  2925  0860  3E3B               	addlw	_matrix&0ffh
  2926  0861  0084               	movwf	fsr
  2927  0862  1383               	bcf	status, 7	;select IRP bank0
  2928  0863  0800               	movf	indf,w
  2929  0864  1283               	bcf	status, 5	;RP0=0, select bank0
  2930  0865  1303               	bcf	status, 6	;RP1=0, select bank0
  2931  0866  00D7               	movwf	(??_winlose+1)+0
  2932  0867  3003               	movlw	(03h)
  2933  0868  00D8               	movwf	(??_winlose+2)+0
  2934  0869  0858               	movf	(??_winlose+2)+0,w
  2935  086A  00D2               	movwf	(?___bmul)
  2936  086B  0861               	movf	(winlose@i_277),w
  2937  086C  160A  158A  26A9   	fcall	___bmul
              120A  158A         
  2938  0871  3E3B               	addlw	_matrix&0ffh
  2939  0872  0084               	movwf	fsr0
  2940  0873  1383               	bcf	status, 7	;select IRP bank0
  2941  0874  0800               	movf	indf,w
  2942  0875  1283               	bcf	status, 5	;RP0=0, select bank0
  2943  0876  1303               	bcf	status, 6	;RP1=0, select bank0
  2944  0877  0657               	xorwf	(??_winlose+1)+0,w
  2945  0878  1D03               	skipz
  2946  0879  287B               	goto	u3561
  2947  087A  287C               	goto	u3560
  2948  087B                     u3561:
  2949  087B  28B3               	goto	l2818
  2950  087C                     u3560:
  2951                           	
  2952  087C                     l2812:	
  2953  087C  3003               	movlw	(03h)
  2954  087D  00D6               	movwf	(??_winlose+0)+0
  2955  087E  0856               	movf	(??_winlose+0)+0,w
  2956  087F  00D2               	movwf	(?___bmul)
  2957  0880  0861               	movf	(winlose@i_277),w
  2958  0881  160A  158A  26A9   	fcall	___bmul
              120A  158A         
  2959  0886  3E02               	addlw	02h
  2960  0887  3E3B               	addlw	_matrix&0ffh
  2961  0888  0084               	movwf	fsr
  2962  0889  1383               	bcf	status, 7	;select IRP bank0
  2963  088A  0800               	movf	indf,w
  2964  088B  1283               	bcf	status, 5	;RP0=0, select bank0
  2965  088C  1303               	bcf	status, 6	;RP1=0, select bank0
  2966  088D  00D7               	movwf	(??_winlose+1)+0
  2967  088E  3003               	movlw	(03h)
  2968  088F  00D8               	movwf	(??_winlose+2)+0
  2969  0890  0858               	movf	(??_winlose+2)+0,w
  2970  0891  00D2               	movwf	(?___bmul)
  2971  0892  0861               	movf	(winlose@i_277),w
  2972  0893  160A  158A  26A9   	fcall	___bmul
              120A  158A         
  2973  0898  3E3B               	addlw	_matrix&0ffh
  2974  0899  0084               	movwf	fsr0
  2975  089A  1383               	bcf	status, 7	;select IRP bank0
  2976  089B  0800               	movf	indf,w
  2977  089C  1283               	bcf	status, 5	;RP0=0, select bank0
  2978  089D  1303               	bcf	status, 6	;RP1=0, select bank0
  2979  089E  0657               	xorwf	(??_winlose+1)+0,w
  2980  089F  1D03               	skipz
  2981  08A0  28A2               	goto	u3571
  2982  08A1  28A3               	goto	u3570
  2983  08A2                     u3571:
  2984  08A2  28B3               	goto	l2818
  2985  08A3                     u3570:
  2986                           	line	1193
  2987                           	
  2988  08A3                     l2814:	
  2989                           ;PR28.c: 1193: return matrix[i][0];
  2990  08A3  3003               	movlw	(03h)
  2991  08A4  00D6               	movwf	(??_winlose+0)+0
  2992  08A5  0856               	movf	(??_winlose+0)+0,w
  2993  08A6  00D2               	movwf	(?___bmul)
  2994  08A7  0861               	movf	(winlose@i_277),w
  2995  08A8  160A  158A  26A9   	fcall	___bmul
              120A  158A         
  2996  08AD  3E3B               	addlw	_matrix&0ffh
  2997  08AE  0084               	movwf	fsr0
  2998  08AF  1383               	bcf	status, 7	;select IRP bank0
  2999  08B0  0800               	movf	indf,w
  3000  08B1  2996               	goto	l616
  3001                           	
  3002  08B2                     l2816:	
  3003  08B2  2996               	goto	l616
  3004                           	line	1194
  3005                           	
  3006  08B3                     l615:	
  3007                           	line	1196
  3008                           	
  3009  08B3                     l2818:	
  3010                           ;PR28.c: 1194: }
  3011                           ;PR28.c: 1196: if(matrix[0][i] == matrix[1][i] & matrix[0][i] == matrix[2][i]){
  3012  08B3  1283               	bcf	status, 5	;RP0=0, select bank0
  3013  08B4  1303               	bcf	status, 6	;RP1=0, select bank0
  3014  08B5  0861               	movf	(winlose@i_277),w
  3015  08B6  3E3E               	addlw	_matrix+03h&0ffh
  3016  08B7  0084               	movwf	fsr
  3017  08B8  0800               	movf	indf,w
  3018  08B9  00D6               	movwf	(??_winlose+0)+0
  3019  08BA  0861               	movf	(winlose@i_277),w
  3020  08BB  3E3B               	addlw	_matrix&0ffh
  3021  08BC  0084               	movwf	fsr0
  3022  08BD  0800               	movf	indf,w
  3023  08BE  0656               	xorwf	(??_winlose+0)+0,w
  3024  08BF  1D03               	skipz
  3025  08C0  28C2               	goto	u3581
  3026  08C1  28C3               	goto	u3580
  3027  08C2                     u3581:
  3028  08C2  28D7               	goto	l2826
  3029  08C3                     u3580:
  3030                           	
  3031  08C3                     l2820:	
  3032  08C3  0861               	movf	(winlose@i_277),w
  3033  08C4  3E41               	addlw	_matrix+06h&0ffh
  3034  08C5  0084               	movwf	fsr
  3035  08C6  0800               	movf	indf,w
  3036  08C7  00D6               	movwf	(??_winlose+0)+0
  3037  08C8  0861               	movf	(winlose@i_277),w
  3038  08C9  3E3B               	addlw	_matrix&0ffh
  3039  08CA  0084               	movwf	fsr0
  3040  08CB  0800               	movf	indf,w
  3041  08CC  0656               	xorwf	(??_winlose+0)+0,w
  3042  08CD  1D03               	skipz
  3043  08CE  28D0               	goto	u3591
  3044  08CF  28D1               	goto	u3590
  3045  08D0                     u3591:
  3046  08D0  28D7               	goto	l2826
  3047  08D1                     u3590:
  3048                           	line	1197
  3049                           	
  3050  08D1                     l2822:	
  3051                           ;PR28.c: 1197: return matrix[0][i];
  3052  08D1  0861               	movf	(winlose@i_277),w
  3053  08D2  3E3B               	addlw	_matrix&0ffh
  3054  08D3  0084               	movwf	fsr0
  3055  08D4  0800               	movf	indf,w
  3056  08D5  2996               	goto	l616
  3057                           	
  3058  08D6                     l2824:	
  3059  08D6  2996               	goto	l616
  3060                           	line	1198
  3061                           	
  3062  08D7                     l617:	
  3063                           	line	1200
  3064                           	
  3065  08D7                     l2826:	
  3066                           ;PR28.c: 1198: }
  3067                           ;PR28.c: 1200: if(matrix[0][0] == matrix[1][1] & matrix[0][0] == matrix[2][2]){
  3068  08D7  083F               	movf	0+(_matrix)+04h,w
  3069  08D8  063B               	xorwf	(_matrix),w
  3070  08D9  1D03               	skipz
  3071  08DA  28DC               	goto	u3601
  3072  08DB  28DD               	goto	u3600
  3073  08DC                     u3601:
  3074  08DC  28E6               	goto	l2834
  3075  08DD                     u3600:
  3076                           	
  3077  08DD                     l2828:	
  3078  08DD  0843               	movf	0+(_matrix)+08h,w
  3079  08DE  063B               	xorwf	(_matrix),w
  3080  08DF  1D03               	skipz
  3081  08E0  28E2               	goto	u3611
  3082  08E1  28E3               	goto	u3610
  3083  08E2                     u3611:
  3084  08E2  28E6               	goto	l2834
  3085  08E3                     u3610:
  3086                           	line	1201
  3087                           	
  3088  08E3                     l2830:	
  3089                           ;PR28.c: 1201: return matrix[0][0];
  3090  08E3  083B               	movf	(_matrix),w
  3091  08E4  2996               	goto	l616
  3092                           	
  3093  08E5                     l2832:	
  3094  08E5  2996               	goto	l616
  3095                           	line	1202
  3096                           	
  3097  08E6                     l618:	
  3098                           	line	1203
  3099                           	
  3100  08E6                     l2834:	
  3101                           ;PR28.c: 1202: }
  3102                           ;PR28.c: 1203: if(matrix[0][2] == matrix[1][1] & matrix[0][2] == matrix[2][0]){
  3103  08E6  083D               	movf	0+(_matrix)+02h,w
  3104  08E7  063F               	xorwf	0+(_matrix)+04h,w
  3105  08E8  1D03               	skipz
  3106  08E9  28EB               	goto	u3621
  3107  08EA  28EC               	goto	u3620
  3108  08EB                     u3621:
  3109  08EB  28F5               	goto	l2842
  3110  08EC                     u3620:
  3111                           	
  3112  08EC                     l2836:	
  3113  08EC  083D               	movf	0+(_matrix)+02h,w
  3114  08ED  0641               	xorwf	0+(_matrix)+06h,w
  3115  08EE  1D03               	skipz
  3116  08EF  28F1               	goto	u3631
  3117  08F0  28F2               	goto	u3630
  3118  08F1                     u3631:
  3119  08F1  28F5               	goto	l2842
  3120  08F2                     u3630:
  3121                           	line	1204
  3122                           	
  3123  08F2                     l2838:	
  3124                           ;PR28.c: 1204: return matrix[0][2];
  3125  08F2  083D               	movf	0+(_matrix)+02h,w
  3126  08F3  2996               	goto	l616
  3127                           	
  3128  08F4                     l2840:	
  3129  08F4  2996               	goto	l616
  3130                           	line	1205
  3131                           	
  3132  08F5                     l619:	
  3133                           	line	1189
  3134                           	
  3135  08F5                     l2842:	
  3136  08F5  3001               	movlw	low(01h)
  3137  08F6  07E1               	addwf	(winlose@i_277),f
  3138  08F7  1803               	skipnc
  3139  08F8  0AE2               	incf	(winlose@i_277+1),f
  3140  08F9  3000               	movlw	high(01h)
  3141  08FA  07E2               	addwf	(winlose@i_277+1),f
  3142                           	
  3143  08FB                     l2844:	
  3144  08FB  0862               	movf	(winlose@i_277+1),w
  3145  08FC  3A80               	xorlw	80h
  3146  08FD  00FF               	movwf	btemp+1
  3147  08FE  3080               	movlw	(high(03h))^80h
  3148  08FF  027F               	subwf	btemp+1,w
  3149  0900  1D03               	skipz
  3150  0901  2904               	goto	u3645
  3151  0902  3003               	movlw	low(03h)
  3152  0903  0261               	subwf	(winlose@i_277),w
  3153  0904                     u3645:
  3154                           
  3155  0904  1C03               	skipc
  3156  0905  2907               	goto	u3641
  3157  0906  2908               	goto	u3640
  3158  0907                     u3641:
  3159  0907  2853               	goto	l2810
  3160  0908                     u3640:
  3161  0908  2909               	goto	l2846
  3162                           	
  3163  0909                     l614:	
  3164                           	line	1209
  3165                           	
  3166  0909                     l2846:	
  3167                           ;PR28.c: 1205: }
  3168                           ;PR28.c: 1208: }
  3169                           ;PR28.c: 1209: for(int i=0; i<3; i++){
  3170  0909  1283               	bcf	status, 5	;RP0=0, select bank0
  3171  090A  1303               	bcf	status, 6	;RP1=0, select bank0
  3172  090B  01DD               	clrf	(winlose@i_278)
  3173  090C  01DE               	clrf	(winlose@i_278+1)
  3174                           	
  3175  090D                     l2848:	
  3176  090D  085E               	movf	(winlose@i_278+1),w
  3177  090E  3A80               	xorlw	80h
  3178  090F  00FF               	movwf	btemp+1
  3179  0910  3080               	movlw	(high(03h))^80h
  3180  0911  027F               	subwf	btemp+1,w
  3181  0912  1D03               	skipz
  3182  0913  2916               	goto	u3655
  3183  0914  3003               	movlw	low(03h)
  3184  0915  025D               	subwf	(winlose@i_278),w
  3185  0916                     u3655:
  3186                           
  3187  0916  1C03               	skipc
  3188  0917  2919               	goto	u3651
  3189  0918  291A               	goto	u3650
  3190  0919                     u3651:
  3191  0919  291C               	goto	l2852
  3192  091A                     u3650:
  3193  091A  297F               	goto	l2870
  3194                           	
  3195  091B                     l2850:	
  3196  091B  297F               	goto	l2870
  3197                           	
  3198  091C                     l620:	
  3199                           	line	1210
  3200                           	
  3201  091C                     l2852:	
  3202                           ;PR28.c: 1210: for(int j=0; j<3; j++){
  3203  091C  1283               	bcf	status, 5	;RP0=0, select bank0
  3204  091D  1303               	bcf	status, 6	;RP1=0, select bank0
  3205  091E  01DF               	clrf	(winlose@j_279)
  3206  091F  01E0               	clrf	(winlose@j_279+1)
  3207                           	
  3208  0920                     l2854:	
  3209  0920  0860               	movf	(winlose@j_279+1),w
  3210  0921  3A80               	xorlw	80h
  3211  0922  00FF               	movwf	btemp+1
  3212  0923  3080               	movlw	(high(03h))^80h
  3213  0924  027F               	subwf	btemp+1,w
  3214  0925  1D03               	skipz
  3215  0926  2929               	goto	u3665
  3216  0927  3003               	movlw	low(03h)
  3217  0928  025F               	subwf	(winlose@j_279),w
  3218  0929                     u3665:
  3219                           
  3220  0929  1C03               	skipc
  3221  092A  292C               	goto	u3661
  3222  092B  292D               	goto	u3660
  3223  092C                     u3661:
  3224  092C  292F               	goto	l2858
  3225  092D                     u3660:
  3226  092D  2969               	goto	l2866
  3227                           	
  3228  092E                     l2856:	
  3229  092E  2969               	goto	l2866
  3230                           	
  3231  092F                     l622:	
  3232                           	line	1211
  3233                           	
  3234  092F                     l2858:	
  3235                           ;PR28.c: 1211: if(matrix[i][j] == ' '){
  3236  092F  3003               	movlw	(03h)
  3237  0930  1283               	bcf	status, 5	;RP0=0, select bank0
  3238  0931  1303               	bcf	status, 6	;RP1=0, select bank0
  3239  0932  00D6               	movwf	(??_winlose+0)+0
  3240  0933  0856               	movf	(??_winlose+0)+0,w
  3241  0934  00D2               	movwf	(?___bmul)
  3242  0935  085D               	movf	(winlose@i_278),w
  3243  0936  160A  158A  26A9   	fcall	___bmul
              120A  158A         
  3244  093B  1283               	bcf	status, 5	;RP0=0, select bank0
  3245  093C  1303               	bcf	status, 6	;RP1=0, select bank0
  3246  093D  00D7               	movwf	(??_winlose+1)+0
  3247  093E  303B               	movlw	(_matrix)&0ffh
  3248  093F  0757               	addwf	0+(??_winlose+1)+0,w
  3249  0940  00D8               	movwf	(??_winlose+2)+0
  3250  0941  085F               	movf	(winlose@j_279),w
  3251  0942  0758               	addwf	0+(??_winlose+2)+0,w
  3252  0943  00D9               	movwf	(??_winlose+3)+0
  3253  0944  0859               	movf	0+(??_winlose+3)+0,w
  3254  0945  0084               	movwf	fsr0
  3255  0946  1383               	bcf	status, 7	;select IRP bank0
  3256  0947  0800               	movf	indf,w
  3257  0948  3A20               	xorlw	020h
  3258  0949  1D03               	skipz
  3259  094A  294C               	goto	u3671
  3260  094B  294D               	goto	u3670
  3261  094C                     u3671:
  3262  094C  2955               	goto	l2862
  3263  094D                     u3670:
  3264                           	line	1212
  3265                           	
  3266  094D                     l2860:	
  3267                           ;PR28.c: 1212: status++;
  3268  094D  3001               	movlw	low(01h)
  3269  094E  07DA               	addwf	(winlose@status),f
  3270  094F  1803               	skipnc
  3271  0950  0ADB               	incf	(winlose@status+1),f
  3272  0951  3000               	movlw	high(01h)
  3273  0952  07DB               	addwf	(winlose@status+1),f
  3274                           	line	1213
  3275                           ;PR28.c: 1213: }else{
  3276  0953  2955               	goto	l2862
  3277                           	
  3278  0954                     l624:	
  3279  0954  2955               	goto	l2862
  3280                           	line	1215
  3281                           	
  3282  0955                     l625:	
  3283                           	line	1210
  3284                           	
  3285  0955                     l2862:	
  3286  0955  3001               	movlw	low(01h)
  3287  0956  07DF               	addwf	(winlose@j_279),f
  3288  0957  1803               	skipnc
  3289  0958  0AE0               	incf	(winlose@j_279+1),f
  3290  0959  3000               	movlw	high(01h)
  3291  095A  07E0               	addwf	(winlose@j_279+1),f
  3292                           	
  3293  095B                     l2864:	
  3294  095B  0860               	movf	(winlose@j_279+1),w
  3295  095C  3A80               	xorlw	80h
  3296  095D  00FF               	movwf	btemp+1
  3297  095E  3080               	movlw	(high(03h))^80h
  3298  095F  027F               	subwf	btemp+1,w
  3299  0960  1D03               	skipz
  3300  0961  2964               	goto	u3685
  3301  0962  3003               	movlw	low(03h)
  3302  0963  025F               	subwf	(winlose@j_279),w
  3303  0964                     u3685:
  3304                           
  3305  0964  1C03               	skipc
  3306  0965  2967               	goto	u3681
  3307  0966  2968               	goto	u3680
  3308  0967                     u3681:
  3309  0967  292F               	goto	l2858
  3310  0968                     u3680:
  3311  0968  2969               	goto	l2866
  3312                           	
  3313  0969                     l623:	
  3314                           	line	1209
  3315                           	
  3316  0969                     l2866:	
  3317  0969  3001               	movlw	low(01h)
  3318  096A  1283               	bcf	status, 5	;RP0=0, select bank0
  3319  096B  1303               	bcf	status, 6	;RP1=0, select bank0
  3320  096C  07DD               	addwf	(winlose@i_278),f
  3321  096D  1803               	skipnc
  3322  096E  0ADE               	incf	(winlose@i_278+1),f
  3323  096F  3000               	movlw	high(01h)
  3324  0970  07DE               	addwf	(winlose@i_278+1),f
  3325                           	
  3326  0971                     l2868:	
  3327  0971  085E               	movf	(winlose@i_278+1),w
  3328  0972  3A80               	xorlw	80h
  3329  0973  00FF               	movwf	btemp+1
  3330  0974  3080               	movlw	(high(03h))^80h
  3331  0975  027F               	subwf	btemp+1,w
  3332  0976  1D03               	skipz
  3333  0977  297A               	goto	u3695
  3334  0978  3003               	movlw	low(03h)
  3335  0979  025D               	subwf	(winlose@i_278),w
  3336  097A                     u3695:
  3337                           
  3338  097A  1C03               	skipc
  3339  097B  297D               	goto	u3691
  3340  097C  297E               	goto	u3690
  3341  097D                     u3691:
  3342  097D  291C               	goto	l2852
  3343  097E                     u3690:
  3344  097E  297F               	goto	l2870
  3345                           	
  3346  097F                     l621:	
  3347                           	line	1218
  3348                           	
  3349  097F                     l2870:	
  3350                           ;PR28.c: 1215: }
  3351                           ;PR28.c: 1216: }
  3352                           ;PR28.c: 1217: }
  3353                           ;PR28.c: 1218: if(status == 0){
  3354  097F  1283               	bcf	status, 5	;RP0=0, select bank0
  3355  0980  1303               	bcf	status, 6	;RP1=0, select bank0
  3356  0981  085B               	movf	((winlose@status+1)),w
  3357  0982  045A               	iorwf	((winlose@status)),w
  3358  0983  1D03               	skipz
  3359  0984  2986               	goto	u3701
  3360  0985  2987               	goto	u3700
  3361  0986                     u3701:
  3362  0986  298F               	goto	l2878
  3363  0987                     u3700:
  3364                           	line	1219
  3365                           	
  3366  0987                     l2872:	
  3367                           ;PR28.c: 1219: flag_w = 'd';
  3368  0987  3064               	movlw	(064h)
  3369  0988  00D6               	movwf	(??_winlose+0)+0
  3370  0989  0856               	movf	(??_winlose+0)+0,w
  3371  098A  00DC               	movwf	(winlose@flag_w)
  3372                           	line	1220
  3373                           ;PR28.c: 1220: return flag_w;
  3374  098B  085C               	movf	(winlose@flag_w),w
  3375  098C  2996               	goto	l616
  3376                           	
  3377  098D                     l2874:	
  3378  098D  2996               	goto	l616
  3379                           	line	1221
  3380                           	
  3381  098E                     l2876:	
  3382                           ;PR28.c: 1221: }else{
  3383  098E  2996               	goto	l616
  3384                           	
  3385  098F                     l626:	
  3386                           	line	1222
  3387                           	
  3388  098F                     l2878:	
  3389                           ;PR28.c: 1222: flag_w = ' ';
  3390  098F  3020               	movlw	(020h)
  3391  0990  00D6               	movwf	(??_winlose+0)+0
  3392  0991  0856               	movf	(??_winlose+0)+0,w
  3393  0992  00DC               	movwf	(winlose@flag_w)
  3394                           	line	1223
  3395                           ;PR28.c: 1223: return flag_w;
  3396  0993  085C               	movf	(winlose@flag_w),w
  3397  0994  2996               	goto	l616
  3398                           	
  3399  0995                     l2880:	
  3400  0995  2996               	goto	l616
  3401                           	line	1224
  3402                           	
  3403  0996                     l627:	
  3404                           	line	1225
  3405                           	
  3406  0996                     l616:	
  3407  0996  0008               	return
  3408                           	opt stack 0
  3409                           GLOBAL	__end_of_winlose
  3410  0997                     	__end_of_winlose:
  3411                           	signat	_winlose,89
  3412                           	global	_PIEZO
  3413                           
  3414 ;; *************** function _PIEZO *****************
  3415 ;; Defined at:
  3416 ;;		line 946 in file "PR28.c"
  3417 ;; Parameters:    Size  Location     Type
  3418 ;;		None
  3419 ;; Auto vars:     Size  Location     Type
  3420 ;;		None
  3421 ;; Return value:  Size  Location     Type
  3422 ;;		None               void
  3423 ;; Registers used:
  3424 ;;		wreg, status,2, status,0, pclath, cstack
  3425 ;; Tracked objects:
  3426 ;;		On entry : 0/0
  3427 ;;		On exit  : 0/0
  3428 ;;		Unchanged: 0/0
  3429 ;; Data sizes:     COMMON   BANK0   BANK1   BANK3   BANK2
  3430 ;;      Params:         0       0       0       0       0
  3431 ;;      Locals:         0       0       0       0       0
  3432 ;;      Temps:          0       0       0       0       0
  3433 ;;      Totals:         0       0       0       0       0
  3434 ;;Total ram usage:        0 bytes
  3435 ;; Hardware stack levels used:    1
  3436 ;; Hardware stack levels required when called:    4
  3437 ;; This function calls:
  3438 ;;		_delay
  3439 ;;		_RestartTimer1
  3440 ;; This function is called by:
  3441 ;;		_main
  3442 ;; This function uses a non-reentrant model
  3443 ;;
  3444                           psect	text666,local,class=CODE,delta=2,merge=1
  3445                           global __ptext666
  3446  15AC                     __ptext666:
  3447                           psect	text666
  3448                           	file	"PR28.c"
  3449                           	line	946
  3450                           	global	__size_of_PIEZO
  3451  0129                     	__size_of_PIEZO	equ	__end_of_PIEZO-_PIEZO
  3452                           	
  3453  15AC                     _PIEZO:	
  3454                           	opt	stack 3
  3455                           ; Regs used in _PIEZO: [wreg+status,2+status,0+pclath+cstack]
  3456                           	line	947
  3457                           	
  3458  15AC                     l2882:	
  3459                           ;PR28.c: 947: GIE=0;
  3460  15AC  138B               	bcf	(95/8),(95)&7	;volatile
  3461                           	line	948
  3462                           ;PR28.c: 948: TMR2ON = 0;
  3463  15AD  1283               	bcf	status, 5	;RP0=0, select bank0
  3464  15AE  1303               	bcf	status, 6	;RP1=0, select bank0
  3465  15AF  1112               	bcf	(146/8),(146)&7	;volatile
  3466                           	line	949
  3467                           ;PR28.c: 949: TMR1ON = 0;
  3468  15B0  1010               	bcf	(128/8),(128)&7	;volatile
  3469                           	line	951
  3470                           	
  3471  15B1                     l2884:	
  3472                           ;PR28.c: 951: CCP1CON = 0b00001100;
  3473  15B1  300C               	movlw	(0Ch)
  3474  15B2  0097               	movwf	(23)	;volatile
  3475                           	line	952
  3476                           ;PR28.c: 952: T2CON = 0b00000111;
  3477  15B3  3007               	movlw	(07h)
  3478  15B4  0092               	movwf	(18)	;volatile
  3479                           	line	953
  3480                           ;PR28.c: 953: PR2 = 0x76;
  3481  15B5  3076               	movlw	(076h)
  3482  15B6  1683               	bsf	status, 5	;RP0=1, select bank1
  3483  15B7  1303               	bcf	status, 6	;RP1=0, select bank1
  3484  15B8  0092               	movwf	(146)^080h	;volatile
  3485                           	line	954
  3486                           ;PR28.c: 954: CCPR1L = 50;
  3487  15B9  3032               	movlw	(032h)
  3488  15BA  1283               	bcf	status, 5	;RP0=0, select bank0
  3489  15BB  1303               	bcf	status, 6	;RP1=0, select bank0
  3490  15BC  0095               	movwf	(21)	;volatile
  3491                           	line	955
  3492                           	
  3493  15BD                     l2886:	
  3494                           ;PR28.c: 955: delay(4000);
  3495  15BD  3000               	movlw	0
  3496  15BE  00D5               	movwf	(?_delay+3)
  3497  15BF  3000               	movlw	0
  3498  15C0  00D4               	movwf	(?_delay+2)
  3499  15C1  300F               	movlw	0Fh
  3500  15C2  00D3               	movwf	(?_delay+1)
  3501  15C3  30A0               	movlw	0A0h
  3502  15C4  00D2               	movwf	(?_delay)
  3503                           
  3504  15C5  160A  158A  2764   	fcall	_delay
              160A  118A         
  3505                           	line	956
  3506                           	
  3507  15CA                     l2888:	
  3508                           ;PR28.c: 956: PR2 = 0x7D;
  3509  15CA  307D               	movlw	(07Dh)
  3510  15CB  1683               	bsf	status, 5	;RP0=1, select bank1
  3511  15CC  1303               	bcf	status, 6	;RP1=0, select bank1
  3512  15CD  0092               	movwf	(146)^080h	;volatile
  3513                           	line	957
  3514                           	
  3515  15CE                     l2890:	
  3516                           ;PR28.c: 957: CCPR1L = 50;
  3517  15CE  3032               	movlw	(032h)
  3518  15CF  1283               	bcf	status, 5	;RP0=0, select bank0
  3519  15D0  1303               	bcf	status, 6	;RP1=0, select bank0
  3520  15D1  0095               	movwf	(21)	;volatile
  3521                           	line	958
  3522                           	
  3523  15D2                     l2892:	
  3524                           ;PR28.c: 958: delay(4000);
  3525  15D2  3000               	movlw	0
  3526  15D3  00D5               	movwf	(?_delay+3)
  3527  15D4  3000               	movlw	0
  3528  15D5  00D4               	movwf	(?_delay+2)
  3529  15D6  300F               	movlw	0Fh
  3530  15D7  00D3               	movwf	(?_delay+1)
  3531  15D8  30A0               	movlw	0A0h
  3532  15D9  00D2               	movwf	(?_delay)
  3533                           
  3534  15DA  160A  158A  2764   	fcall	_delay
              160A  118A         
  3535                           	line	959
  3536                           ;PR28.c: 959: PR2 = 0x9E;
  3537  15DF  309E               	movlw	(09Eh)
  3538  15E0  1683               	bsf	status, 5	;RP0=1, select bank1
  3539  15E1  1303               	bcf	status, 6	;RP1=0, select bank1
  3540  15E2  0092               	movwf	(146)^080h	;volatile
  3541                           	line	960
  3542                           ;PR28.c: 960: CCPR1L = 50;
  3543  15E3  3032               	movlw	(032h)
  3544  15E4  1283               	bcf	status, 5	;RP0=0, select bank0
  3545  15E5  1303               	bcf	status, 6	;RP1=0, select bank0
  3546  15E6  0095               	movwf	(21)	;volatile
  3547                           	line	961
  3548                           	
  3549  15E7                     l2894:	
  3550                           ;PR28.c: 961: delay(4000);
  3551  15E7  3000               	movlw	0
  3552  15E8  00D5               	movwf	(?_delay+3)
  3553  15E9  3000               	movlw	0
  3554  15EA  00D4               	movwf	(?_delay+2)
  3555  15EB  300F               	movlw	0Fh
  3556  15EC  00D3               	movwf	(?_delay+1)
  3557  15ED  30A0               	movlw	0A0h
  3558  15EE  00D2               	movwf	(?_delay)
  3559                           
  3560  15EF  160A  158A  2764   	fcall	_delay
              160A  118A         
  3561                           	line	962
  3562                           	
  3563  15F4                     l2896:	
  3564                           ;PR28.c: 962: PR2 = 0x76;
  3565  15F4  3076               	movlw	(076h)
  3566  15F5  1683               	bsf	status, 5	;RP0=1, select bank1
  3567  15F6  1303               	bcf	status, 6	;RP1=0, select bank1
  3568  15F7  0092               	movwf	(146)^080h	;volatile
  3569                           	line	963
  3570                           	
  3571  15F8                     l2898:	
  3572                           ;PR28.c: 963: CCPR1L = 100;
  3573  15F8  3064               	movlw	(064h)
  3574  15F9  1283               	bcf	status, 5	;RP0=0, select bank0
  3575  15FA  1303               	bcf	status, 6	;RP1=0, select bank0
  3576  15FB  0095               	movwf	(21)	;volatile
  3577                           	line	964
  3578                           	
  3579  15FC                     l2900:	
  3580                           ;PR28.c: 964: delay(8000);
  3581  15FC  3000               	movlw	0
  3582  15FD  00D5               	movwf	(?_delay+3)
  3583  15FE  3000               	movlw	0
  3584  15FF  00D4               	movwf	(?_delay+2)
  3585  1600  301F               	movlw	01Fh
  3586  1601  00D3               	movwf	(?_delay+1)
  3587  1602  3040               	movlw	040h
  3588  1603  00D2               	movwf	(?_delay)
  3589                           
  3590  1604  160A  158A  2764   	fcall	_delay
              160A  118A         
  3591                           	line	965
  3592                           ;PR28.c: 965: PR2 = 0x7D;
  3593  1609  307D               	movlw	(07Dh)
  3594  160A  1683               	bsf	status, 5	;RP0=1, select bank1
  3595  160B  1303               	bcf	status, 6	;RP1=0, select bank1
  3596  160C  0092               	movwf	(146)^080h	;volatile
  3597                           	line	966
  3598                           ;PR28.c: 966: CCPR1L = 100;
  3599  160D  3064               	movlw	(064h)
  3600  160E  1283               	bcf	status, 5	;RP0=0, select bank0
  3601  160F  1303               	bcf	status, 6	;RP1=0, select bank0
  3602  1610  0095               	movwf	(21)	;volatile
  3603                           	line	967
  3604                           	
  3605  1611                     l2902:	
  3606                           ;PR28.c: 967: delay(8000);
  3607  1611  3000               	movlw	0
  3608  1612  00D5               	movwf	(?_delay+3)
  3609  1613  3000               	movlw	0
  3610  1614  00D4               	movwf	(?_delay+2)
  3611  1615  301F               	movlw	01Fh
  3612  1616  00D3               	movwf	(?_delay+1)
  3613  1617  3040               	movlw	040h
  3614  1618  00D2               	movwf	(?_delay)
  3615                           
  3616  1619  160A  158A  2764   	fcall	_delay
              160A  118A         
  3617                           	line	968
  3618                           	
  3619  161E                     l2904:	
  3620                           ;PR28.c: 968: PR2 = 0xBD;
  3621  161E  30BD               	movlw	(0BDh)
  3622  161F  1683               	bsf	status, 5	;RP0=1, select bank1
  3623  1620  1303               	bcf	status, 6	;RP1=0, select bank1
  3624  1621  0092               	movwf	(146)^080h	;volatile
  3625                           	line	969
  3626                           	
  3627  1622                     l2906:	
  3628                           ;PR28.c: 969: CCPR1L = 50;
  3629  1622  3032               	movlw	(032h)
  3630  1623  1283               	bcf	status, 5	;RP0=0, select bank0
  3631  1624  1303               	bcf	status, 6	;RP1=0, select bank0
  3632  1625  0095               	movwf	(21)	;volatile
  3633                           	line	970
  3634                           	
  3635  1626                     l2908:	
  3636                           ;PR28.c: 970: delay(4000);
  3637  1626  3000               	movlw	0
  3638  1627  00D5               	movwf	(?_delay+3)
  3639  1628  3000               	movlw	0
  3640  1629  00D4               	movwf	(?_delay+2)
  3641  162A  300F               	movlw	0Fh
  3642  162B  00D3               	movwf	(?_delay+1)
  3643  162C  30A0               	movlw	0A0h
  3644  162D  00D2               	movwf	(?_delay)
  3645                           
  3646  162E  160A  158A  2764   	fcall	_delay
              160A  118A         
  3647                           	line	971
  3648                           	
  3649  1633                     l2910:	
  3650                           ;PR28.c: 971: PR2 = 0x00;
  3651  1633  1683               	bsf	status, 5	;RP0=1, select bank1
  3652  1634  1303               	bcf	status, 6	;RP1=0, select bank1
  3653  1635  0192               	clrf	(146)^080h	;volatile
  3654                           	line	972
  3655                           	
  3656  1636                     l2912:	
  3657                           ;PR28.c: 972: CCPR1L = 50;
  3658  1636  3032               	movlw	(032h)
  3659  1637  1283               	bcf	status, 5	;RP0=0, select bank0
  3660  1638  1303               	bcf	status, 6	;RP1=0, select bank0
  3661  1639  0095               	movwf	(21)	;volatile
  3662                           	line	973
  3663                           	
  3664  163A                     l2914:	
  3665                           ;PR28.c: 973: delay(2000);
  3666  163A  3000               	movlw	0
  3667  163B  00D5               	movwf	(?_delay+3)
  3668  163C  3000               	movlw	0
  3669  163D  00D4               	movwf	(?_delay+2)
  3670  163E  3007               	movlw	07h
  3671  163F  00D3               	movwf	(?_delay+1)
  3672  1640  30D0               	movlw	0D0h
  3673  1641  00D2               	movwf	(?_delay)
  3674                           
  3675  1642  160A  158A  2764   	fcall	_delay
              160A  118A         
  3676                           	line	974
  3677                           	
  3678  1647                     l2916:	
  3679                           ;PR28.c: 974: PR2 = 0x76;
  3680  1647  3076               	movlw	(076h)
  3681  1648  1683               	bsf	status, 5	;RP0=1, select bank1
  3682  1649  1303               	bcf	status, 6	;RP1=0, select bank1
  3683  164A  0092               	movwf	(146)^080h	;volatile
  3684                           	line	975
  3685                           	
  3686  164B                     l2918:	
  3687                           ;PR28.c: 975: CCPR1L = 50;
  3688  164B  3032               	movlw	(032h)
  3689  164C  1283               	bcf	status, 5	;RP0=0, select bank0
  3690  164D  1303               	bcf	status, 6	;RP1=0, select bank0
  3691  164E  0095               	movwf	(21)	;volatile
  3692                           	line	976
  3693                           	
  3694  164F                     l2920:	
  3695                           ;PR28.c: 976: delay(4000);
  3696  164F  3000               	movlw	0
  3697  1650  00D5               	movwf	(?_delay+3)
  3698  1651  3000               	movlw	0
  3699  1652  00D4               	movwf	(?_delay+2)
  3700  1653  300F               	movlw	0Fh
  3701  1654  00D3               	movwf	(?_delay+1)
  3702  1655  30A0               	movlw	0A0h
  3703  1656  00D2               	movwf	(?_delay)
  3704                           
  3705  1657  160A  158A  2764   	fcall	_delay
              160A  118A         
  3706                           	line	977
  3707                           	
  3708  165C                     l2922:	
  3709                           ;PR28.c: 977: PR2 = 0xEE;
  3710  165C  30EE               	movlw	(0EEh)
  3711  165D  1683               	bsf	status, 5	;RP0=1, select bank1
  3712  165E  1303               	bcf	status, 6	;RP1=0, select bank1
  3713  165F  0092               	movwf	(146)^080h	;volatile
  3714                           	line	978
  3715                           	
  3716  1660                     l2924:	
  3717                           ;PR28.c: 978: CCPR1L = 50;
  3718  1660  3032               	movlw	(032h)
  3719  1661  1283               	bcf	status, 5	;RP0=0, select bank0
  3720  1662  1303               	bcf	status, 6	;RP1=0, select bank0
  3721  1663  0095               	movwf	(21)	;volatile
  3722                           	line	979
  3723                           	
  3724  1664                     l2926:	
  3725                           ;PR28.c: 979: delay(4000);
  3726  1664  3000               	movlw	0
  3727  1665  00D5               	movwf	(?_delay+3)
  3728  1666  3000               	movlw	0
  3729  1667  00D4               	movwf	(?_delay+2)
  3730  1668  300F               	movlw	0Fh
  3731  1669  00D3               	movwf	(?_delay+1)
  3732  166A  30A0               	movlw	0A0h
  3733  166B  00D2               	movwf	(?_delay)
  3734                           
  3735  166C  160A  158A  2764   	fcall	_delay
              160A  118A         
  3736                           	line	980
  3737                           	
  3738  1671                     l2928:	
  3739                           ;PR28.c: 980: PR2 = 0x9E;
  3740  1671  309E               	movlw	(09Eh)
  3741  1672  1683               	bsf	status, 5	;RP0=1, select bank1
  3742  1673  1303               	bcf	status, 6	;RP1=0, select bank1
  3743  1674  0092               	movwf	(146)^080h	;volatile
  3744                           	line	981
  3745                           	
  3746  1675                     l2930:	
  3747                           ;PR28.c: 981: CCPR1L = 50;
  3748  1675  3032               	movlw	(032h)
  3749  1676  1283               	bcf	status, 5	;RP0=0, select bank0
  3750  1677  1303               	bcf	status, 6	;RP1=0, select bank0
  3751  1678  0095               	movwf	(21)	;volatile
  3752                           	line	982
  3753                           	
  3754  1679                     l2932:	
  3755                           ;PR28.c: 982: delay(4000);
  3756  1679  3000               	movlw	0
  3757  167A  00D5               	movwf	(?_delay+3)
  3758  167B  3000               	movlw	0
  3759  167C  00D4               	movwf	(?_delay+2)
  3760  167D  300F               	movlw	0Fh
  3761  167E  00D3               	movwf	(?_delay+1)
  3762  167F  30A0               	movlw	0A0h
  3763  1680  00D2               	movwf	(?_delay)
  3764                           
  3765  1681  160A  158A  2764   	fcall	_delay
              160A  118A         
  3766                           	line	983
  3767                           	
  3768  1686                     l2934:	
  3769                           ;PR28.c: 983: PR2 = 0x8D;
  3770  1686  308D               	movlw	(08Dh)
  3771  1687  1683               	bsf	status, 5	;RP0=1, select bank1
  3772  1688  1303               	bcf	status, 6	;RP1=0, select bank1
  3773  1689  0092               	movwf	(146)^080h	;volatile
  3774                           	line	984
  3775                           	
  3776  168A                     l2936:	
  3777                           ;PR28.c: 984: CCPR1L = 50;
  3778  168A  3032               	movlw	(032h)
  3779  168B  1283               	bcf	status, 5	;RP0=0, select bank0
  3780  168C  1303               	bcf	status, 6	;RP1=0, select bank0
  3781  168D  0095               	movwf	(21)	;volatile
  3782                           	line	985
  3783                           	
  3784  168E                     l2938:	
  3785                           ;PR28.c: 985: delay(8000);
  3786  168E  3000               	movlw	0
  3787  168F  00D5               	movwf	(?_delay+3)
  3788  1690  3000               	movlw	0
  3789  1691  00D4               	movwf	(?_delay+2)
  3790  1692  301F               	movlw	01Fh
  3791  1693  00D3               	movwf	(?_delay+1)
  3792  1694  3040               	movlw	040h
  3793  1695  00D2               	movwf	(?_delay)
  3794                           
  3795  1696  160A  158A  2764   	fcall	_delay
              160A  118A         
  3796                           	line	986
  3797                           	
  3798  169B                     l2940:	
  3799                           ;PR28.c: 986: PR2 = 0x76;
  3800  169B  3076               	movlw	(076h)
  3801  169C  1683               	bsf	status, 5	;RP0=1, select bank1
  3802  169D  1303               	bcf	status, 6	;RP1=0, select bank1
  3803  169E  0092               	movwf	(146)^080h	;volatile
  3804                           	line	987
  3805                           	
  3806  169F                     l2942:	
  3807                           ;PR28.c: 987: CCPR1L = 50;
  3808  169F  3032               	movlw	(032h)
  3809  16A0  1283               	bcf	status, 5	;RP0=0, select bank0
  3810  16A1  1303               	bcf	status, 6	;RP1=0, select bank0
  3811  16A2  0095               	movwf	(21)	;volatile
  3812                           	line	988
  3813                           	
  3814  16A3                     l2944:	
  3815                           ;PR28.c: 988: delay(8000);
  3816  16A3  3000               	movlw	0
  3817  16A4  00D5               	movwf	(?_delay+3)
  3818  16A5  3000               	movlw	0
  3819  16A6  00D4               	movwf	(?_delay+2)
  3820  16A7  301F               	movlw	01Fh
  3821  16A8  00D3               	movwf	(?_delay+1)
  3822  16A9  3040               	movlw	040h
  3823  16AA  00D2               	movwf	(?_delay)
  3824                           
  3825  16AB  160A  158A  2764   	fcall	_delay
              160A  118A         
  3826                           	line	990
  3827                           ;PR28.c: 990: CCP1CON = 0x00;
  3828  16B0  1283               	bcf	status, 5	;RP0=0, select bank0
  3829  16B1  1303               	bcf	status, 6	;RP1=0, select bank0
  3830  16B2  0197               	clrf	(23)	;volatile
  3831                           	line	991
  3832                           	
  3833  16B3                     l2946:	
  3834                           ;PR28.c: 991: T2CON=0b01110110;
  3835  16B3  3076               	movlw	(076h)
  3836  16B4  0092               	movwf	(18)	;volatile
  3837                           	line	992
  3838                           	
  3839  16B5                     l2948:	
  3840                           ;PR28.c: 992: PR2 = 0xB4;
  3841  16B5  30B4               	movlw	(0B4h)
  3842  16B6  1683               	bsf	status, 5	;RP0=1, select bank1
  3843  16B7  1303               	bcf	status, 6	;RP1=0, select bank1
  3844  16B8  0092               	movwf	(146)^080h	;volatile
  3845                           	line	993
  3846                           ;PR28.c: 993: CCPR1L = 0;
  3847  16B9  1283               	bcf	status, 5	;RP0=0, select bank0
  3848  16BA  1303               	bcf	status, 6	;RP1=0, select bank0
  3849  16BB  0195               	clrf	(21)	;volatile
  3850                           	line	995
  3851                           	
  3852  16BC                     l2950:	
  3853                           ;PR28.c: 995: TMR2IF = 0;
  3854  16BC  108C               	bcf	(97/8),(97)&7	;volatile
  3855                           	line	996
  3856                           	
  3857  16BD                     l2952:	
  3858                           ;PR28.c: 996: TMR2IE = 1;
  3859  16BD  1683               	bsf	status, 5	;RP0=1, select bank1
  3860  16BE  1303               	bcf	status, 6	;RP1=0, select bank1
  3861  16BF  148C               	bsf	(1121/8)^080h,(1121)&7	;volatile
  3862                           	line	997
  3863                           	
  3864  16C0                     l2954:	
  3865                           ;PR28.c: 997: T1CON = 0b11000101;
  3866  16C0  30C5               	movlw	(0C5h)
  3867  16C1  1283               	bcf	status, 5	;RP0=0, select bank0
  3868  16C2  1303               	bcf	status, 6	;RP1=0, select bank0
  3869  16C3  0090               	movwf	(16)	;volatile
  3870                           	line	998
  3871                           	
  3872  16C4                     l2956:	
  3873                           ;PR28.c: 998: T1GCON = 0b11100010;
  3874  16C4  30E2               	movlw	(0E2h)
  3875  16C5  1683               	bsf	status, 5	;RP0=1, select bank1
  3876  16C6  1303               	bcf	status, 6	;RP1=0, select bank1
  3877  16C7  008F               	movwf	(143)^080h	;volatile
  3878                           	line	999
  3879                           	
  3880  16C8                     l2958:	
  3881                           ;PR28.c: 999: TMR1GIF = 0;
  3882  16C8  1283               	bcf	status, 5	;RP0=0, select bank0
  3883  16C9  1303               	bcf	status, 6	;RP1=0, select bank0
  3884  16CA  138C               	bcf	(103/8),(103)&7	;volatile
  3885                           	line	1000
  3886                           	
  3887  16CB                     l2960:	
  3888                           ;PR28.c: 1000: TMR1GIE = 1;
  3889  16CB  1683               	bsf	status, 5	;RP0=1, select bank1
  3890  16CC  1303               	bcf	status, 6	;RP1=0, select bank1
  3891  16CD  178C               	bsf	(1127/8)^080h,(1127)&7	;volatile
  3892                           	line	1002
  3893                           	
  3894  16CE                     l2962:	
  3895                           ;PR28.c: 1002: RestartTimer1();
  3896  16CE  160A  158A  260B   	fcall	_RestartTimer1
              160A  118A         
  3897                           	line	1003
  3898                           	
  3899  16D3                     l2964:	
  3900                           ;PR28.c: 1003: GIE = 1;
  3901  16D3  178B               	bsf	(95/8),(95)&7	;volatile
  3902                           	line	1004
  3903                           	
  3904  16D4                     l604:	
  3905  16D4  0008               	return
  3906                           	opt stack 0
  3907                           GLOBAL	__end_of_PIEZO
  3908  16D5                     	__end_of_PIEZO:
  3909                           	signat	_PIEZO,88
  3910                           	global	_PIEZO_D
  3911                           
  3912 ;; *************** function _PIEZO_D *****************
  3913 ;; Defined at:
  3914 ;;		line 1011 in file "PR28.c"
  3915 ;; Parameters:    Size  Location     Type
  3916 ;;		None
  3917 ;; Auto vars:     Size  Location     Type
  3918 ;;		None
  3919 ;; Return value:  Size  Location     Type
  3920 ;;		None               void
  3921 ;; Registers used:
  3922 ;;		wreg, status,2, status,0, pclath, cstack
  3923 ;; Tracked objects:
  3924 ;;		On entry : 0/0
  3925 ;;		On exit  : 0/0
  3926 ;;		Unchanged: 0/0
  3927 ;; Data sizes:     COMMON   BANK0   BANK1   BANK3   BANK2
  3928 ;;      Params:         0       0       0       0       0
  3929 ;;      Locals:         0       0       0       0       0
  3930 ;;      Temps:          0       0       0       0       0
  3931 ;;      Totals:         0       0       0       0       0
  3932 ;;Total ram usage:        0 bytes
  3933 ;; Hardware stack levels used:    1
  3934 ;; Hardware stack levels required when called:    4
  3935 ;; This function calls:
  3936 ;;		_delay
  3937 ;;		_RestartTimer1
  3938 ;; This function is called by:
  3939 ;;		_main
  3940 ;; This function uses a non-reentrant model
  3941 ;;
  3942                           psect	text667,local,class=CODE,delta=2,merge=1
  3943                           global __ptext667
  3944  0D5C                     __ptext667:
  3945                           psect	text667
  3946                           	file	"PR28.c"
  3947                           	line	1011
  3948                           	global	__size_of_PIEZO_D
  3949  02A4                     	__size_of_PIEZO_D	equ	__end_of_PIEZO_D-_PIEZO_D
  3950                           	
  3951  0D5C                     _PIEZO_D:	
  3952                           	opt	stack 3
  3953                           ; Regs used in _PIEZO_D: [wreg+status,2+status,0+pclath+cstack]
  3954                           	line	1012
  3955                           	
  3956  0D5C                     l2966:	
  3957                           ;PR28.c: 1012: GIE=0;
  3958  0D5C  138B               	bcf	(95/8),(95)&7	;volatile
  3959                           	line	1013
  3960                           ;PR28.c: 1013: TMR2ON = 0;
  3961  0D5D  1283               	bcf	status, 5	;RP0=0, select bank0
  3962  0D5E  1303               	bcf	status, 6	;RP1=0, select bank0
  3963  0D5F  1112               	bcf	(146/8),(146)&7	;volatile
  3964                           	line	1014
  3965                           ;PR28.c: 1014: TMR1ON = 0;
  3966  0D60  1010               	bcf	(128/8),(128)&7	;volatile
  3967                           	line	1015
  3968                           	
  3969  0D61                     l2968:	
  3970                           ;PR28.c: 1015: CCP1CON = 0b00001100;
  3971  0D61  300C               	movlw	(0Ch)
  3972  0D62  0097               	movwf	(23)	;volatile
  3973                           	line	1016
  3974                           ;PR28.c: 1016: T2CON = 0b00000111;
  3975  0D63  3007               	movlw	(07h)
  3976  0D64  0092               	movwf	(18)	;volatile
  3977                           	line	1017
  3978                           ;PR28.c: 1017: PR2 = 0xBC;
  3979  0D65  30BC               	movlw	(0BCh)
  3980  0D66  1683               	bsf	status, 5	;RP0=1, select bank1
  3981  0D67  1303               	bcf	status, 6	;RP1=0, select bank1
  3982  0D68  0092               	movwf	(146)^080h	;volatile
  3983                           	line	1018
  3984                           ;PR28.c: 1018: CCPR1L = 50;
  3985  0D69  3032               	movlw	(032h)
  3986  0D6A  1283               	bcf	status, 5	;RP0=0, select bank0
  3987  0D6B  1303               	bcf	status, 6	;RP1=0, select bank0
  3988  0D6C  0095               	movwf	(21)	;volatile
  3989                           	line	1019
  3990                           	
  3991  0D6D                     l2970:	
  3992                           ;PR28.c: 1019: delay(4000);
  3993  0D6D  3000               	movlw	0
  3994  0D6E  00D5               	movwf	(?_delay+3)
  3995  0D6F  3000               	movlw	0
  3996  0D70  00D4               	movwf	(?_delay+2)
  3997  0D71  300F               	movlw	0Fh
  3998  0D72  00D3               	movwf	(?_delay+1)
  3999  0D73  30A0               	movlw	0A0h
  4000  0D74  00D2               	movwf	(?_delay)
  4001                           
  4002  0D75  160A  158A  2764   	fcall	_delay
              120A  158A         
  4003                           	line	1020
  4004                           	
  4005  0D7A                     l2972:	
  4006                           ;PR28.c: 1020: PR2 = 0xBC;
  4007  0D7A  30BC               	movlw	(0BCh)
  4008  0D7B  1683               	bsf	status, 5	;RP0=1, select bank1
  4009  0D7C  1303               	bcf	status, 6	;RP1=0, select bank1
  4010  0D7D  0092               	movwf	(146)^080h	;volatile
  4011                           	line	1021
  4012                           	
  4013  0D7E                     l2974:	
  4014                           ;PR28.c: 1021: CCPR1L = 50;
  4015  0D7E  3032               	movlw	(032h)
  4016  0D7F  1283               	bcf	status, 5	;RP0=0, select bank0
  4017  0D80  1303               	bcf	status, 6	;RP1=0, select bank0
  4018  0D81  0095               	movwf	(21)	;volatile
  4019                           	line	1022
  4020                           	
  4021  0D82                     l2976:	
  4022                           ;PR28.c: 1022: delay(4000);
  4023  0D82  3000               	movlw	0
  4024  0D83  00D5               	movwf	(?_delay+3)
  4025  0D84  3000               	movlw	0
  4026  0D85  00D4               	movwf	(?_delay+2)
  4027  0D86  300F               	movlw	0Fh
  4028  0D87  00D3               	movwf	(?_delay+1)
  4029  0D88  30A0               	movlw	0A0h
  4030  0D89  00D2               	movwf	(?_delay)
  4031                           
  4032  0D8A  160A  158A  2764   	fcall	_delay
              120A  158A         
  4033                           	line	1023
  4034                           ;PR28.c: 1023: PR2 = 0xB2;
  4035  0D8F  30B2               	movlw	(0B2h)
  4036  0D90  1683               	bsf	status, 5	;RP0=1, select bank1
  4037  0D91  1303               	bcf	status, 6	;RP1=0, select bank1
  4038  0D92  0092               	movwf	(146)^080h	;volatile
  4039                           	line	1024
  4040                           ;PR28.c: 1024: CCPR1L = 50;
  4041  0D93  3032               	movlw	(032h)
  4042  0D94  1283               	bcf	status, 5	;RP0=0, select bank0
  4043  0D95  1303               	bcf	status, 6	;RP1=0, select bank0
  4044  0D96  0095               	movwf	(21)	;volatile
  4045                           	line	1025
  4046                           	
  4047  0D97                     l2978:	
  4048                           ;PR28.c: 1025: delay(4000);
  4049  0D97  3000               	movlw	0
  4050  0D98  00D5               	movwf	(?_delay+3)
  4051  0D99  3000               	movlw	0
  4052  0D9A  00D4               	movwf	(?_delay+2)
  4053  0D9B  300F               	movlw	0Fh
  4054  0D9C  00D3               	movwf	(?_delay+1)
  4055  0D9D  30A0               	movlw	0A0h
  4056  0D9E  00D2               	movwf	(?_delay)
  4057                           
  4058  0D9F  160A  158A  2764   	fcall	_delay
              120A  158A         
  4059                           	line	1026
  4060                           	
  4061  0DA4                     l2980:	
  4062                           ;PR28.c: 1026: PR2 = 0x9E;
  4063  0DA4  309E               	movlw	(09Eh)
  4064  0DA5  1683               	bsf	status, 5	;RP0=1, select bank1
  4065  0DA6  1303               	bcf	status, 6	;RP1=0, select bank1
  4066  0DA7  0092               	movwf	(146)^080h	;volatile
  4067                           	line	1027
  4068                           	
  4069  0DA8                     l2982:	
  4070                           ;PR28.c: 1027: CCPR1L = 100;
  4071  0DA8  3064               	movlw	(064h)
  4072  0DA9  1283               	bcf	status, 5	;RP0=0, select bank0
  4073  0DAA  1303               	bcf	status, 6	;RP1=0, select bank0
  4074  0DAB  0095               	movwf	(21)	;volatile
  4075                           	line	1028
  4076                           	
  4077  0DAC                     l2984:	
  4078                           ;PR28.c: 1028: delay(4000);
  4079  0DAC  3000               	movlw	0
  4080  0DAD  00D5               	movwf	(?_delay+3)
  4081  0DAE  3000               	movlw	0
  4082  0DAF  00D4               	movwf	(?_delay+2)
  4083  0DB0  300F               	movlw	0Fh
  4084  0DB1  00D3               	movwf	(?_delay+1)
  4085  0DB2  30A0               	movlw	0A0h
  4086  0DB3  00D2               	movwf	(?_delay)
  4087                           
  4088  0DB4  160A  158A  2764   	fcall	_delay
              120A  158A         
  4089                           	line	1029
  4090                           ;PR28.c: 1029: PR2 = 0x9E;
  4091  0DB9  309E               	movlw	(09Eh)
  4092  0DBA  1683               	bsf	status, 5	;RP0=1, select bank1
  4093  0DBB  1303               	bcf	status, 6	;RP1=0, select bank1
  4094  0DBC  0092               	movwf	(146)^080h	;volatile
  4095                           	line	1030
  4096                           ;PR28.c: 1030: CCPR1L = 100;
  4097  0DBD  3064               	movlw	(064h)
  4098  0DBE  1283               	bcf	status, 5	;RP0=0, select bank0
  4099  0DBF  1303               	bcf	status, 6	;RP1=0, select bank0
  4100  0DC0  0095               	movwf	(21)	;volatile
  4101                           	line	1031
  4102                           	
  4103  0DC1                     l2986:	
  4104                           ;PR28.c: 1031: delay(4000);
  4105  0DC1  3000               	movlw	0
  4106  0DC2  00D5               	movwf	(?_delay+3)
  4107  0DC3  3000               	movlw	0
  4108  0DC4  00D4               	movwf	(?_delay+2)
  4109  0DC5  300F               	movlw	0Fh
  4110  0DC6  00D3               	movwf	(?_delay+1)
  4111  0DC7  30A0               	movlw	0A0h
  4112  0DC8  00D2               	movwf	(?_delay)
  4113                           
  4114  0DC9  160A  158A  2764   	fcall	_delay
              120A  158A         
  4115                           	line	1032
  4116                           	
  4117  0DCE                     l2988:	
  4118                           ;PR28.c: 1032: PR2 = 0xB2;
  4119  0DCE  30B2               	movlw	(0B2h)
  4120  0DCF  1683               	bsf	status, 5	;RP0=1, select bank1
  4121  0DD0  1303               	bcf	status, 6	;RP1=0, select bank1
  4122  0DD1  0092               	movwf	(146)^080h	;volatile
  4123                           	line	1033
  4124                           	
  4125  0DD2                     l2990:	
  4126                           ;PR28.c: 1033: CCPR1L = 50;
  4127  0DD2  3032               	movlw	(032h)
  4128  0DD3  1283               	bcf	status, 5	;RP0=0, select bank0
  4129  0DD4  1303               	bcf	status, 6	;RP1=0, select bank0
  4130  0DD5  0095               	movwf	(21)	;volatile
  4131                           	line	1034
  4132                           	
  4133  0DD6                     l2992:	
  4134                           ;PR28.c: 1034: delay(4000);
  4135  0DD6  3000               	movlw	0
  4136  0DD7  00D5               	movwf	(?_delay+3)
  4137  0DD8  3000               	movlw	0
  4138  0DD9  00D4               	movwf	(?_delay+2)
  4139  0DDA  300F               	movlw	0Fh
  4140  0DDB  00D3               	movwf	(?_delay+1)
  4141  0DDC  30A0               	movlw	0A0h
  4142  0DDD  00D2               	movwf	(?_delay)
  4143                           
  4144  0DDE  160A  158A  2764   	fcall	_delay
              120A  158A         
  4145                           	line	1035
  4146                           ;PR28.c: 1035: PR2 = 0xBC;
  4147  0DE3  30BC               	movlw	(0BCh)
  4148  0DE4  1683               	bsf	status, 5	;RP0=1, select bank1
  4149  0DE5  1303               	bcf	status, 6	;RP1=0, select bank1
  4150  0DE6  0092               	movwf	(146)^080h	;volatile
  4151                           	line	1036
  4152                           ;PR28.c: 1036: CCPR1L = 50;
  4153  0DE7  3032               	movlw	(032h)
  4154  0DE8  1283               	bcf	status, 5	;RP0=0, select bank0
  4155  0DE9  1303               	bcf	status, 6	;RP1=0, select bank0
  4156  0DEA  0095               	movwf	(21)	;volatile
  4157                           	line	1037
  4158                           	
  4159  0DEB                     l2994:	
  4160                           ;PR28.c: 1037: delay(4000);
  4161  0DEB  3000               	movlw	0
  4162  0DEC  00D5               	movwf	(?_delay+3)
  4163  0DED  3000               	movlw	0
  4164  0DEE  00D4               	movwf	(?_delay+2)
  4165  0DEF  300F               	movlw	0Fh
  4166  0DF0  00D3               	movwf	(?_delay+1)
  4167  0DF1  30A0               	movlw	0A0h
  4168  0DF2  00D2               	movwf	(?_delay)
  4169                           
  4170  0DF3  160A  158A  2764   	fcall	_delay
              120A  158A         
  4171                           	line	1038
  4172                           	
  4173  0DF8                     l2996:	
  4174                           ;PR28.c: 1038: PR2 = 0xD3;
  4175  0DF8  30D3               	movlw	(0D3h)
  4176  0DF9  1683               	bsf	status, 5	;RP0=1, select bank1
  4177  0DFA  1303               	bcf	status, 6	;RP1=0, select bank1
  4178  0DFB  0092               	movwf	(146)^080h	;volatile
  4179                           	line	1039
  4180                           	
  4181  0DFC                     l2998:	
  4182                           ;PR28.c: 1039: CCPR1L = 50;
  4183  0DFC  3032               	movlw	(032h)
  4184  0DFD  1283               	bcf	status, 5	;RP0=0, select bank0
  4185  0DFE  1303               	bcf	status, 6	;RP1=0, select bank0
  4186  0DFF  0095               	movwf	(21)	;volatile
  4187                           	line	1040
  4188                           	
  4189  0E00                     l3000:	
  4190                           ;PR28.c: 1040: delay(4000);
  4191  0E00  3000               	movlw	0
  4192  0E01  00D5               	movwf	(?_delay+3)
  4193  0E02  3000               	movlw	0
  4194  0E03  00D4               	movwf	(?_delay+2)
  4195  0E04  300F               	movlw	0Fh
  4196  0E05  00D3               	movwf	(?_delay+1)
  4197  0E06  30A0               	movlw	0A0h
  4198  0E07  00D2               	movwf	(?_delay)
  4199                           
  4200  0E08  160A  158A  2764   	fcall	_delay
              120A  158A         
  4201                           	line	1041
  4202                           ;PR28.c: 1041: PR2 = 0xEE;
  4203  0E0D  30EE               	movlw	(0EEh)
  4204  0E0E  1683               	bsf	status, 5	;RP0=1, select bank1
  4205  0E0F  1303               	bcf	status, 6	;RP1=0, select bank1
  4206  0E10  0092               	movwf	(146)^080h	;volatile
  4207                           	line	1042
  4208                           ;PR28.c: 1042: CCPR1L = 50;
  4209  0E11  3032               	movlw	(032h)
  4210  0E12  1283               	bcf	status, 5	;RP0=0, select bank0
  4211  0E13  1303               	bcf	status, 6	;RP1=0, select bank0
  4212  0E14  0095               	movwf	(21)	;volatile
  4213                           	line	1043
  4214                           	
  4215  0E15                     l3002:	
  4216                           ;PR28.c: 1043: delay(4000);
  4217  0E15  3000               	movlw	0
  4218  0E16  00D5               	movwf	(?_delay+3)
  4219  0E17  3000               	movlw	0
  4220  0E18  00D4               	movwf	(?_delay+2)
  4221  0E19  300F               	movlw	0Fh
  4222  0E1A  00D3               	movwf	(?_delay+1)
  4223  0E1B  30A0               	movlw	0A0h
  4224  0E1C  00D2               	movwf	(?_delay)
  4225                           
  4226  0E1D  160A  158A  2764   	fcall	_delay
              120A  158A         
  4227                           	line	1044
  4228                           	
  4229  0E22                     l3004:	
  4230                           ;PR28.c: 1044: PR2 = 0xEE;
  4231  0E22  30EE               	movlw	(0EEh)
  4232  0E23  1683               	bsf	status, 5	;RP0=1, select bank1
  4233  0E24  1303               	bcf	status, 6	;RP1=0, select bank1
  4234  0E25  0092               	movwf	(146)^080h	;volatile
  4235                           	line	1045
  4236                           	
  4237  0E26                     l3006:	
  4238                           ;PR28.c: 1045: CCPR1L = 50;
  4239  0E26  3032               	movlw	(032h)
  4240  0E27  1283               	bcf	status, 5	;RP0=0, select bank0
  4241  0E28  1303               	bcf	status, 6	;RP1=0, select bank0
  4242  0E29  0095               	movwf	(21)	;volatile
  4243                           	line	1046
  4244                           	
  4245  0E2A                     l3008:	
  4246                           ;PR28.c: 1046: delay(4000);
  4247  0E2A  3000               	movlw	0
  4248  0E2B  00D5               	movwf	(?_delay+3)
  4249  0E2C  3000               	movlw	0
  4250  0E2D  00D4               	movwf	(?_delay+2)
  4251  0E2E  300F               	movlw	0Fh
  4252  0E2F  00D3               	movwf	(?_delay+1)
  4253  0E30  30A0               	movlw	0A0h
  4254  0E31  00D2               	movwf	(?_delay)
  4255                           
  4256  0E32  160A  158A  2764   	fcall	_delay
              120A  158A         
  4257                           	line	1047
  4258                           ;PR28.c: 1047: PR2 = 0xD3;
  4259  0E37  30D3               	movlw	(0D3h)
  4260  0E38  1683               	bsf	status, 5	;RP0=1, select bank1
  4261  0E39  1303               	bcf	status, 6	;RP1=0, select bank1
  4262  0E3A  0092               	movwf	(146)^080h	;volatile
  4263                           	line	1048
  4264                           ;PR28.c: 1048: CCPR1L = 50;
  4265  0E3B  3032               	movlw	(032h)
  4266  0E3C  1283               	bcf	status, 5	;RP0=0, select bank0
  4267  0E3D  1303               	bcf	status, 6	;RP1=0, select bank0
  4268  0E3E  0095               	movwf	(21)	;volatile
  4269                           	line	1049
  4270                           	
  4271  0E3F                     l3010:	
  4272                           ;PR28.c: 1049: delay(4000);
  4273  0E3F  3000               	movlw	0
  4274  0E40  00D5               	movwf	(?_delay+3)
  4275  0E41  3000               	movlw	0
  4276  0E42  00D4               	movwf	(?_delay+2)
  4277  0E43  300F               	movlw	0Fh
  4278  0E44  00D3               	movwf	(?_delay+1)
  4279  0E45  30A0               	movlw	0A0h
  4280  0E46  00D2               	movwf	(?_delay)
  4281                           
  4282  0E47  160A  158A  2764   	fcall	_delay
              120A  158A         
  4283                           	line	1050
  4284                           	
  4285  0E4C                     l3012:	
  4286                           ;PR28.c: 1050: PR2 = 0xBC;
  4287  0E4C  30BC               	movlw	(0BCh)
  4288  0E4D  1683               	bsf	status, 5	;RP0=1, select bank1
  4289  0E4E  1303               	bcf	status, 6	;RP1=0, select bank1
  4290  0E4F  0092               	movwf	(146)^080h	;volatile
  4291                           	line	1051
  4292                           	
  4293  0E50                     l3014:	
  4294                           ;PR28.c: 1051: CCPR1L = 50;
  4295  0E50  3032               	movlw	(032h)
  4296  0E51  1283               	bcf	status, 5	;RP0=0, select bank0
  4297  0E52  1303               	bcf	status, 6	;RP1=0, select bank0
  4298  0E53  0095               	movwf	(21)	;volatile
  4299                           	line	1052
  4300                           	
  4301  0E54                     l3016:	
  4302                           ;PR28.c: 1052: delay(4000);
  4303  0E54  3000               	movlw	0
  4304  0E55  00D5               	movwf	(?_delay+3)
  4305  0E56  3000               	movlw	0
  4306  0E57  00D4               	movwf	(?_delay+2)
  4307  0E58  300F               	movlw	0Fh
  4308  0E59  00D3               	movwf	(?_delay+1)
  4309  0E5A  30A0               	movlw	0A0h
  4310  0E5B  00D2               	movwf	(?_delay)
  4311                           
  4312  0E5C  160A  158A  2764   	fcall	_delay
              120A  158A         
  4313                           	line	1053
  4314                           ;PR28.c: 1053: PR2 = 0xBC;
  4315  0E61  30BC               	movlw	(0BCh)
  4316  0E62  1683               	bsf	status, 5	;RP0=1, select bank1
  4317  0E63  1303               	bcf	status, 6	;RP1=0, select bank1
  4318  0E64  0092               	movwf	(146)^080h	;volatile
  4319                           	line	1054
  4320                           ;PR28.c: 1054: CCPR1L = 50;
  4321  0E65  3032               	movlw	(032h)
  4322  0E66  1283               	bcf	status, 5	;RP0=0, select bank0
  4323  0E67  1303               	bcf	status, 6	;RP1=0, select bank0
  4324  0E68  0095               	movwf	(21)	;volatile
  4325                           	line	1055
  4326                           	
  4327  0E69                     l3018:	
  4328                           ;PR28.c: 1055: delay(4000);
  4329  0E69  3000               	movlw	0
  4330  0E6A  00D5               	movwf	(?_delay+3)
  4331  0E6B  3000               	movlw	0
  4332  0E6C  00D4               	movwf	(?_delay+2)
  4333  0E6D  300F               	movlw	0Fh
  4334  0E6E  00D3               	movwf	(?_delay+1)
  4335  0E6F  30A0               	movlw	0A0h
  4336  0E70  00D2               	movwf	(?_delay)
  4337                           
  4338  0E71  160A  158A  2764   	fcall	_delay
              120A  158A         
  4339                           	line	1056
  4340                           	
  4341  0E76                     l3020:	
  4342                           ;PR28.c: 1056: PR2 = 0xD3;
  4343  0E76  30D3               	movlw	(0D3h)
  4344  0E77  1683               	bsf	status, 5	;RP0=1, select bank1
  4345  0E78  1303               	bcf	status, 6	;RP1=0, select bank1
  4346  0E79  0092               	movwf	(146)^080h	;volatile
  4347                           	line	1057
  4348                           	
  4349  0E7A                     l3022:	
  4350                           ;PR28.c: 1057: CCPR1L = 50;
  4351  0E7A  3032               	movlw	(032h)
  4352  0E7B  1283               	bcf	status, 5	;RP0=0, select bank0
  4353  0E7C  1303               	bcf	status, 6	;RP1=0, select bank0
  4354  0E7D  0095               	movwf	(21)	;volatile
  4355                           	line	1058
  4356                           	
  4357  0E7E                     l3024:	
  4358                           ;PR28.c: 1058: delay(2000);
  4359  0E7E  3000               	movlw	0
  4360  0E7F  00D5               	movwf	(?_delay+3)
  4361  0E80  3000               	movlw	0
  4362  0E81  00D4               	movwf	(?_delay+2)
  4363  0E82  3007               	movlw	07h
  4364  0E83  00D3               	movwf	(?_delay+1)
  4365  0E84  30D0               	movlw	0D0h
  4366  0E85  00D2               	movwf	(?_delay)
  4367                           
  4368  0E86  160A  158A  2764   	fcall	_delay
              120A  158A         
  4369                           	line	1059
  4370                           ;PR28.c: 1059: PR2 = 0xD3;
  4371  0E8B  30D3               	movlw	(0D3h)
  4372  0E8C  1683               	bsf	status, 5	;RP0=1, select bank1
  4373  0E8D  1303               	bcf	status, 6	;RP1=0, select bank1
  4374  0E8E  0092               	movwf	(146)^080h	;volatile
  4375                           	line	1060
  4376                           ;PR28.c: 1060: CCPR1L = 50;
  4377  0E8F  3032               	movlw	(032h)
  4378  0E90  1283               	bcf	status, 5	;RP0=0, select bank0
  4379  0E91  1303               	bcf	status, 6	;RP1=0, select bank0
  4380  0E92  0095               	movwf	(21)	;volatile
  4381                           	line	1061
  4382                           	
  4383  0E93                     l3026:	
  4384                           ;PR28.c: 1061: delay(8000);
  4385  0E93  3000               	movlw	0
  4386  0E94  00D5               	movwf	(?_delay+3)
  4387  0E95  3000               	movlw	0
  4388  0E96  00D4               	movwf	(?_delay+2)
  4389  0E97  301F               	movlw	01Fh
  4390  0E98  00D3               	movwf	(?_delay+1)
  4391  0E99  3040               	movlw	040h
  4392  0E9A  00D2               	movwf	(?_delay)
  4393                           
  4394  0E9B  160A  158A  2764   	fcall	_delay
              120A  158A         
  4395                           	line	1062
  4396                           	
  4397  0EA0                     l3028:	
  4398                           ;PR28.c: 1062: PR2 = 0xBC;
  4399  0EA0  30BC               	movlw	(0BCh)
  4400  0EA1  1683               	bsf	status, 5	;RP0=1, select bank1
  4401  0EA2  1303               	bcf	status, 6	;RP1=0, select bank1
  4402  0EA3  0092               	movwf	(146)^080h	;volatile
  4403                           	line	1063
  4404                           	
  4405  0EA4                     l3030:	
  4406                           ;PR28.c: 1063: CCPR1L = 50;
  4407  0EA4  3032               	movlw	(032h)
  4408  0EA5  1283               	bcf	status, 5	;RP0=0, select bank0
  4409  0EA6  1303               	bcf	status, 6	;RP1=0, select bank0
  4410  0EA7  0095               	movwf	(21)	;volatile
  4411                           	line	1064
  4412                           	
  4413  0EA8                     l3032:	
  4414                           ;PR28.c: 1064: delay(4000);
  4415  0EA8  3000               	movlw	0
  4416  0EA9  00D5               	movwf	(?_delay+3)
  4417  0EAA  3000               	movlw	0
  4418  0EAB  00D4               	movwf	(?_delay+2)
  4419  0EAC  300F               	movlw	0Fh
  4420  0EAD  00D3               	movwf	(?_delay+1)
  4421  0EAE  30A0               	movlw	0A0h
  4422  0EAF  00D2               	movwf	(?_delay)
  4423                           
  4424  0EB0  160A  158A  2764   	fcall	_delay
              120A  158A         
  4425                           	line	1065
  4426                           ;PR28.c: 1065: PR2 = 0xBC;
  4427  0EB5  30BC               	movlw	(0BCh)
  4428  0EB6  1683               	bsf	status, 5	;RP0=1, select bank1
  4429  0EB7  1303               	bcf	status, 6	;RP1=0, select bank1
  4430  0EB8  0092               	movwf	(146)^080h	;volatile
  4431                           	line	1066
  4432                           ;PR28.c: 1066: CCPR1L = 50;
  4433  0EB9  3032               	movlw	(032h)
  4434  0EBA  1283               	bcf	status, 5	;RP0=0, select bank0
  4435  0EBB  1303               	bcf	status, 6	;RP1=0, select bank0
  4436  0EBC  0095               	movwf	(21)	;volatile
  4437                           	line	1067
  4438                           	
  4439  0EBD                     l3034:	
  4440                           ;PR28.c: 1067: delay(4000);
  4441  0EBD  3000               	movlw	0
  4442  0EBE  00D5               	movwf	(?_delay+3)
  4443  0EBF  3000               	movlw	0
  4444  0EC0  00D4               	movwf	(?_delay+2)
  4445  0EC1  300F               	movlw	0Fh
  4446  0EC2  00D3               	movwf	(?_delay+1)
  4447  0EC3  30A0               	movlw	0A0h
  4448  0EC4  00D2               	movwf	(?_delay)
  4449                           
  4450  0EC5  160A  158A  2764   	fcall	_delay
              120A  158A         
  4451                           	line	1068
  4452                           	
  4453  0ECA                     l3036:	
  4454                           ;PR28.c: 1068: PR2 = 0xB2;
  4455  0ECA  30B2               	movlw	(0B2h)
  4456  0ECB  1683               	bsf	status, 5	;RP0=1, select bank1
  4457  0ECC  1303               	bcf	status, 6	;RP1=0, select bank1
  4458  0ECD  0092               	movwf	(146)^080h	;volatile
  4459                           	line	1069
  4460                           	
  4461  0ECE                     l3038:	
  4462                           ;PR28.c: 1069: CCPR1L = 50;
  4463  0ECE  3032               	movlw	(032h)
  4464  0ECF  1283               	bcf	status, 5	;RP0=0, select bank0
  4465  0ED0  1303               	bcf	status, 6	;RP1=0, select bank0
  4466  0ED1  0095               	movwf	(21)	;volatile
  4467                           	line	1070
  4468                           	
  4469  0ED2                     l3040:	
  4470                           ;PR28.c: 1070: delay(4000);
  4471  0ED2  3000               	movlw	0
  4472  0ED3  00D5               	movwf	(?_delay+3)
  4473  0ED4  3000               	movlw	0
  4474  0ED5  00D4               	movwf	(?_delay+2)
  4475  0ED6  300F               	movlw	0Fh
  4476  0ED7  00D3               	movwf	(?_delay+1)
  4477  0ED8  30A0               	movlw	0A0h
  4478  0ED9  00D2               	movwf	(?_delay)
  4479                           
  4480  0EDA  160A  158A  2764   	fcall	_delay
              120A  158A         
  4481                           	line	1071
  4482                           ;PR28.c: 1071: PR2 = 0x9E;
  4483  0EDF  309E               	movlw	(09Eh)
  4484  0EE0  1683               	bsf	status, 5	;RP0=1, select bank1
  4485  0EE1  1303               	bcf	status, 6	;RP1=0, select bank1
  4486  0EE2  0092               	movwf	(146)^080h	;volatile
  4487                           	line	1072
  4488                           ;PR28.c: 1072: CCPR1L = 50;
  4489  0EE3  3032               	movlw	(032h)
  4490  0EE4  1283               	bcf	status, 5	;RP0=0, select bank0
  4491  0EE5  1303               	bcf	status, 6	;RP1=0, select bank0
  4492  0EE6  0095               	movwf	(21)	;volatile
  4493                           	line	1073
  4494                           	
  4495  0EE7                     l3042:	
  4496                           ;PR28.c: 1073: delay(4000);
  4497  0EE7  3000               	movlw	0
  4498  0EE8  00D5               	movwf	(?_delay+3)
  4499  0EE9  3000               	movlw	0
  4500  0EEA  00D4               	movwf	(?_delay+2)
  4501  0EEB  300F               	movlw	0Fh
  4502  0EEC  00D3               	movwf	(?_delay+1)
  4503  0EED  30A0               	movlw	0A0h
  4504  0EEE  00D2               	movwf	(?_delay)
  4505                           
  4506  0EEF  160A  158A  2764   	fcall	_delay
              120A  158A         
  4507                           	line	1074
  4508                           	
  4509  0EF4                     l3044:	
  4510                           ;PR28.c: 1074: PR2 = 0x9E;
  4511  0EF4  309E               	movlw	(09Eh)
  4512  0EF5  1683               	bsf	status, 5	;RP0=1, select bank1
  4513  0EF6  1303               	bcf	status, 6	;RP1=0, select bank1
  4514  0EF7  0092               	movwf	(146)^080h	;volatile
  4515                           	line	1075
  4516                           	
  4517  0EF8                     l3046:	
  4518                           ;PR28.c: 1075: CCPR1L = 50;
  4519  0EF8  3032               	movlw	(032h)
  4520  0EF9  1283               	bcf	status, 5	;RP0=0, select bank0
  4521  0EFA  1303               	bcf	status, 6	;RP1=0, select bank0
  4522  0EFB  0095               	movwf	(21)	;volatile
  4523                           	line	1076
  4524                           	
  4525  0EFC                     l3048:	
  4526                           ;PR28.c: 1076: delay(4000);
  4527  0EFC  3000               	movlw	0
  4528  0EFD  00D5               	movwf	(?_delay+3)
  4529  0EFE  3000               	movlw	0
  4530  0EFF  00D4               	movwf	(?_delay+2)
  4531  0F00  300F               	movlw	0Fh
  4532  0F01  00D3               	movwf	(?_delay+1)
  4533  0F02  30A0               	movlw	0A0h
  4534  0F03  00D2               	movwf	(?_delay)
  4535                           
  4536  0F04  160A  158A  2764   	fcall	_delay
              120A  158A         
  4537                           	line	1077
  4538                           ;PR28.c: 1077: PR2 = 0xB2;
  4539  0F09  30B2               	movlw	(0B2h)
  4540  0F0A  1683               	bsf	status, 5	;RP0=1, select bank1
  4541  0F0B  1303               	bcf	status, 6	;RP1=0, select bank1
  4542  0F0C  0092               	movwf	(146)^080h	;volatile
  4543                           	line	1078
  4544                           ;PR28.c: 1078: CCPR1L = 50;
  4545  0F0D  3032               	movlw	(032h)
  4546  0F0E  1283               	bcf	status, 5	;RP0=0, select bank0
  4547  0F0F  1303               	bcf	status, 6	;RP1=0, select bank0
  4548  0F10  0095               	movwf	(21)	;volatile
  4549                           	line	1079
  4550                           	
  4551  0F11                     l3050:	
  4552                           ;PR28.c: 1079: delay(4000);
  4553  0F11  3000               	movlw	0
  4554  0F12  00D5               	movwf	(?_delay+3)
  4555  0F13  3000               	movlw	0
  4556  0F14  00D4               	movwf	(?_delay+2)
  4557  0F15  300F               	movlw	0Fh
  4558  0F16  00D3               	movwf	(?_delay+1)
  4559  0F17  30A0               	movlw	0A0h
  4560  0F18  00D2               	movwf	(?_delay)
  4561                           
  4562  0F19  160A  158A  2764   	fcall	_delay
              120A  158A         
  4563                           	line	1080
  4564                           	
  4565  0F1E                     l3052:	
  4566                           ;PR28.c: 1080: PR2 = 0xBC;
  4567  0F1E  30BC               	movlw	(0BCh)
  4568  0F1F  1683               	bsf	status, 5	;RP0=1, select bank1
  4569  0F20  1303               	bcf	status, 6	;RP1=0, select bank1
  4570  0F21  0092               	movwf	(146)^080h	;volatile
  4571                           	line	1081
  4572                           	
  4573  0F22                     l3054:	
  4574                           ;PR28.c: 1081: CCPR1L = 50;
  4575  0F22  3032               	movlw	(032h)
  4576  0F23  1283               	bcf	status, 5	;RP0=0, select bank0
  4577  0F24  1303               	bcf	status, 6	;RP1=0, select bank0
  4578  0F25  0095               	movwf	(21)	;volatile
  4579                           	line	1082
  4580                           	
  4581  0F26                     l3056:	
  4582                           ;PR28.c: 1082: delay(4000);
  4583  0F26  3000               	movlw	0
  4584  0F27  00D5               	movwf	(?_delay+3)
  4585  0F28  3000               	movlw	0
  4586  0F29  00D4               	movwf	(?_delay+2)
  4587  0F2A  300F               	movlw	0Fh
  4588  0F2B  00D3               	movwf	(?_delay+1)
  4589  0F2C  30A0               	movlw	0A0h
  4590  0F2D  00D2               	movwf	(?_delay)
  4591                           
  4592  0F2E  160A  158A  2764   	fcall	_delay
              120A  158A         
  4593                           	line	1083
  4594                           ;PR28.c: 1083: PR2 = 0xD3;
  4595  0F33  30D3               	movlw	(0D3h)
  4596  0F34  1683               	bsf	status, 5	;RP0=1, select bank1
  4597  0F35  1303               	bcf	status, 6	;RP1=0, select bank1
  4598  0F36  0092               	movwf	(146)^080h	;volatile
  4599                           	line	1084
  4600                           ;PR28.c: 1084: CCPR1L = 50;
  4601  0F37  3032               	movlw	(032h)
  4602  0F38  1283               	bcf	status, 5	;RP0=0, select bank0
  4603  0F39  1303               	bcf	status, 6	;RP1=0, select bank0
  4604  0F3A  0095               	movwf	(21)	;volatile
  4605                           	line	1085
  4606                           	
  4607  0F3B                     l3058:	
  4608                           ;PR28.c: 1085: delay(4000);
  4609  0F3B  3000               	movlw	0
  4610  0F3C  00D5               	movwf	(?_delay+3)
  4611  0F3D  3000               	movlw	0
  4612  0F3E  00D4               	movwf	(?_delay+2)
  4613  0F3F  300F               	movlw	0Fh
  4614  0F40  00D3               	movwf	(?_delay+1)
  4615  0F41  30A0               	movlw	0A0h
  4616  0F42  00D2               	movwf	(?_delay)
  4617                           
  4618  0F43  160A  158A  2764   	fcall	_delay
              120A  158A         
  4619                           	line	1086
  4620                           	
  4621  0F48                     l3060:	
  4622                           ;PR28.c: 1086: PR2 = 0xEE;
  4623  0F48  30EE               	movlw	(0EEh)
  4624  0F49  1683               	bsf	status, 5	;RP0=1, select bank1
  4625  0F4A  1303               	bcf	status, 6	;RP1=0, select bank1
  4626  0F4B  0092               	movwf	(146)^080h	;volatile
  4627                           	line	1087
  4628                           	
  4629  0F4C                     l3062:	
  4630                           ;PR28.c: 1087: CCPR1L = 50;
  4631  0F4C  3032               	movlw	(032h)
  4632  0F4D  1283               	bcf	status, 5	;RP0=0, select bank0
  4633  0F4E  1303               	bcf	status, 6	;RP1=0, select bank0
  4634  0F4F  0095               	movwf	(21)	;volatile
  4635                           	line	1088
  4636                           	
  4637  0F50                     l3064:	
  4638                           ;PR28.c: 1088: delay(4000);
  4639  0F50  3000               	movlw	0
  4640  0F51  00D5               	movwf	(?_delay+3)
  4641  0F52  3000               	movlw	0
  4642  0F53  00D4               	movwf	(?_delay+2)
  4643  0F54  300F               	movlw	0Fh
  4644  0F55  00D3               	movwf	(?_delay+1)
  4645  0F56  30A0               	movlw	0A0h
  4646  0F57  00D2               	movwf	(?_delay)
  4647                           
  4648  0F58  160A  158A  2764   	fcall	_delay
              120A  158A         
  4649                           	line	1089
  4650                           ;PR28.c: 1089: PR2 = 0xEE;
  4651  0F5D  30EE               	movlw	(0EEh)
  4652  0F5E  1683               	bsf	status, 5	;RP0=1, select bank1
  4653  0F5F  1303               	bcf	status, 6	;RP1=0, select bank1
  4654  0F60  0092               	movwf	(146)^080h	;volatile
  4655                           	line	1090
  4656                           ;PR28.c: 1090: CCPR1L = 50;
  4657  0F61  3032               	movlw	(032h)
  4658  0F62  1283               	bcf	status, 5	;RP0=0, select bank0
  4659  0F63  1303               	bcf	status, 6	;RP1=0, select bank0
  4660  0F64  0095               	movwf	(21)	;volatile
  4661                           	line	1091
  4662                           	
  4663  0F65                     l3066:	
  4664                           ;PR28.c: 1091: delay(4000);
  4665  0F65  3000               	movlw	0
  4666  0F66  00D5               	movwf	(?_delay+3)
  4667  0F67  3000               	movlw	0
  4668  0F68  00D4               	movwf	(?_delay+2)
  4669  0F69  300F               	movlw	0Fh
  4670  0F6A  00D3               	movwf	(?_delay+1)
  4671  0F6B  30A0               	movlw	0A0h
  4672  0F6C  00D2               	movwf	(?_delay)
  4673                           
  4674  0F6D  160A  158A  2764   	fcall	_delay
              120A  158A         
  4675                           	line	1092
  4676                           	
  4677  0F72                     l3068:	
  4678                           ;PR28.c: 1092: PR2 = 0xD3;
  4679  0F72  30D3               	movlw	(0D3h)
  4680  0F73  1683               	bsf	status, 5	;RP0=1, select bank1
  4681  0F74  1303               	bcf	status, 6	;RP1=0, select bank1
  4682  0F75  0092               	movwf	(146)^080h	;volatile
  4683                           	line	1093
  4684                           	
  4685  0F76                     l3070:	
  4686                           ;PR28.c: 1093: CCPR1L = 50;
  4687  0F76  3032               	movlw	(032h)
  4688  0F77  1283               	bcf	status, 5	;RP0=0, select bank0
  4689  0F78  1303               	bcf	status, 6	;RP1=0, select bank0
  4690  0F79  0095               	movwf	(21)	;volatile
  4691                           	line	1094
  4692                           	
  4693  0F7A                     l3072:	
  4694                           ;PR28.c: 1094: delay(4000);
  4695  0F7A  3000               	movlw	0
  4696  0F7B  00D5               	movwf	(?_delay+3)
  4697  0F7C  3000               	movlw	0
  4698  0F7D  00D4               	movwf	(?_delay+2)
  4699  0F7E  300F               	movlw	0Fh
  4700  0F7F  00D3               	movwf	(?_delay+1)
  4701  0F80  30A0               	movlw	0A0h
  4702  0F81  00D2               	movwf	(?_delay)
  4703                           
  4704  0F82  160A  158A  2764   	fcall	_delay
              120A  158A         
  4705                           	line	1095
  4706                           ;PR28.c: 1095: PR2 = 0xBC;
  4707  0F87  30BC               	movlw	(0BCh)
  4708  0F88  1683               	bsf	status, 5	;RP0=1, select bank1
  4709  0F89  1303               	bcf	status, 6	;RP1=0, select bank1
  4710  0F8A  0092               	movwf	(146)^080h	;volatile
  4711                           	line	1096
  4712                           ;PR28.c: 1096: CCPR1L = 50;
  4713  0F8B  3032               	movlw	(032h)
  4714  0F8C  1283               	bcf	status, 5	;RP0=0, select bank0
  4715  0F8D  1303               	bcf	status, 6	;RP1=0, select bank0
  4716  0F8E  0095               	movwf	(21)	;volatile
  4717                           	line	1097
  4718                           	
  4719  0F8F                     l3074:	
  4720                           ;PR28.c: 1097: delay(4000);
  4721  0F8F  3000               	movlw	0
  4722  0F90  00D5               	movwf	(?_delay+3)
  4723  0F91  3000               	movlw	0
  4724  0F92  00D4               	movwf	(?_delay+2)
  4725  0F93  300F               	movlw	0Fh
  4726  0F94  00D3               	movwf	(?_delay+1)
  4727  0F95  30A0               	movlw	0A0h
  4728  0F96  00D2               	movwf	(?_delay)
  4729                           
  4730  0F97  160A  158A  2764   	fcall	_delay
              120A  158A         
  4731                           	line	1098
  4732                           	
  4733  0F9C                     l3076:	
  4734                           ;PR28.c: 1098: PR2 = 0xD3;
  4735  0F9C  30D3               	movlw	(0D3h)
  4736  0F9D  1683               	bsf	status, 5	;RP0=1, select bank1
  4737  0F9E  1303               	bcf	status, 6	;RP1=0, select bank1
  4738  0F9F  0092               	movwf	(146)^080h	;volatile
  4739                           	line	1099
  4740                           	
  4741  0FA0                     l3078:	
  4742                           ;PR28.c: 1099: CCPR1L = 50;
  4743  0FA0  3032               	movlw	(032h)
  4744  0FA1  1283               	bcf	status, 5	;RP0=0, select bank0
  4745  0FA2  1303               	bcf	status, 6	;RP1=0, select bank0
  4746  0FA3  0095               	movwf	(21)	;volatile
  4747                           	line	1100
  4748                           	
  4749  0FA4                     l3080:	
  4750                           ;PR28.c: 1100: delay(4000);
  4751  0FA4  3000               	movlw	0
  4752  0FA5  00D5               	movwf	(?_delay+3)
  4753  0FA6  3000               	movlw	0
  4754  0FA7  00D4               	movwf	(?_delay+2)
  4755  0FA8  300F               	movlw	0Fh
  4756  0FA9  00D3               	movwf	(?_delay+1)
  4757  0FAA  30A0               	movlw	0A0h
  4758  0FAB  00D2               	movwf	(?_delay)
  4759                           
  4760  0FAC  160A  158A  2764   	fcall	_delay
              120A  158A         
  4761                           	line	1101
  4762                           ;PR28.c: 1101: PR2 = 0xEE;
  4763  0FB1  30EE               	movlw	(0EEh)
  4764  0FB2  1683               	bsf	status, 5	;RP0=1, select bank1
  4765  0FB3  1303               	bcf	status, 6	;RP1=0, select bank1
  4766  0FB4  0092               	movwf	(146)^080h	;volatile
  4767                           	line	1102
  4768                           ;PR28.c: 1102: CCPR1L = 50;
  4769  0FB5  3032               	movlw	(032h)
  4770  0FB6  1283               	bcf	status, 5	;RP0=0, select bank0
  4771  0FB7  1303               	bcf	status, 6	;RP1=0, select bank0
  4772  0FB8  0095               	movwf	(21)	;volatile
  4773                           	line	1103
  4774                           	
  4775  0FB9                     l3082:	
  4776                           ;PR28.c: 1103: delay(2000);
  4777  0FB9  3000               	movlw	0
  4778  0FBA  00D5               	movwf	(?_delay+3)
  4779  0FBB  3000               	movlw	0
  4780  0FBC  00D4               	movwf	(?_delay+2)
  4781  0FBD  3007               	movlw	07h
  4782  0FBE  00D3               	movwf	(?_delay+1)
  4783  0FBF  30D0               	movlw	0D0h
  4784  0FC0  00D2               	movwf	(?_delay)
  4785                           
  4786  0FC1  160A  158A  2764   	fcall	_delay
              120A  158A         
  4787                           	line	1104
  4788                           	
  4789  0FC6                     l3084:	
  4790                           ;PR28.c: 1104: PR2 = 0xEE;
  4791  0FC6  30EE               	movlw	(0EEh)
  4792  0FC7  1683               	bsf	status, 5	;RP0=1, select bank1
  4793  0FC8  1303               	bcf	status, 6	;RP1=0, select bank1
  4794  0FC9  0092               	movwf	(146)^080h	;volatile
  4795                           	line	1105
  4796                           	
  4797  0FCA                     l3086:	
  4798                           ;PR28.c: 1105: CCPR1L = 50;
  4799  0FCA  3032               	movlw	(032h)
  4800  0FCB  1283               	bcf	status, 5	;RP0=0, select bank0
  4801  0FCC  1303               	bcf	status, 6	;RP1=0, select bank0
  4802  0FCD  0095               	movwf	(21)	;volatile
  4803                           	line	1106
  4804                           	
  4805  0FCE                     l3088:	
  4806                           ;PR28.c: 1106: delay(8000);
  4807  0FCE  3000               	movlw	0
  4808  0FCF  00D5               	movwf	(?_delay+3)
  4809  0FD0  3000               	movlw	0
  4810  0FD1  00D4               	movwf	(?_delay+2)
  4811  0FD2  301F               	movlw	01Fh
  4812  0FD3  00D3               	movwf	(?_delay+1)
  4813  0FD4  3040               	movlw	040h
  4814  0FD5  00D2               	movwf	(?_delay)
  4815                           
  4816  0FD6  160A  158A  2764   	fcall	_delay
              120A  158A         
  4817                           	line	1108
  4818                           	
  4819  0FDB                     l3090:	
  4820                           ;PR28.c: 1108: CCP1CON = 0x00;
  4821  0FDB  1283               	bcf	status, 5	;RP0=0, select bank0
  4822  0FDC  1303               	bcf	status, 6	;RP1=0, select bank0
  4823  0FDD  0197               	clrf	(23)	;volatile
  4824                           	line	1109
  4825                           	
  4826  0FDE                     l3092:	
  4827                           ;PR28.c: 1109: T2CON=0b01110110;
  4828  0FDE  3076               	movlw	(076h)
  4829  0FDF  0092               	movwf	(18)	;volatile
  4830                           	line	1110
  4831                           	
  4832  0FE0                     l3094:	
  4833                           ;PR28.c: 1110: PR2 = 0xB4;
  4834  0FE0  30B4               	movlw	(0B4h)
  4835  0FE1  1683               	bsf	status, 5	;RP0=1, select bank1
  4836  0FE2  1303               	bcf	status, 6	;RP1=0, select bank1
  4837  0FE3  0092               	movwf	(146)^080h	;volatile
  4838                           	line	1111
  4839                           	
  4840  0FE4                     l3096:	
  4841                           ;PR28.c: 1111: CCPR1L = 0;
  4842  0FE4  1283               	bcf	status, 5	;RP0=0, select bank0
  4843  0FE5  1303               	bcf	status, 6	;RP1=0, select bank0
  4844  0FE6  0195               	clrf	(21)	;volatile
  4845                           	line	1113
  4846                           	
  4847  0FE7                     l3098:	
  4848                           ;PR28.c: 1113: TMR2IF = 0;
  4849  0FE7  108C               	bcf	(97/8),(97)&7	;volatile
  4850                           	line	1114
  4851                           	
  4852  0FE8                     l3100:	
  4853                           ;PR28.c: 1114: TMR2IE = 1;
  4854  0FE8  1683               	bsf	status, 5	;RP0=1, select bank1
  4855  0FE9  1303               	bcf	status, 6	;RP1=0, select bank1
  4856  0FEA  148C               	bsf	(1121/8)^080h,(1121)&7	;volatile
  4857                           	line	1115
  4858                           ;PR28.c: 1115: T1CON = 0b11000101;
  4859  0FEB  30C5               	movlw	(0C5h)
  4860  0FEC  1283               	bcf	status, 5	;RP0=0, select bank0
  4861  0FED  1303               	bcf	status, 6	;RP1=0, select bank0
  4862  0FEE  0090               	movwf	(16)	;volatile
  4863                           	line	1116
  4864                           ;PR28.c: 1116: T1GCON = 0b11100010;
  4865  0FEF  30E2               	movlw	(0E2h)
  4866  0FF0  1683               	bsf	status, 5	;RP0=1, select bank1
  4867  0FF1  1303               	bcf	status, 6	;RP1=0, select bank1
  4868  0FF2  008F               	movwf	(143)^080h	;volatile
  4869                           	line	1117
  4870                           	
  4871  0FF3                     l3102:	
  4872                           ;PR28.c: 1117: TMR1GIF = 0;
  4873  0FF3  1283               	bcf	status, 5	;RP0=0, select bank0
  4874  0FF4  1303               	bcf	status, 6	;RP1=0, select bank0
  4875  0FF5  138C               	bcf	(103/8),(103)&7	;volatile
  4876                           	line	1118
  4877                           	
  4878  0FF6                     l3104:	
  4879                           ;PR28.c: 1118: TMR1GIE = 1;
  4880  0FF6  1683               	bsf	status, 5	;RP0=1, select bank1
  4881  0FF7  1303               	bcf	status, 6	;RP1=0, select bank1
  4882  0FF8  178C               	bsf	(1127/8)^080h,(1127)&7	;volatile
  4883                           	line	1120
  4884                           	
  4885  0FF9                     l3106:	
  4886                           ;PR28.c: 1120: RestartTimer1();
  4887  0FF9  160A  158A  260B   	fcall	_RestartTimer1
              120A  158A         
  4888                           	line	1121
  4889                           	
  4890  0FFE                     l3108:	
  4891                           ;PR28.c: 1121: GIE = 1;
  4892  0FFE  178B               	bsf	(95/8),(95)&7	;volatile
  4893                           	line	1122
  4894                           	
  4895  0FFF                     l607:	
  4896  0FFF  0008               	return
  4897                           	opt stack 0
  4898                           GLOBAL	__end_of_PIEZO_D
  4899  1000                     	__end_of_PIEZO_D:
  4900                           	signat	_PIEZO_D,88
  4901                           	global	_draw
  4902                           
  4903 ;; *************** function _draw *****************
  4904 ;; Defined at:
  4905 ;;		line 914 in file "PR28.c"
  4906 ;; Parameters:    Size  Location     Type
  4907 ;;		None
  4908 ;; Auto vars:     Size  Location     Type
  4909 ;;		None
  4910 ;; Return value:  Size  Location     Type
  4911 ;;		None               void
  4912 ;; Registers used:
  4913 ;;		wreg, fsr0l, fsr0h, fsr1l, fsr1h, status,2, status,0, btemp+1, pclath, cstack
  4914 ;; Tracked objects:
  4915 ;;		On entry : 0/0
  4916 ;;		On exit  : 0/0
  4917 ;;		Unchanged: 0/0
  4918 ;; Data sizes:     COMMON   BANK0   BANK1   BANK3   BANK2
  4919 ;;      Params:         0       0       0       0       0
  4920 ;;      Locals:         0       0       0       0       0
  4921 ;;      Temps:          0       1       0       0       0
  4922 ;;      Totals:         0       1       0       0       0
  4923 ;;Total ram usage:        1 bytes
  4924 ;; Hardware stack levels used:    1
  4925 ;; Hardware stack levels required when called:    5
  4926 ;; This function calls:
  4927 ;;		_led_display1
  4928 ;;		_led_display2
  4929 ;;		_led_display3
  4930 ;;		_delay
  4931 ;;		_led_off
  4932 ;; This function is called by:
  4933 ;;		_main
  4934 ;; This function uses a non-reentrant model
  4935 ;;
  4936                           psect	text668,local,class=CODE,delta=2,merge=1
  4937                           global __ptext668
  4938  1F96                     __ptext668:
  4939                           psect	text668
  4940                           	file	"PR28.c"
  4941                           	line	914
  4942                           	global	__size_of_draw
  4943  006A                     	__size_of_draw	equ	__end_of_draw-_draw
  4944                           	
  4945  1F96                     _draw:	
  4946                           	opt	stack 2
  4947                           ; Regs used in _draw: [allreg]
  4948                           	line	916
  4949                           	
  4950  1F96                     l3110:	
  4951                           ;PR28.c: 916: RC5 = RC6 = RC7 = 1;
  4952  1F96  1283               	bcf	status, 5	;RP0=0, select bank0
  4953  1F97  1303               	bcf	status, 6	;RP1=0, select bank0
  4954  1F98  1787               	bsf	(63/8),(63)&7	;volatile
  4955  1F99  1B87               	btfsc	(63/8),(63)&7	;volatile
  4956  1F9A  2F9C               	goto	u3711
  4957  1F9B  2FA0               	goto	u3710
  4958                           	
  4959  1F9C                     u3711:
  4960  1F9C  1283               	bcf	status, 5	;RP0=0, select bank0
  4961  1F9D  1303               	bcf	status, 6	;RP1=0, select bank0
  4962  1F9E  1707               	bsf	(62/8),(62)&7	;volatile
  4963  1F9F  2FA3               	goto	u3724
  4964  1FA0                     u3710:
  4965  1FA0  1283               	bcf	status, 5	;RP0=0, select bank0
  4966  1FA1  1303               	bcf	status, 6	;RP1=0, select bank0
  4967  1FA2  1307               	bcf	(62/8),(62)&7	;volatile
  4968  1FA3                     u3724:
  4969  1FA3  1B07               	btfsc	(62/8),(62)&7	;volatile
  4970  1FA4  2FA6               	goto	u3721
  4971  1FA5  2FAA               	goto	u3720
  4972                           	
  4973  1FA6                     u3721:
  4974  1FA6  1283               	bcf	status, 5	;RP0=0, select bank0
  4975  1FA7  1303               	bcf	status, 6	;RP1=0, select bank0
  4976  1FA8  1687               	bsf	(61/8),(61)&7	;volatile
  4977  1FA9  2FAD               	goto	u3734
  4978  1FAA                     u3720:
  4979  1FAA  1283               	bcf	status, 5	;RP0=0, select bank0
  4980  1FAB  1303               	bcf	status, 6	;RP1=0, select bank0
  4981  1FAC  1287               	bcf	(61/8),(61)&7	;volatile
  4982  1FAD                     u3734:
  4983                           	line	917
  4984                           	
  4985  1FAD                     l3112:	
  4986                           ;PR28.c: 917: result = 0b00100100;
  4987  1FAD  3024               	movlw	(024h)
  4988  1FAE  00DA               	movwf	(??_draw+0)+0
  4989  1FAF  085A               	movf	(??_draw+0)+0,w
  4990  1FB0  00D1               	movwf	(_result)
  4991                           	line	918
  4992                           	
  4993  1FB1                     l3114:	
  4994                           ;PR28.c: 918: RA6 = RA7 = RA0 = 1;
  4995  1FB1  1405               	bsf	(40/8),(40)&7	;volatile
  4996  1FB2  1805               	btfsc	(40/8),(40)&7	;volatile
  4997  1FB3  2FB5               	goto	u3741
  4998  1FB4  2FB9               	goto	u3740
  4999                           	
  5000  1FB5                     u3741:
  5001  1FB5  1283               	bcf	status, 5	;RP0=0, select bank0
  5002  1FB6  1303               	bcf	status, 6	;RP1=0, select bank0
  5003  1FB7  1785               	bsf	(47/8),(47)&7	;volatile
  5004  1FB8  2FBC               	goto	u3754
  5005  1FB9                     u3740:
  5006  1FB9  1283               	bcf	status, 5	;RP0=0, select bank0
  5007  1FBA  1303               	bcf	status, 6	;RP1=0, select bank0
  5008  1FBB  1385               	bcf	(47/8),(47)&7	;volatile
  5009  1FBC                     u3754:
  5010  1FBC  1B85               	btfsc	(47/8),(47)&7	;volatile
  5011  1FBD  2FBF               	goto	u3751
  5012  1FBE  2FC3               	goto	u3750
  5013                           	
  5014  1FBF                     u3751:
  5015  1FBF  1283               	bcf	status, 5	;RP0=0, select bank0
  5016  1FC0  1303               	bcf	status, 6	;RP1=0, select bank0
  5017  1FC1  1705               	bsf	(46/8),(46)&7	;volatile
  5018  1FC2  2FC6               	goto	u3764
  5019  1FC3                     u3750:
  5020  1FC3  1283               	bcf	status, 5	;RP0=0, select bank0
  5021  1FC4  1303               	bcf	status, 6	;RP1=0, select bank0
  5022  1FC5  1305               	bcf	(46/8),(46)&7	;volatile
  5023  1FC6                     u3764:
  5024                           	line	919
  5025                           	
  5026  1FC6                     l3116:	
  5027                           ;PR28.c: 919: led_display1(result);
  5028  1FC6  0851               	movf	(_result),w
  5029  1FC7  160A  118A  227D   	fcall	_led_display1
              160A  158A         
  5030                           	line	920
  5031                           	
  5032  1FCC                     l3118:	
  5033                           ;PR28.c: 920: led_display2(result);
  5034  1FCC  1283               	bcf	status, 5	;RP0=0, select bank0
  5035  1FCD  1303               	bcf	status, 6	;RP1=0, select bank0
  5036  1FCE  0851               	movf	(_result),w
  5037  1FCF  160A  118A  21F7   	fcall	_led_display2
              160A  158A         
  5038                           	line	921
  5039                           	
  5040  1FD4                     l3120:	
  5041                           ;PR28.c: 921: led_display3(result);
  5042  1FD4  1283               	bcf	status, 5	;RP0=0, select bank0
  5043  1FD5  1303               	bcf	status, 6	;RP1=0, select bank0
  5044  1FD6  0851               	movf	(_result),w
  5045  1FD7  160A  118A  2171   	fcall	_led_display3
              160A  158A         
  5046                           	line	922
  5047                           	
  5048  1FDC                     l3122:	
  5049                           ;PR28.c: 922: delay(3500);
  5050  1FDC  3000               	movlw	0
  5051  1FDD  1283               	bcf	status, 5	;RP0=0, select bank0
  5052  1FDE  1303               	bcf	status, 6	;RP1=0, select bank0
  5053  1FDF  00D5               	movwf	(?_delay+3)
  5054  1FE0  3000               	movlw	0
  5055  1FE1  00D4               	movwf	(?_delay+2)
  5056  1FE2  300D               	movlw	0Dh
  5057  1FE3  00D3               	movwf	(?_delay+1)
  5058  1FE4  30AC               	movlw	0ACh
  5059  1FE5  00D2               	movwf	(?_delay)
  5060                           
  5061  1FE6  160A  158A  2764   	fcall	_delay
              160A  158A         
  5062                           	line	923
  5063                           	
  5064  1FEB                     l3124:	
  5065                           ;PR28.c: 923: led_off();
  5066  1FEB  160A  158A  26F9   	fcall	_led_off
              160A  158A         
  5067                           	line	924
  5068                           	
  5069  1FF0                     l3126:	
  5070                           ;PR28.c: 924: delay(3500);
  5071  1FF0  3000               	movlw	0
  5072  1FF1  1283               	bcf	status, 5	;RP0=0, select bank0
  5073  1FF2  1303               	bcf	status, 6	;RP1=0, select bank0
  5074  1FF3  00D5               	movwf	(?_delay+3)
  5075  1FF4  3000               	movlw	0
  5076  1FF5  00D4               	movwf	(?_delay+2)
  5077  1FF6  300D               	movlw	0Dh
  5078  1FF7  00D3               	movwf	(?_delay+1)
  5079  1FF8  30AC               	movlw	0ACh
  5080  1FF9  00D2               	movwf	(?_delay)
  5081                           
  5082  1FFA  160A  158A  2764   	fcall	_delay
              160A  158A         
  5083                           	line	925
  5084                           	
  5085  1FFF                     l598:	
  5086  1FFF  0008               	return
  5087                           	opt stack 0
  5088                           GLOBAL	__end_of_draw
  5089  2000                     	__end_of_draw:
  5090                           	signat	_draw,88
  5091                           	global	_led_off
  5092                           
  5093 ;; *************** function _led_off *****************
  5094 ;; Defined at:
  5095 ;;		line 932 in file "PR28.c"
  5096 ;; Parameters:    Size  Location     Type
  5097 ;;		None
  5098 ;; Auto vars:     Size  Location     Type
  5099 ;;		None
  5100 ;; Return value:  Size  Location     Type
  5101 ;;		None               void
  5102 ;; Registers used:
  5103 ;;		wreg, status,2, status,0, pclath, cstack
  5104 ;; Tracked objects:
  5105 ;;		On entry : 0/0
  5106 ;;		On exit  : 0/0
  5107 ;;		Unchanged: 0/0
  5108 ;; Data sizes:     COMMON   BANK0   BANK1   BANK3   BANK2
  5109 ;;      Params:         0       0       0       0       0
  5110 ;;      Locals:         0       0       0       0       0
  5111 ;;      Temps:          0       0       0       0       0
  5112 ;;      Totals:         0       0       0       0       0
  5113 ;;Total ram usage:        0 bytes
  5114 ;; Hardware stack levels used:    1
  5115 ;; Hardware stack levels required when called:    4
  5116 ;; This function calls:
  5117 ;;		_led_display1
  5118 ;;		_led_display2
  5119 ;;		_led_display3
  5120 ;; This function is called by:
  5121 ;;		_Init
  5122 ;;		_draw
  5123 ;; This function uses a non-reentrant model
  5124 ;;
  5125                           psect	text669,local,class=CODE,delta=2,merge=1
  5126                           global __ptext669
  5127  1EF9                     __ptext669:
  5128                           psect	text669
  5129                           	file	"PR28.c"
  5130                           	line	932
  5131                           	global	__size_of_led_off
  5132  0020                     	__size_of_led_off	equ	__end_of_led_off-_led_off
  5133                           	
  5134  1EF9                     _led_off:	
  5135                           	opt	stack 2
  5136                           ; Regs used in _led_off: [wreg+status,2+status,0+pclath+cstack]
  5137                           	line	933
  5138                           	
  5139  1EF9                     l3128:	
  5140                           ;PR28.c: 933: result = 0b00000000;
  5141  1EF9  1283               	bcf	status, 5	;RP0=0, select bank0
  5142  1EFA  1303               	bcf	status, 6	;RP1=0, select bank0
  5143  1EFB  01D1               	clrf	(_result)
  5144                           	line	934
  5145                           ;PR28.c: 934: RA6 = RA7 = RA0 = 0;
  5146  1EFC  1005               	bcf	(40/8),(40)&7	;volatile
  5147  1EFD  1385               	bcf	(47/8),(47)&7	;volatile
  5148  1EFE  1305               	bcf	(46/8),(46)&7	;volatile
  5149                           	line	935
  5150                           ;PR28.c: 935: RC5 = RC6 = RC7 = 0;
  5151  1EFF  1387               	bcf	(63/8),(63)&7	;volatile
  5152  1F00  1307               	bcf	(62/8),(62)&7	;volatile
  5153  1F01  1287               	bcf	(61/8),(61)&7	;volatile
  5154                           	line	936
  5155                           	
  5156  1F02                     l3130:	
  5157                           ;PR28.c: 936: led_display1(result);
  5158  1F02  0851               	movf	(_result),w
  5159  1F03  160A  118A  227D   	fcall	_led_display1
              160A  158A         
  5160                           	line	937
  5161                           ;PR28.c: 937: led_display2(result);
  5162  1F08  1283               	bcf	status, 5	;RP0=0, select bank0
  5163  1F09  1303               	bcf	status, 6	;RP1=0, select bank0
  5164  1F0A  0851               	movf	(_result),w
  5165  1F0B  160A  118A  21F7   	fcall	_led_display2
              160A  158A         
  5166                           	line	938
  5167                           ;PR28.c: 938: led_display3(result);
  5168  1F10  1283               	bcf	status, 5	;RP0=0, select bank0
  5169  1F11  1303               	bcf	status, 6	;RP1=0, select bank0
  5170  1F12  0851               	movf	(_result),w
  5171  1F13  160A  118A  2171   	fcall	_led_display3
              160A  158A         
  5172                           	line	939
  5173                           	
  5174  1F18                     l601:	
  5175  1F18  0008               	return
  5176                           	opt stack 0
  5177                           GLOBAL	__end_of_led_off
  5178  1F19                     	__end_of_led_off:
  5179                           	signat	_led_off,88
  5180                           	global	_CapInit
  5181                           
  5182 ;; *************** function _CapInit *****************
  5183 ;; Defined at:
  5184 ;;		line 235 in file "PR28.c"
  5185 ;; Parameters:    Size  Location     Type
  5186 ;;		None
  5187 ;; Auto vars:     Size  Location     Type
  5188 ;;  j               2   11[BANK0 ] int 
  5189 ;;  i               2    9[BANK0 ] int 
  5190 ;; Return value:  Size  Location     Type
  5191 ;;		None               void
  5192 ;; Registers used:
  5193 ;;		wreg, fsr0l, fsr0h, status,2, status,0, btemp+1, pclath, cstack
  5194 ;; Tracked objects:
  5195 ;;		On entry : 0/0
  5196 ;;		On exit  : 0/0
  5197 ;;		Unchanged: 0/0
  5198 ;; Data sizes:     COMMON   BANK0   BANK1   BANK3   BANK2
  5199 ;;      Params:         0       0       0       0       0
  5200 ;;      Locals:         0       4       0       0       0
  5201 ;;      Temps:          0       5       0       0       0
  5202 ;;      Totals:         0       9       0       0       0
  5203 ;;Total ram usage:        9 bytes
  5204 ;; Hardware stack levels used:    1
  5205 ;; Hardware stack levels required when called:    4
  5206 ;; This function calls:
  5207 ;;		___bmul
  5208 ;; This function is called by:
  5209 ;;		_Init
  5210 ;; This function uses a non-reentrant model
  5211 ;;
  5212                           psect	text670,local,class=CODE,delta=2,merge=1
  5213                           global __ptext670
  5214  074D                     __ptext670:
  5215                           psect	text670
  5216                           	file	"PR28.c"
  5217                           	line	235
  5218                           	global	__size_of_CapInit
  5219  00B2                     	__size_of_CapInit	equ	__end_of_CapInit-_CapInit
  5220                           	
  5221  074D                     _CapInit:	
  5222                           	opt	stack 2
  5223                           ; Regs used in _CapInit: [wreg-fsr0h+status,2+status,0+btemp+1+pclath+cstack]
  5224                           	line	238
  5225                           	
  5226  074D                     l3132:	
  5227                           ;PR28.c: 238: for (index=0; index<9; index++) {
  5228  074D  1283               	bcf	status, 5	;RP0=0, select bank0
  5229  074E  1303               	bcf	status, 6	;RP1=0, select bank0
  5230  074F  01D0               	clrf	(_index)
  5231                           	
  5232  0750                     l3134:	
  5233  0750  3009               	movlw	(09h)
  5234  0751  0250               	subwf	(_index),w
  5235  0752  1C03               	skipc
  5236  0753  2F55               	goto	u3771
  5237  0754  2F56               	goto	u3770
  5238  0755                     u3771:
  5239  0755  2F58               	goto	l3138
  5240  0756                     u3770:
  5241  0756  2F78               	goto	l3144
  5242                           	
  5243  0757                     l3136:	
  5244  0757  2F78               	goto	l3144
  5245                           	
  5246  0758                     l203:	
  5247                           	line	239
  5248                           	
  5249  0758                     l3138:	
  5250                           ;PR28.c: 239: average[index] = 0;
  5251  0758  0850               	movf	(_index),w
  5252  0759  00D6               	movwf	(??_CapInit+0)+0
  5253  075A  0756               	addwf	(??_CapInit+0)+0,w
  5254  075B  3E20               	addlw	_average&0ffh
  5255  075C  0084               	movwf	fsr0
  5256  075D  3000               	movlw	low(0)
  5257  075E  1383               	bcf	status, 7	;select IRP bank0
  5258  075F  0080               	movwf	indf
  5259  0760  0A84               	incf	fsr0,f
  5260  0761  3000               	movlw	high(0)
  5261  0762  0080               	movwf	indf
  5262                           	line	240
  5263                           ;PR28.c: 240: reading[index] = 0;
  5264  0763  0850               	movf	(_index),w
  5265  0764  00D6               	movwf	(??_CapInit+0)+0
  5266  0765  0756               	addwf	(??_CapInit+0)+0,w
  5267  0766  3EA0               	addlw	_reading&0ffh
  5268  0767  0084               	movwf	fsr0
  5269  0768  3000               	movlw	low(0)
  5270  0769  0080               	movwf	indf
  5271  076A  0A84               	incf	fsr0,f
  5272  076B  3000               	movlw	high(0)
  5273  076C  0080               	movwf	indf
  5274                           	line	238
  5275                           	
  5276  076D                     l3140:	
  5277  076D  3001               	movlw	(01h)
  5278  076E  00D6               	movwf	(??_CapInit+0)+0
  5279  076F  0856               	movf	(??_CapInit+0)+0,w
  5280  0770  07D0               	addwf	(_index),f
  5281                           	
  5282  0771                     l3142:	
  5283  0771  3009               	movlw	(09h)
  5284  0772  0250               	subwf	(_index),w
  5285  0773  1C03               	skipc
  5286  0774  2F76               	goto	u3781
  5287  0775  2F77               	goto	u3780
  5288  0776                     u3781:
  5289  0776  2F58               	goto	l3138
  5290  0777                     u3780:
  5291  0777  2F78               	goto	l3144
  5292                           	
  5293  0778                     l204:	
  5294                           	line	242
  5295                           	
  5296  0778                     l3144:	
  5297                           ;PR28.c: 241: }
  5298                           ;PR28.c: 242: for(int i=0; i<3; i++){
  5299  0778  01DB               	clrf	(CapInit@i)
  5300  0779  01DC               	clrf	(CapInit@i+1)
  5301                           	
  5302  077A                     l3146:	
  5303  077A  085C               	movf	(CapInit@i+1),w
  5304  077B  3A80               	xorlw	80h
  5305  077C  00FF               	movwf	btemp+1
  5306  077D  3080               	movlw	(high(03h))^80h
  5307  077E  027F               	subwf	btemp+1,w
  5308  077F  1D03               	skipz
  5309  0780  2F83               	goto	u3795
  5310  0781  3003               	movlw	low(03h)
  5311  0782  025B               	subwf	(CapInit@i),w
  5312  0783                     u3795:
  5313                           
  5314  0783  1C03               	skipc
  5315  0784  2F86               	goto	u3791
  5316  0785  2F87               	goto	u3790
  5317  0786                     u3791:
  5318  0786  2F89               	goto	l3150
  5319  0787                     u3790:
  5320  0787  2FE2               	goto	l3166
  5321                           	
  5322  0788                     l3148:	
  5323  0788  2FE2               	goto	l3166
  5324                           	
  5325  0789                     l205:	
  5326                           	line	243
  5327                           	
  5328  0789                     l3150:	
  5329                           ;PR28.c: 243: for(int j=0; j<3; j++){
  5330  0789  1283               	bcf	status, 5	;RP0=0, select bank0
  5331  078A  1303               	bcf	status, 6	;RP1=0, select bank0
  5332  078B  01DD               	clrf	(CapInit@j)
  5333  078C  01DE               	clrf	(CapInit@j+1)
  5334                           	
  5335  078D                     l3152:	
  5336  078D  085E               	movf	(CapInit@j+1),w
  5337  078E  3A80               	xorlw	80h
  5338  078F  00FF               	movwf	btemp+1
  5339  0790  3080               	movlw	(high(03h))^80h
  5340  0791  027F               	subwf	btemp+1,w
  5341  0792  1D03               	skipz
  5342  0793  2F96               	goto	u3805
  5343  0794  3003               	movlw	low(03h)
  5344  0795  025D               	subwf	(CapInit@j),w
  5345  0796                     u3805:
  5346                           
  5347  0796  1C03               	skipc
  5348  0797  2F99               	goto	u3801
  5349  0798  2F9A               	goto	u3800
  5350  0799                     u3801:
  5351  0799  2F9C               	goto	l3156
  5352  079A                     u3800:
  5353  079A  2FCC               	goto	l3162
  5354                           	
  5355  079B                     l3154:	
  5356  079B  2FCC               	goto	l3162
  5357                           	
  5358  079C                     l207:	
  5359                           	line	244
  5360                           	
  5361  079C                     l3156:	
  5362                           ;PR28.c: 244: matrix[i][j] = ' ';
  5363  079C  3020               	movlw	(020h)
  5364  079D  1283               	bcf	status, 5	;RP0=0, select bank0
  5365  079E  1303               	bcf	status, 6	;RP1=0, select bank0
  5366  079F  00D6               	movwf	(??_CapInit+0)+0
  5367  07A0  3003               	movlw	(03h)
  5368  07A1  00D7               	movwf	(??_CapInit+1)+0
  5369  07A2  0857               	movf	(??_CapInit+1)+0,w
  5370  07A3  00D2               	movwf	(?___bmul)
  5371  07A4  085B               	movf	(CapInit@i),w
  5372  07A5  160A  158A  26A9   	fcall	___bmul
              120A  118A         
  5373  07AA  1283               	bcf	status, 5	;RP0=0, select bank0
  5374  07AB  1303               	bcf	status, 6	;RP1=0, select bank0
  5375  07AC  00D8               	movwf	(??_CapInit+2)+0
  5376  07AD  303B               	movlw	(_matrix)&0ffh
  5377  07AE  0758               	addwf	0+(??_CapInit+2)+0,w
  5378  07AF  00D9               	movwf	(??_CapInit+3)+0
  5379  07B0  085D               	movf	(CapInit@j),w
  5380  07B1  0759               	addwf	0+(??_CapInit+3)+0,w
  5381  07B2  00DA               	movwf	(??_CapInit+4)+0
  5382  07B3  085A               	movf	0+(??_CapInit+4)+0,w
  5383  07B4  0084               	movwf	fsr0
  5384  07B5  0856               	movf	(??_CapInit+0)+0,w
  5385  07B6  1383               	bcf	status, 7	;select IRP bank0
  5386  07B7  0080               	movwf	indf
  5387                           	line	243
  5388                           	
  5389  07B8                     l3158:	
  5390  07B8  3001               	movlw	low(01h)
  5391  07B9  07DD               	addwf	(CapInit@j),f
  5392  07BA  1803               	skipnc
  5393  07BB  0ADE               	incf	(CapInit@j+1),f
  5394  07BC  3000               	movlw	high(01h)
  5395  07BD  07DE               	addwf	(CapInit@j+1),f
  5396                           	
  5397  07BE                     l3160:	
  5398  07BE  085E               	movf	(CapInit@j+1),w
  5399  07BF  3A80               	xorlw	80h
  5400  07C0  00FF               	movwf	btemp+1
  5401  07C1  3080               	movlw	(high(03h))^80h
  5402  07C2  027F               	subwf	btemp+1,w
  5403  07C3  1D03               	skipz
  5404  07C4  2FC7               	goto	u3815
  5405  07C5  3003               	movlw	low(03h)
  5406  07C6  025D               	subwf	(CapInit@j),w
  5407  07C7                     u3815:
  5408                           
  5409  07C7  1C03               	skipc
  5410  07C8  2FCA               	goto	u3811
  5411  07C9  2FCB               	goto	u3810
  5412  07CA                     u3811:
  5413  07CA  2F9C               	goto	l3156
  5414  07CB                     u3810:
  5415  07CB  2FCC               	goto	l3162
  5416                           	
  5417  07CC                     l208:	
  5418                           	line	242
  5419                           	
  5420  07CC                     l3162:	
  5421  07CC  3001               	movlw	low(01h)
  5422  07CD  1283               	bcf	status, 5	;RP0=0, select bank0
  5423  07CE  1303               	bcf	status, 6	;RP1=0, select bank0
  5424  07CF  07DB               	addwf	(CapInit@i),f
  5425  07D0  1803               	skipnc
  5426  07D1  0ADC               	incf	(CapInit@i+1),f
  5427  07D2  3000               	movlw	high(01h)
  5428  07D3  07DC               	addwf	(CapInit@i+1),f
  5429                           	
  5430  07D4                     l3164:	
  5431  07D4  085C               	movf	(CapInit@i+1),w
  5432  07D5  3A80               	xorlw	80h
  5433  07D6  00FF               	movwf	btemp+1
  5434  07D7  3080               	movlw	(high(03h))^80h
  5435  07D8  027F               	subwf	btemp+1,w
  5436  07D9  1D03               	skipz
  5437  07DA  2FDD               	goto	u3825
  5438  07DB  3003               	movlw	low(03h)
  5439  07DC  025B               	subwf	(CapInit@i),w
  5440  07DD                     u3825:
  5441                           
  5442  07DD  1C03               	skipc
  5443  07DE  2FE0               	goto	u3821
  5444  07DF  2FE1               	goto	u3820
  5445  07E0                     u3821:
  5446  07E0  2F89               	goto	l3150
  5447  07E1                     u3820:
  5448  07E1  2FE2               	goto	l3166
  5449                           	
  5450  07E2                     l206:	
  5451                           	line	252
  5452                           	
  5453  07E2                     l3166:	
  5454                           ;PR28.c: 245: }
  5455                           ;PR28.c: 246: }
  5456                           ;PR28.c: 252: T2CON = 0b01110110;
  5457  07E2  3076               	movlw	(076h)
  5458  07E3  1283               	bcf	status, 5	;RP0=0, select bank0
  5459  07E4  1303               	bcf	status, 6	;RP1=0, select bank0
  5460  07E5  0092               	movwf	(18)	;volatile
  5461                           	line	253
  5462                           ;PR28.c: 253: PR2 = 0xB4;
  5463  07E6  30B4               	movlw	(0B4h)
  5464  07E7  1683               	bsf	status, 5	;RP0=1, select bank1
  5465  07E8  1303               	bcf	status, 6	;RP1=0, select bank1
  5466  07E9  0092               	movwf	(146)^080h	;volatile
  5467                           	line	254
  5468                           	
  5469  07EA                     l3168:	
  5470                           ;PR28.c: 254: TMR2IF = 0;
  5471  07EA  1283               	bcf	status, 5	;RP0=0, select bank0
  5472  07EB  1303               	bcf	status, 6	;RP1=0, select bank0
  5473  07EC  108C               	bcf	(97/8),(97)&7	;volatile
  5474                           	line	255
  5475                           	
  5476  07ED                     l3170:	
  5477                           ;PR28.c: 255: TMR2IE = 1;
  5478  07ED  1683               	bsf	status, 5	;RP0=1, select bank1
  5479  07EE  1303               	bcf	status, 6	;RP1=0, select bank1
  5480  07EF  148C               	bsf	(1121/8)^080h,(1121)&7	;volatile
  5481                           	line	256
  5482                           ;PR28.c: 256: T1CON = 0b11000101;
  5483  07F0  30C5               	movlw	(0C5h)
  5484  07F1  1283               	bcf	status, 5	;RP0=0, select bank0
  5485  07F2  1303               	bcf	status, 6	;RP1=0, select bank0
  5486  07F3  0090               	movwf	(16)	;volatile
  5487                           	line	257
  5488                           ;PR28.c: 257: T1GCON = 0b11100010;
  5489  07F4  30E2               	movlw	(0E2h)
  5490  07F5  1683               	bsf	status, 5	;RP0=1, select bank1
  5491  07F6  1303               	bcf	status, 6	;RP1=0, select bank1
  5492  07F7  008F               	movwf	(143)^080h	;volatile
  5493                           	line	258
  5494                           	
  5495  07F8                     l3172:	
  5496                           ;PR28.c: 258: TMR1GIF = 0;
  5497  07F8  1283               	bcf	status, 5	;RP0=0, select bank0
  5498  07F9  1303               	bcf	status, 6	;RP1=0, select bank0
  5499  07FA  138C               	bcf	(103/8),(103)&7	;volatile
  5500                           	line	259
  5501                           	
  5502  07FB                     l3174:	
  5503                           ;PR28.c: 259: TMR1GIE = 1;
  5504  07FB  1683               	bsf	status, 5	;RP0=1, select bank1
  5505  07FC  1303               	bcf	status, 6	;RP1=0, select bank1
  5506  07FD  178C               	bsf	(1127/8)^080h,(1127)&7	;volatile
  5507                           	line	261
  5508                           	
  5509  07FE                     l209:	
  5510  07FE  0008               	return
  5511                           	opt stack 0
  5512                           GLOBAL	__end_of_CapInit
  5513  07FF                     	__end_of_CapInit:
  5514                           	signat	_CapInit,88
  5515                           	global	_player_1
  5516                           
  5517 ;; *************** function _player_1 *****************
  5518 ;; Defined at:
  5519 ;;		line 305 in file "PR28.c"
  5520 ;; Parameters:    Size  Location     Type
  5521 ;;		None
  5522 ;; Auto vars:     Size  Location     Type
  5523 ;;		None
  5524 ;; Return value:  Size  Location     Type
  5525 ;;		None               void
  5526 ;; Registers used:
  5527 ;;		wreg, fsr0l, fsr0h, fsr1l, fsr1h, status,2, status,0, btemp+1, pclath, cstack
  5528 ;; Tracked objects:
  5529 ;;		On entry : 0/0
  5530 ;;		On exit  : 0/0
  5531 ;;		Unchanged: 0/0
  5532 ;; Data sizes:     COMMON   BANK0   BANK1   BANK3   BANK2
  5533 ;;      Params:         0       0       0       0       0
  5534 ;;      Locals:         0       0       0       0       0
  5535 ;;      Temps:          0       0       0       0       0
  5536 ;;      Totals:         0       0       0       0       0
  5537 ;;Total ram usage:        0 bytes
  5538 ;; Hardware stack levels used:    1
  5539 ;; Hardware stack levels required when called:    6
  5540 ;; This function calls:
  5541 ;;		_checkstatus
  5542 ;; This function is called by:
  5543 ;;		_checkflag
  5544 ;; This function uses a non-reentrant model
  5545 ;;
  5546                           psect	text671,local,class=CODE,delta=2,merge=1
  5547                           global __ptext671
  5548  1E14                     __ptext671:
  5549                           psect	text671
  5550                           	file	"PR28.c"
  5551                           	line	305
  5552                           	global	__size_of_player_1
  5553  000F                     	__size_of_player_1	equ	__end_of_player_1-_player_1
  5554                           	
  5555  1E14                     _player_1:	
  5556                           	opt	stack 0
  5557                           ; Regs used in _player_1: [allreg]
  5558                           	line	306
  5559                           	
  5560  1E14                     l3176:	
  5561                           ;PR28.c: 306: while(flag == 0){
  5562  1E14  2E1B               	goto	l3180
  5563                           	
  5564  1E15                     l227:	
  5565                           	line	307
  5566                           	
  5567  1E15                     l3178:	
  5568                           ;PR28.c: 307: checkstatus();
  5569  1E15  120A  158A  2361   	fcall	_checkstatus
              160A  158A         
  5570  1E1A  2E1B               	goto	l3180
  5571                           	line	308
  5572                           	
  5573  1E1B                     l226:	
  5574                           	line	306
  5575                           	
  5576  1E1B                     l3180:	
  5577  1E1B  1283               	bcf	status, 5	;RP0=0, select bank0
  5578  1E1C  1303               	bcf	status, 6	;RP1=0, select bank0
  5579  1E1D  084F               	movf	(_flag),w
  5580  1E1E  1D03               	skipz
  5581  1E1F  2E21               	goto	u3830
  5582  1E20  2E15               	goto	l3178
  5583  1E21                     u3830:
  5584  1E21  2E22               	goto	l229
  5585                           	
  5586  1E22                     l228:	
  5587                           	line	310
  5588                           	
  5589  1E22                     l229:	
  5590  1E22  0008               	return
  5591                           	opt stack 0
  5592                           GLOBAL	__end_of_player_1
  5593  1E23                     	__end_of_player_1:
  5594                           	signat	_player_1,88
  5595                           	global	_player_2
  5596                           
  5597 ;; *************** function _player_2 *****************
  5598 ;; Defined at:
  5599 ;;		line 318 in file "PR28.c"
  5600 ;; Parameters:    Size  Location     Type
  5601 ;;		None
  5602 ;; Auto vars:     Size  Location     Type
  5603 ;;		None
  5604 ;; Return value:  Size  Location     Type
  5605 ;;		None               void
  5606 ;; Registers used:
  5607 ;;		wreg, fsr0l, fsr0h, fsr1l, fsr1h, status,2, status,0, btemp+1, pclath, cstack
  5608 ;; Tracked objects:
  5609 ;;		On entry : 0/0
  5610 ;;		On exit  : 0/0
  5611 ;;		Unchanged: 0/0
  5612 ;; Data sizes:     COMMON   BANK0   BANK1   BANK3   BANK2
  5613 ;;      Params:         0       0       0       0       0
  5614 ;;      Locals:         0       0       0       0       0
  5615 ;;      Temps:          0       0       0       0       0
  5616 ;;      Totals:         0       0       0       0       0
  5617 ;;Total ram usage:        0 bytes
  5618 ;; Hardware stack levels used:    1
  5619 ;; Hardware stack levels required when called:    6
  5620 ;; This function calls:
  5621 ;;		_checkstatus
  5622 ;; This function is called by:
  5623 ;;		_checkflag
  5624 ;; This function uses a non-reentrant model
  5625 ;;
  5626                           psect	text672,local,class=CODE,delta=2,merge=1
  5627                           global __ptext672
  5628  1E23                     __ptext672:
  5629                           psect	text672
  5630                           	file	"PR28.c"
  5631                           	line	318
  5632                           	global	__size_of_player_2
  5633  0011                     	__size_of_player_2	equ	__end_of_player_2-_player_2
  5634                           	
  5635  1E23                     _player_2:	
  5636                           	opt	stack 0
  5637                           ; Regs used in _player_2: [allreg]
  5638                           	line	319
  5639                           	
  5640  1E23                     l3182:	
  5641                           ;PR28.c: 319: while (flag == 1){
  5642  1E23  2E2A               	goto	l3186
  5643                           	
  5644  1E24                     l233:	
  5645                           	line	320
  5646                           	
  5647  1E24                     l3184:	
  5648                           ;PR28.c: 320: checkstatus();
  5649  1E24  120A  158A  2361   	fcall	_checkstatus
              160A  158A         
  5650  1E29  2E2A               	goto	l3186
  5651                           	line	321
  5652                           	
  5653  1E2A                     l232:	
  5654                           	line	319
  5655                           	
  5656  1E2A                     l3186:	
  5657  1E2A  1283               	bcf	status, 5	;RP0=0, select bank0
  5658  1E2B  1303               	bcf	status, 6	;RP1=0, select bank0
  5659  1E2C  084F               	movf	(_flag),w
  5660  1E2D  3A01               	xorlw	01h
  5661  1E2E  1903               	skipnz
  5662  1E2F  2E31               	goto	u3841
  5663  1E30  2E32               	goto	u3840
  5664  1E31                     u3841:
  5665  1E31  2E24               	goto	l3184
  5666  1E32                     u3840:
  5667  1E32  2E33               	goto	l235
  5668                           	
  5669  1E33                     l234:	
  5670                           	line	322
  5671                           	
  5672  1E33                     l235:	
  5673  1E33  0008               	return
  5674                           	opt stack 0
  5675                           GLOBAL	__end_of_player_2
  5676  1E34                     	__end_of_player_2:
  5677                           	signat	_player_2,88
  5678                           	global	_checkstatus
  5679                           
  5680 ;; *************** function _checkstatus *****************
  5681 ;; Defined at:
  5682 ;;		line 362 in file "PR28.c"
  5683 ;; Parameters:    Size  Location     Type
  5684 ;;		None
  5685 ;; Auto vars:     Size  Location     Type
  5686 ;;		None
  5687 ;; Return value:  Size  Location     Type
  5688 ;;		None               void
  5689 ;; Registers used:
  5690 ;;		wreg, fsr0l, fsr0h, fsr1l, fsr1h, status,2, status,0, btemp+1, pclath, cstack
  5691 ;; Tracked objects:
  5692 ;;		On entry : 0/0
  5693 ;;		On exit  : 0/0
  5694 ;;		Unchanged: 0/0
  5695 ;; Data sizes:     COMMON   BANK0   BANK1   BANK3   BANK2
  5696 ;;      Params:         0       0       0       0       0
  5697 ;;      Locals:         0       0       0       0       0
  5698 ;;      Temps:          0       0       0       0       0
  5699 ;;      Totals:         0       0       0       0       0
  5700 ;;Total ram usage:        0 bytes
  5701 ;; Hardware stack levels used:    1
  5702 ;; Hardware stack levels required when called:    5
  5703 ;; This function calls:
  5704 ;;		_store
  5705 ;;		_DisplayLEDs
  5706 ;; This function is called by:
  5707 ;;		_player_1
  5708 ;;		_player_2
  5709 ;; This function uses a non-reentrant model
  5710 ;;
  5711                           psect	text673,local,class=CODE,delta=2,merge=1
  5712                           global __ptext673
  5713  0B61                     __ptext673:
  5714                           psect	text673
  5715                           	file	"PR28.c"
  5716                           	line	362
  5717                           	global	__size_of_checkstatus
  5718  01FB                     	__size_of_checkstatus	equ	__end_of_checkstatus-_checkstatus
  5719                           	
  5720  0B61                     _checkstatus:	
  5721                           	opt	stack 0
  5722                           ; Regs used in _checkstatus: [allreg]
  5723                           	line	363
  5724                           	
  5725  0B61                     l3188:	
  5726                           ;PR28.c: 363: if(Buttons.BTN0 ==1){
  5727  0B61  1283               	bcf	status, 5	;RP0=0, select bank0
  5728  0B62  1303               	bcf	status, 6	;RP1=0, select bank0
  5729  0B63  0832               	movf	(_Buttons),w
  5730  0B64  3A01               	xorlw	01h
  5731  0B65  1D03               	skipz
  5732  0B66  2B68               	goto	u3851
  5733  0B67  2B69               	goto	u3850
  5734  0B68                     u3851:
  5735  0B68  2B9B               	goto	l3208
  5736  0B69                     u3850:
  5737                           	line	364
  5738                           	
  5739  0B69                     l3190:	
  5740                           ;PR28.c: 364: if (matrix[0][0] =='X' | matrix[0][0] == 'O')
  5741  0B69  083B               	movf	(_matrix),w
  5742  0B6A  3A58               	xorlw	058h
  5743  0B6B  1903               	skipnz
  5744  0B6C  2B6E               	goto	u3861
  5745  0B6D  2B6F               	goto	u3860
  5746  0B6E                     u3861:
  5747  0B6E  2B76               	goto	l3194
  5748  0B6F                     u3860:
  5749                           	
  5750  0B6F                     l3192:	
  5751  0B6F  083B               	movf	(_matrix),w
  5752  0B70  3A4F               	xorlw	04Fh
  5753  0B71  1D03               	skipz
  5754  0B72  2B74               	goto	u3871
  5755  0B73  2B75               	goto	u3870
  5756  0B74                     u3871:
  5757  0B74  2B82               	goto	l3200
  5758  0B75                     u3870:
  5759  0B75  2B76               	goto	l3194
  5760                           	
  5761  0B76                     l265:	
  5762                           	line	365
  5763                           	
  5764  0B76                     l3194:	
  5765                           ;PR28.c: 365: { if(flag==0){flag = 0;}
  5766  0B76  08CF               	movf	(_flag),f
  5767  0B77  1D03               	skipz
  5768  0B78  2B7A               	goto	u3881
  5769  0B79  2B7B               	goto	u3880
  5770  0B7A                     u3881:
  5771  0B7A  2B7D               	goto	l3198
  5772  0B7B                     u3880:
  5773                           	
  5774  0B7B                     l3196:	
  5775  0B7B  01CF               	clrf	(_flag)
  5776  0B7C  2B9B               	goto	l3208
  5777                           	line	366
  5778                           	
  5779  0B7D                     l266:	
  5780                           	line	367
  5781                           	
  5782  0B7D                     l3198:	
  5783                           ;PR28.c: 366: else
  5784                           ;PR28.c: 367: flag = 1;
  5785  0B7D  01CF               	clrf	(_flag)
  5786  0B7E  1403               	bsf	status,0
  5787  0B7F  0DCF               	rlf	(_flag),f
  5788  0B80  2B9B               	goto	l3208
  5789                           	
  5790  0B81                     l267:	
  5791                           	line	368
  5792                           ;PR28.c: 368: }else {
  5793  0B81  2B9B               	goto	l3208
  5794                           	
  5795  0B82                     l263:	
  5796                           	line	369
  5797                           	
  5798  0B82                     l3200:	
  5799                           ;PR28.c: 369: store();
  5800  0B82  160A  118A  2303   	fcall	_store
              120A  158A         
  5801                           	line	370
  5802                           	
  5803  0B87                     l3202:	
  5804                           ;PR28.c: 370: DisplayLEDs();
  5805  0B87  160A  118A  24A0   	fcall	_DisplayLEDs
              120A  158A         
  5806                           	line	371
  5807                           	
  5808  0B8C                     l3204:	
  5809                           ;PR28.c: 371: if(flag ==0){flag = 1;}
  5810  0B8C  1283               	bcf	status, 5	;RP0=0, select bank0
  5811  0B8D  1303               	bcf	status, 6	;RP1=0, select bank0
  5812  0B8E  08CF               	movf	(_flag),f
  5813  0B8F  1D03               	skipz
  5814  0B90  2B92               	goto	u3891
  5815  0B91  2B93               	goto	u3890
  5816  0B92                     u3891:
  5817  0B92  2B97               	goto	l269
  5818  0B93                     u3890:
  5819                           	
  5820  0B93                     l3206:	
  5821  0B93  01CF               	clrf	(_flag)
  5822  0B94  1403               	bsf	status,0
  5823  0B95  0DCF               	rlf	(_flag),f
  5824  0B96  2B9B               	goto	l3208
  5825                           	line	372
  5826                           	
  5827  0B97                     l269:	
  5828                           	line	373
  5829                           ;PR28.c: 372: else
  5830                           ;PR28.c: 373: flag = 0;
  5831  0B97  01CF               	clrf	(_flag)
  5832  0B98  2B9B               	goto	l3208
  5833                           	
  5834  0B99                     l270:	
  5835  0B99  2B9B               	goto	l3208
  5836                           	line	374
  5837                           	
  5838  0B9A                     l268:	
  5839  0B9A  2B9B               	goto	l3208
  5840                           	line	375
  5841                           	
  5842  0B9B                     l262:	
  5843                           	line	376
  5844                           	
  5845  0B9B                     l3208:	
  5846                           ;PR28.c: 374: }
  5847                           ;PR28.c: 375: }
  5848                           ;PR28.c: 376: if(Buttons.BTN1 ==1){
  5849  0B9B  0833               	movf	0+(_Buttons)+01h,w
  5850  0B9C  3A01               	xorlw	01h
  5851  0B9D  1D03               	skipz
  5852  0B9E  2BA0               	goto	u3901
  5853  0B9F  2BA1               	goto	u3900
  5854  0BA0                     u3901:
  5855  0BA0  2BD3               	goto	l3228
  5856  0BA1                     u3900:
  5857                           	line	377
  5858                           	
  5859  0BA1                     l3210:	
  5860                           ;PR28.c: 377: if (matrix[0][1] =='X' | matrix[0][1] == 'O')
  5861  0BA1  083C               	movf	0+(_matrix)+01h,w
  5862  0BA2  3A58               	xorlw	058h
  5863  0BA3  1903               	skipnz
  5864  0BA4  2BA6               	goto	u3911
  5865  0BA5  2BA7               	goto	u3910
  5866  0BA6                     u3911:
  5867  0BA6  2BAE               	goto	l3214
  5868  0BA7                     u3910:
  5869                           	
  5870  0BA7                     l3212:	
  5871  0BA7  083C               	movf	0+(_matrix)+01h,w
  5872  0BA8  3A4F               	xorlw	04Fh
  5873  0BA9  1D03               	skipz
  5874  0BAA  2BAC               	goto	u3921
  5875  0BAB  2BAD               	goto	u3920
  5876  0BAC                     u3921:
  5877  0BAC  2BBA               	goto	l3220
  5878  0BAD                     u3920:
  5879  0BAD  2BAE               	goto	l3214
  5880                           	
  5881  0BAE                     l274:	
  5882                           	line	378
  5883                           	
  5884  0BAE                     l3214:	
  5885                           ;PR28.c: 378: { if(flag==0){flag = 0;}
  5886  0BAE  08CF               	movf	(_flag),f
  5887  0BAF  1D03               	skipz
  5888  0BB0  2BB2               	goto	u3931
  5889  0BB1  2BB3               	goto	u3930
  5890  0BB2                     u3931:
  5891  0BB2  2BB5               	goto	l3218
  5892  0BB3                     u3930:
  5893                           	
  5894  0BB3                     l3216:	
  5895  0BB3  01CF               	clrf	(_flag)
  5896  0BB4  2BD3               	goto	l3228
  5897                           	line	379
  5898                           	
  5899  0BB5                     l275:	
  5900                           	line	380
  5901                           	
  5902  0BB5                     l3218:	
  5903                           ;PR28.c: 379: else
  5904                           ;PR28.c: 380: flag = 1;
  5905  0BB5  01CF               	clrf	(_flag)
  5906  0BB6  1403               	bsf	status,0
  5907  0BB7  0DCF               	rlf	(_flag),f
  5908  0BB8  2BD3               	goto	l3228
  5909                           	
  5910  0BB9                     l276:	
  5911                           	line	381
  5912                           ;PR28.c: 381: }else {
  5913  0BB9  2BD3               	goto	l3228
  5914                           	
  5915  0BBA                     l272:	
  5916                           	line	382
  5917                           	
  5918  0BBA                     l3220:	
  5919                           ;PR28.c: 382: store();
  5920  0BBA  160A  118A  2303   	fcall	_store
              120A  158A         
  5921                           	line	383
  5922                           	
  5923  0BBF                     l3222:	
  5924                           ;PR28.c: 383: DisplayLEDs();
  5925  0BBF  160A  118A  24A0   	fcall	_DisplayLEDs
              120A  158A         
  5926                           	line	384
  5927                           	
  5928  0BC4                     l3224:	
  5929                           ;PR28.c: 384: if(flag ==0){flag = 1;}
  5930  0BC4  1283               	bcf	status, 5	;RP0=0, select bank0
  5931  0BC5  1303               	bcf	status, 6	;RP1=0, select bank0
  5932  0BC6  08CF               	movf	(_flag),f
  5933  0BC7  1D03               	skipz
  5934  0BC8  2BCA               	goto	u3941
  5935  0BC9  2BCB               	goto	u3940
  5936  0BCA                     u3941:
  5937  0BCA  2BCF               	goto	l278
  5938  0BCB                     u3940:
  5939                           	
  5940  0BCB                     l3226:	
  5941  0BCB  01CF               	clrf	(_flag)
  5942  0BCC  1403               	bsf	status,0
  5943  0BCD  0DCF               	rlf	(_flag),f
  5944  0BCE  2BD3               	goto	l3228
  5945                           	line	385
  5946                           	
  5947  0BCF                     l278:	
  5948                           	line	386
  5949                           ;PR28.c: 385: else
  5950                           ;PR28.c: 386: flag = 0;
  5951  0BCF  01CF               	clrf	(_flag)
  5952  0BD0  2BD3               	goto	l3228
  5953                           	
  5954  0BD1                     l279:	
  5955  0BD1  2BD3               	goto	l3228
  5956                           	line	387
  5957                           	
  5958  0BD2                     l277:	
  5959  0BD2  2BD3               	goto	l3228
  5960                           	line	388
  5961                           	
  5962  0BD3                     l271:	
  5963                           	line	389
  5964                           	
  5965  0BD3                     l3228:	
  5966                           ;PR28.c: 387: }
  5967                           ;PR28.c: 388: }
  5968                           ;PR28.c: 389: if(Buttons.BTN2 ==1){
  5969  0BD3  0834               	movf	0+(_Buttons)+02h,w
  5970  0BD4  3A01               	xorlw	01h
  5971  0BD5  1D03               	skipz
  5972  0BD6  2BD8               	goto	u3951
  5973  0BD7  2BD9               	goto	u3950
  5974  0BD8                     u3951:
  5975  0BD8  2C0B               	goto	l3248
  5976  0BD9                     u3950:
  5977                           	line	390
  5978                           	
  5979  0BD9                     l3230:	
  5980                           ;PR28.c: 390: if (matrix[0][2] =='X' | matrix[0][2] == 'O')
  5981  0BD9  083D               	movf	0+(_matrix)+02h,w
  5982  0BDA  3A58               	xorlw	058h
  5983  0BDB  1903               	skipnz
  5984  0BDC  2BDE               	goto	u3961
  5985  0BDD  2BDF               	goto	u3960
  5986  0BDE                     u3961:
  5987  0BDE  2BE6               	goto	l3234
  5988  0BDF                     u3960:
  5989                           	
  5990  0BDF                     l3232:	
  5991  0BDF  083D               	movf	0+(_matrix)+02h,w
  5992  0BE0  3A4F               	xorlw	04Fh
  5993  0BE1  1D03               	skipz
  5994  0BE2  2BE4               	goto	u3971
  5995  0BE3  2BE5               	goto	u3970
  5996  0BE4                     u3971:
  5997  0BE4  2BF2               	goto	l3240
  5998  0BE5                     u3970:
  5999  0BE5  2BE6               	goto	l3234
  6000                           	
  6001  0BE6                     l283:	
  6002                           	line	391
  6003                           	
  6004  0BE6                     l3234:	
  6005                           ;PR28.c: 391: { if(flag==0){flag = 0;}
  6006  0BE6  08CF               	movf	(_flag),f
  6007  0BE7  1D03               	skipz
  6008  0BE8  2BEA               	goto	u3981
  6009  0BE9  2BEB               	goto	u3980
  6010  0BEA                     u3981:
  6011  0BEA  2BED               	goto	l3238
  6012  0BEB                     u3980:
  6013                           	
  6014  0BEB                     l3236:	
  6015  0BEB  01CF               	clrf	(_flag)
  6016  0BEC  2C0B               	goto	l3248
  6017                           	line	392
  6018                           	
  6019  0BED                     l284:	
  6020                           	line	393
  6021                           	
  6022  0BED                     l3238:	
  6023                           ;PR28.c: 392: else
  6024                           ;PR28.c: 393: flag = 1;
  6025  0BED  01CF               	clrf	(_flag)
  6026  0BEE  1403               	bsf	status,0
  6027  0BEF  0DCF               	rlf	(_flag),f
  6028  0BF0  2C0B               	goto	l3248
  6029                           	
  6030  0BF1                     l285:	
  6031                           	line	394
  6032                           ;PR28.c: 394: }else {
  6033  0BF1  2C0B               	goto	l3248
  6034                           	
  6035  0BF2                     l281:	
  6036                           	line	395
  6037                           	
  6038  0BF2                     l3240:	
  6039                           ;PR28.c: 395: store();
  6040  0BF2  160A  118A  2303   	fcall	_store
              120A  158A         
  6041                           	line	396
  6042                           	
  6043  0BF7                     l3242:	
  6044                           ;PR28.c: 396: DisplayLEDs();
  6045  0BF7  160A  118A  24A0   	fcall	_DisplayLEDs
              120A  158A         
  6046                           	line	397
  6047                           	
  6048  0BFC                     l3244:	
  6049                           ;PR28.c: 397: if(flag ==0){flag = 1;}
  6050  0BFC  1283               	bcf	status, 5	;RP0=0, select bank0
  6051  0BFD  1303               	bcf	status, 6	;RP1=0, select bank0
  6052  0BFE  08CF               	movf	(_flag),f
  6053  0BFF  1D03               	skipz
  6054  0C00  2C02               	goto	u3991
  6055  0C01  2C03               	goto	u3990
  6056  0C02                     u3991:
  6057  0C02  2C07               	goto	l287
  6058  0C03                     u3990:
  6059                           	
  6060  0C03                     l3246:	
  6061  0C03  01CF               	clrf	(_flag)
  6062  0C04  1403               	bsf	status,0
  6063  0C05  0DCF               	rlf	(_flag),f
  6064  0C06  2C0B               	goto	l3248
  6065                           	line	398
  6066                           	
  6067  0C07                     l287:	
  6068                           	line	399
  6069                           ;PR28.c: 398: else
  6070                           ;PR28.c: 399: flag = 0;
  6071  0C07  01CF               	clrf	(_flag)
  6072  0C08  2C0B               	goto	l3248
  6073                           	
  6074  0C09                     l288:	
  6075  0C09  2C0B               	goto	l3248
  6076                           	line	400
  6077                           	
  6078  0C0A                     l286:	
  6079  0C0A  2C0B               	goto	l3248
  6080                           	line	401
  6081                           	
  6082  0C0B                     l280:	
  6083                           	line	402
  6084                           	
  6085  0C0B                     l3248:	
  6086                           ;PR28.c: 400: }
  6087                           ;PR28.c: 401: }
  6088                           ;PR28.c: 402: if(Buttons.BTN3 ==1){
  6089  0C0B  0835               	movf	0+(_Buttons)+03h,w
  6090  0C0C  3A01               	xorlw	01h
  6091  0C0D  1D03               	skipz
  6092  0C0E  2C10               	goto	u4001
  6093  0C0F  2C11               	goto	u4000
  6094  0C10                     u4001:
  6095  0C10  2C43               	goto	l3268
  6096  0C11                     u4000:
  6097                           	line	403
  6098                           	
  6099  0C11                     l3250:	
  6100                           ;PR28.c: 403: if (matrix[1][0] =='X' | matrix[1][0] == 'O')
  6101  0C11  083E               	movf	0+(_matrix)+03h,w
  6102  0C12  3A58               	xorlw	058h
  6103  0C13  1903               	skipnz
  6104  0C14  2C16               	goto	u4011
  6105  0C15  2C17               	goto	u4010
  6106  0C16                     u4011:
  6107  0C16  2C1E               	goto	l3254
  6108  0C17                     u4010:
  6109                           	
  6110  0C17                     l3252:	
  6111  0C17  083E               	movf	0+(_matrix)+03h,w
  6112  0C18  3A4F               	xorlw	04Fh
  6113  0C19  1D03               	skipz
  6114  0C1A  2C1C               	goto	u4021
  6115  0C1B  2C1D               	goto	u4020
  6116  0C1C                     u4021:
  6117  0C1C  2C2A               	goto	l3260
  6118  0C1D                     u4020:
  6119  0C1D  2C1E               	goto	l3254
  6120                           	
  6121  0C1E                     l292:	
  6122                           	line	404
  6123                           	
  6124  0C1E                     l3254:	
  6125                           ;PR28.c: 404: { if(flag==0){flag = 0;}
  6126  0C1E  08CF               	movf	(_flag),f
  6127  0C1F  1D03               	skipz
  6128  0C20  2C22               	goto	u4031
  6129  0C21  2C23               	goto	u4030
  6130  0C22                     u4031:
  6131  0C22  2C25               	goto	l3258
  6132  0C23                     u4030:
  6133                           	
  6134  0C23                     l3256:	
  6135  0C23  01CF               	clrf	(_flag)
  6136  0C24  2C43               	goto	l3268
  6137                           	line	405
  6138                           	
  6139  0C25                     l293:	
  6140                           	line	406
  6141                           	
  6142  0C25                     l3258:	
  6143                           ;PR28.c: 405: else
  6144                           ;PR28.c: 406: flag = 1;
  6145  0C25  01CF               	clrf	(_flag)
  6146  0C26  1403               	bsf	status,0
  6147  0C27  0DCF               	rlf	(_flag),f
  6148  0C28  2C43               	goto	l3268
  6149                           	
  6150  0C29                     l294:	
  6151                           	line	407
  6152                           ;PR28.c: 407: }else {
  6153  0C29  2C43               	goto	l3268
  6154                           	
  6155  0C2A                     l290:	
  6156                           	line	408
  6157                           	
  6158  0C2A                     l3260:	
  6159                           ;PR28.c: 408: store();
  6160  0C2A  160A  118A  2303   	fcall	_store
              120A  158A         
  6161                           	line	409
  6162                           	
  6163  0C2F                     l3262:	
  6164                           ;PR28.c: 409: DisplayLEDs();
  6165  0C2F  160A  118A  24A0   	fcall	_DisplayLEDs
              120A  158A         
  6166                           	line	410
  6167                           	
  6168  0C34                     l3264:	
  6169                           ;PR28.c: 410: if(flag ==0){flag = 1;}
  6170  0C34  1283               	bcf	status, 5	;RP0=0, select bank0
  6171  0C35  1303               	bcf	status, 6	;RP1=0, select bank0
  6172  0C36  08CF               	movf	(_flag),f
  6173  0C37  1D03               	skipz
  6174  0C38  2C3A               	goto	u4041
  6175  0C39  2C3B               	goto	u4040
  6176  0C3A                     u4041:
  6177  0C3A  2C3F               	goto	l296
  6178  0C3B                     u4040:
  6179                           	
  6180  0C3B                     l3266:	
  6181  0C3B  01CF               	clrf	(_flag)
  6182  0C3C  1403               	bsf	status,0
  6183  0C3D  0DCF               	rlf	(_flag),f
  6184  0C3E  2C43               	goto	l3268
  6185                           	line	411
  6186                           	
  6187  0C3F                     l296:	
  6188                           	line	412
  6189                           ;PR28.c: 411: else
  6190                           ;PR28.c: 412: flag = 0;
  6191  0C3F  01CF               	clrf	(_flag)
  6192  0C40  2C43               	goto	l3268
  6193                           	
  6194  0C41                     l297:	
  6195  0C41  2C43               	goto	l3268
  6196                           	line	413
  6197                           	
  6198  0C42                     l295:	
  6199  0C42  2C43               	goto	l3268
  6200                           	line	414
  6201                           	
  6202  0C43                     l289:	
  6203                           	line	415
  6204                           	
  6205  0C43                     l3268:	
  6206                           ;PR28.c: 413: }
  6207                           ;PR28.c: 414: }
  6208                           ;PR28.c: 415: if(Buttons.BTN4 ==1){
  6209  0C43  0836               	movf	0+(_Buttons)+04h,w
  6210  0C44  3A01               	xorlw	01h
  6211  0C45  1D03               	skipz
  6212  0C46  2C48               	goto	u4051
  6213  0C47  2C49               	goto	u4050
  6214  0C48                     u4051:
  6215  0C48  2C7B               	goto	l3288
  6216  0C49                     u4050:
  6217                           	line	416
  6218                           	
  6219  0C49                     l3270:	
  6220                           ;PR28.c: 416: if (matrix[1][1] =='X' | matrix[1][1] == 'O')
  6221  0C49  083F               	movf	0+(_matrix)+04h,w
  6222  0C4A  3A58               	xorlw	058h
  6223  0C4B  1903               	skipnz
  6224  0C4C  2C4E               	goto	u4061
  6225  0C4D  2C4F               	goto	u4060
  6226  0C4E                     u4061:
  6227  0C4E  2C56               	goto	l3274
  6228  0C4F                     u4060:
  6229                           	
  6230  0C4F                     l3272:	
  6231  0C4F  083F               	movf	0+(_matrix)+04h,w
  6232  0C50  3A4F               	xorlw	04Fh
  6233  0C51  1D03               	skipz
  6234  0C52  2C54               	goto	u4071
  6235  0C53  2C55               	goto	u4070
  6236  0C54                     u4071:
  6237  0C54  2C62               	goto	l3280
  6238  0C55                     u4070:
  6239  0C55  2C56               	goto	l3274
  6240                           	
  6241  0C56                     l301:	
  6242                           	line	417
  6243                           	
  6244  0C56                     l3274:	
  6245                           ;PR28.c: 417: { if(flag==0){flag = 0;}
  6246  0C56  08CF               	movf	(_flag),f
  6247  0C57  1D03               	skipz
  6248  0C58  2C5A               	goto	u4081
  6249  0C59  2C5B               	goto	u4080
  6250  0C5A                     u4081:
  6251  0C5A  2C5D               	goto	l3278
  6252  0C5B                     u4080:
  6253                           	
  6254  0C5B                     l3276:	
  6255  0C5B  01CF               	clrf	(_flag)
  6256  0C5C  2C7B               	goto	l3288
  6257                           	line	418
  6258                           	
  6259  0C5D                     l302:	
  6260                           	line	419
  6261                           	
  6262  0C5D                     l3278:	
  6263                           ;PR28.c: 418: else
  6264                           ;PR28.c: 419: flag = 1;
  6265  0C5D  01CF               	clrf	(_flag)
  6266  0C5E  1403               	bsf	status,0
  6267  0C5F  0DCF               	rlf	(_flag),f
  6268  0C60  2C7B               	goto	l3288
  6269                           	
  6270  0C61                     l303:	
  6271                           	line	420
  6272                           ;PR28.c: 420: }else {
  6273  0C61  2C7B               	goto	l3288
  6274                           	
  6275  0C62                     l299:	
  6276                           	line	421
  6277                           	
  6278  0C62                     l3280:	
  6279                           ;PR28.c: 421: store();
  6280  0C62  160A  118A  2303   	fcall	_store
              120A  158A         
  6281                           	line	422
  6282                           	
  6283  0C67                     l3282:	
  6284                           ;PR28.c: 422: DisplayLEDs();
  6285  0C67  160A  118A  24A0   	fcall	_DisplayLEDs
              120A  158A         
  6286                           	line	423
  6287                           	
  6288  0C6C                     l3284:	
  6289                           ;PR28.c: 423: if(flag ==0){flag = 1;}
  6290  0C6C  1283               	bcf	status, 5	;RP0=0, select bank0
  6291  0C6D  1303               	bcf	status, 6	;RP1=0, select bank0
  6292  0C6E  08CF               	movf	(_flag),f
  6293  0C6F  1D03               	skipz
  6294  0C70  2C72               	goto	u4091
  6295  0C71  2C73               	goto	u4090
  6296  0C72                     u4091:
  6297  0C72  2C77               	goto	l305
  6298  0C73                     u4090:
  6299                           	
  6300  0C73                     l3286:	
  6301  0C73  01CF               	clrf	(_flag)
  6302  0C74  1403               	bsf	status,0
  6303  0C75  0DCF               	rlf	(_flag),f
  6304  0C76  2C7B               	goto	l3288
  6305                           	line	424
  6306                           	
  6307  0C77                     l305:	
  6308                           	line	425
  6309                           ;PR28.c: 424: else
  6310                           ;PR28.c: 425: flag = 0;
  6311  0C77  01CF               	clrf	(_flag)
  6312  0C78  2C7B               	goto	l3288
  6313                           	
  6314  0C79                     l306:	
  6315  0C79  2C7B               	goto	l3288
  6316                           	line	426
  6317                           	
  6318  0C7A                     l304:	
  6319  0C7A  2C7B               	goto	l3288
  6320                           	line	427
  6321                           	
  6322  0C7B                     l298:	
  6323                           	line	428
  6324                           	
  6325  0C7B                     l3288:	
  6326                           ;PR28.c: 426: }
  6327                           ;PR28.c: 427: }
  6328                           ;PR28.c: 428: if(Buttons.BTN5 ==1){
  6329  0C7B  0837               	movf	0+(_Buttons)+05h,w
  6330  0C7C  3A01               	xorlw	01h
  6331  0C7D  1D03               	skipz
  6332  0C7E  2C80               	goto	u4101
  6333  0C7F  2C81               	goto	u4100
  6334  0C80                     u4101:
  6335  0C80  2CB3               	goto	l3308
  6336  0C81                     u4100:
  6337                           	line	429
  6338                           	
  6339  0C81                     l3290:	
  6340                           ;PR28.c: 429: if (matrix[1][2] =='X' | matrix[1][2] == 'O')
  6341  0C81  0840               	movf	0+(_matrix)+05h,w
  6342  0C82  3A58               	xorlw	058h
  6343  0C83  1903               	skipnz
  6344  0C84  2C86               	goto	u4111
  6345  0C85  2C87               	goto	u4110
  6346  0C86                     u4111:
  6347  0C86  2C8E               	goto	l3294
  6348  0C87                     u4110:
  6349                           	
  6350  0C87                     l3292:	
  6351  0C87  0840               	movf	0+(_matrix)+05h,w
  6352  0C88  3A4F               	xorlw	04Fh
  6353  0C89  1D03               	skipz
  6354  0C8A  2C8C               	goto	u4121
  6355  0C8B  2C8D               	goto	u4120
  6356  0C8C                     u4121:
  6357  0C8C  2C9A               	goto	l3300
  6358  0C8D                     u4120:
  6359  0C8D  2C8E               	goto	l3294
  6360                           	
  6361  0C8E                     l310:	
  6362                           	line	430
  6363                           	
  6364  0C8E                     l3294:	
  6365                           ;PR28.c: 430: { if(flag==0){flag = 0;}
  6366  0C8E  08CF               	movf	(_flag),f
  6367  0C8F  1D03               	skipz
  6368  0C90  2C92               	goto	u4131
  6369  0C91  2C93               	goto	u4130
  6370  0C92                     u4131:
  6371  0C92  2C95               	goto	l3298
  6372  0C93                     u4130:
  6373                           	
  6374  0C93                     l3296:	
  6375  0C93  01CF               	clrf	(_flag)
  6376  0C94  2CB3               	goto	l3308
  6377                           	line	431
  6378                           	
  6379  0C95                     l311:	
  6380                           	line	432
  6381                           	
  6382  0C95                     l3298:	
  6383                           ;PR28.c: 431: else
  6384                           ;PR28.c: 432: flag = 1;
  6385  0C95  01CF               	clrf	(_flag)
  6386  0C96  1403               	bsf	status,0
  6387  0C97  0DCF               	rlf	(_flag),f
  6388  0C98  2CB3               	goto	l3308
  6389                           	
  6390  0C99                     l312:	
  6391                           	line	433
  6392                           ;PR28.c: 433: }else {
  6393  0C99  2CB3               	goto	l3308
  6394                           	
  6395  0C9A                     l308:	
  6396                           	line	434
  6397                           	
  6398  0C9A                     l3300:	
  6399                           ;PR28.c: 434: store();
  6400  0C9A  160A  118A  2303   	fcall	_store
              120A  158A         
  6401                           	line	435
  6402                           	
  6403  0C9F                     l3302:	
  6404                           ;PR28.c: 435: DisplayLEDs();
  6405  0C9F  160A  118A  24A0   	fcall	_DisplayLEDs
              120A  158A         
  6406                           	line	436
  6407                           	
  6408  0CA4                     l3304:	
  6409                           ;PR28.c: 436: if(flag ==0){flag = 1;}
  6410  0CA4  1283               	bcf	status, 5	;RP0=0, select bank0
  6411  0CA5  1303               	bcf	status, 6	;RP1=0, select bank0
  6412  0CA6  08CF               	movf	(_flag),f
  6413  0CA7  1D03               	skipz
  6414  0CA8  2CAA               	goto	u4141
  6415  0CA9  2CAB               	goto	u4140
  6416  0CAA                     u4141:
  6417  0CAA  2CAF               	goto	l314
  6418  0CAB                     u4140:
  6419                           	
  6420  0CAB                     l3306:	
  6421  0CAB  01CF               	clrf	(_flag)
  6422  0CAC  1403               	bsf	status,0
  6423  0CAD  0DCF               	rlf	(_flag),f
  6424  0CAE  2CB3               	goto	l3308
  6425                           	line	437
  6426                           	
  6427  0CAF                     l314:	
  6428                           	line	438
  6429                           ;PR28.c: 437: else
  6430                           ;PR28.c: 438: flag = 0;
  6431  0CAF  01CF               	clrf	(_flag)
  6432  0CB0  2CB3               	goto	l3308
  6433                           	
  6434  0CB1                     l315:	
  6435  0CB1  2CB3               	goto	l3308
  6436                           	line	439
  6437                           	
  6438  0CB2                     l313:	
  6439  0CB2  2CB3               	goto	l3308
  6440                           	line	440
  6441                           	
  6442  0CB3                     l307:	
  6443                           	line	441
  6444                           	
  6445  0CB3                     l3308:	
  6446                           ;PR28.c: 439: }
  6447                           ;PR28.c: 440: }
  6448                           ;PR28.c: 441: if(Buttons.BTN6 ==1){
  6449  0CB3  0838               	movf	0+(_Buttons)+06h,w
  6450  0CB4  3A01               	xorlw	01h
  6451  0CB5  1D03               	skipz
  6452  0CB6  2CB8               	goto	u4151
  6453  0CB7  2CB9               	goto	u4150
  6454  0CB8                     u4151:
  6455  0CB8  2CEB               	goto	l3328
  6456  0CB9                     u4150:
  6457                           	line	442
  6458                           	
  6459  0CB9                     l3310:	
  6460                           ;PR28.c: 442: if (matrix[2][0] =='X' | matrix[2][0] == 'O')
  6461  0CB9  0841               	movf	0+(_matrix)+06h,w
  6462  0CBA  3A58               	xorlw	058h
  6463  0CBB  1903               	skipnz
  6464  0CBC  2CBE               	goto	u4161
  6465  0CBD  2CBF               	goto	u4160
  6466  0CBE                     u4161:
  6467  0CBE  2CC6               	goto	l3314
  6468  0CBF                     u4160:
  6469                           	
  6470  0CBF                     l3312:	
  6471  0CBF  0841               	movf	0+(_matrix)+06h,w
  6472  0CC0  3A4F               	xorlw	04Fh
  6473  0CC1  1D03               	skipz
  6474  0CC2  2CC4               	goto	u4171
  6475  0CC3  2CC5               	goto	u4170
  6476  0CC4                     u4171:
  6477  0CC4  2CD2               	goto	l3320
  6478  0CC5                     u4170:
  6479  0CC5  2CC6               	goto	l3314
  6480                           	
  6481  0CC6                     l319:	
  6482                           	line	443
  6483                           	
  6484  0CC6                     l3314:	
  6485                           ;PR28.c: 443: { if(flag==0){flag = 0;}
  6486  0CC6  08CF               	movf	(_flag),f
  6487  0CC7  1D03               	skipz
  6488  0CC8  2CCA               	goto	u4181
  6489  0CC9  2CCB               	goto	u4180
  6490  0CCA                     u4181:
  6491  0CCA  2CCD               	goto	l3318
  6492  0CCB                     u4180:
  6493                           	
  6494  0CCB                     l3316:	
  6495  0CCB  01CF               	clrf	(_flag)
  6496  0CCC  2CEB               	goto	l3328
  6497                           	line	444
  6498                           	
  6499  0CCD                     l320:	
  6500                           	line	445
  6501                           	
  6502  0CCD                     l3318:	
  6503                           ;PR28.c: 444: else
  6504                           ;PR28.c: 445: flag = 1;
  6505  0CCD  01CF               	clrf	(_flag)
  6506  0CCE  1403               	bsf	status,0
  6507  0CCF  0DCF               	rlf	(_flag),f
  6508  0CD0  2CEB               	goto	l3328
  6509                           	
  6510  0CD1                     l321:	
  6511                           	line	446
  6512                           ;PR28.c: 446: }else {
  6513  0CD1  2CEB               	goto	l3328
  6514                           	
  6515  0CD2                     l317:	
  6516                           	line	447
  6517                           	
  6518  0CD2                     l3320:	
  6519                           ;PR28.c: 447: store();
  6520  0CD2  160A  118A  2303   	fcall	_store
              120A  158A         
  6521                           	line	448
  6522                           	
  6523  0CD7                     l3322:	
  6524                           ;PR28.c: 448: DisplayLEDs();
  6525  0CD7  160A  118A  24A0   	fcall	_DisplayLEDs
              120A  158A         
  6526                           	line	449
  6527                           	
  6528  0CDC                     l3324:	
  6529                           ;PR28.c: 449: if(flag ==0){flag = 1;}
  6530  0CDC  1283               	bcf	status, 5	;RP0=0, select bank0
  6531  0CDD  1303               	bcf	status, 6	;RP1=0, select bank0
  6532  0CDE  08CF               	movf	(_flag),f
  6533  0CDF  1D03               	skipz
  6534  0CE0  2CE2               	goto	u4191
  6535  0CE1  2CE3               	goto	u4190
  6536  0CE2                     u4191:
  6537  0CE2  2CE7               	goto	l323
  6538  0CE3                     u4190:
  6539                           	
  6540  0CE3                     l3326:	
  6541  0CE3  01CF               	clrf	(_flag)
  6542  0CE4  1403               	bsf	status,0
  6543  0CE5  0DCF               	rlf	(_flag),f
  6544  0CE6  2CEB               	goto	l3328
  6545                           	line	450
  6546                           	
  6547  0CE7                     l323:	
  6548                           	line	451
  6549                           ;PR28.c: 450: else
  6550                           ;PR28.c: 451: flag = 0;
  6551  0CE7  01CF               	clrf	(_flag)
  6552  0CE8  2CEB               	goto	l3328
  6553                           	
  6554  0CE9                     l324:	
  6555  0CE9  2CEB               	goto	l3328
  6556                           	line	452
  6557                           	
  6558  0CEA                     l322:	
  6559  0CEA  2CEB               	goto	l3328
  6560                           	line	453
  6561                           	
  6562  0CEB                     l316:	
  6563                           	line	454
  6564                           	
  6565  0CEB                     l3328:	
  6566                           ;PR28.c: 452: }
  6567                           ;PR28.c: 453: }
  6568                           ;PR28.c: 454: if(Buttons.BTN7 ==1){
  6569  0CEB  0839               	movf	0+(_Buttons)+07h,w
  6570  0CEC  3A01               	xorlw	01h
  6571  0CED  1D03               	skipz
  6572  0CEE  2CF0               	goto	u4201
  6573  0CEF  2CF1               	goto	u4200
  6574  0CF0                     u4201:
  6575  0CF0  2D23               	goto	l3348
  6576  0CF1                     u4200:
  6577                           	line	455
  6578                           	
  6579  0CF1                     l3330:	
  6580                           ;PR28.c: 455: if (matrix[2][1] =='X' | matrix[2][1] == 'O')
  6581  0CF1  0842               	movf	0+(_matrix)+07h,w
  6582  0CF2  3A58               	xorlw	058h
  6583  0CF3  1903               	skipnz
  6584  0CF4  2CF6               	goto	u4211
  6585  0CF5  2CF7               	goto	u4210
  6586  0CF6                     u4211:
  6587  0CF6  2CFE               	goto	l3334
  6588  0CF7                     u4210:
  6589                           	
  6590  0CF7                     l3332:	
  6591  0CF7  0842               	movf	0+(_matrix)+07h,w
  6592  0CF8  3A4F               	xorlw	04Fh
  6593  0CF9  1D03               	skipz
  6594  0CFA  2CFC               	goto	u4221
  6595  0CFB  2CFD               	goto	u4220
  6596  0CFC                     u4221:
  6597  0CFC  2D0A               	goto	l3340
  6598  0CFD                     u4220:
  6599  0CFD  2CFE               	goto	l3334
  6600                           	
  6601  0CFE                     l328:	
  6602                           	line	456
  6603                           	
  6604  0CFE                     l3334:	
  6605                           ;PR28.c: 456: { if(flag==0){flag = 0;}
  6606  0CFE  08CF               	movf	(_flag),f
  6607  0CFF  1D03               	skipz
  6608  0D00  2D02               	goto	u4231
  6609  0D01  2D03               	goto	u4230
  6610  0D02                     u4231:
  6611  0D02  2D05               	goto	l3338
  6612  0D03                     u4230:
  6613                           	
  6614  0D03                     l3336:	
  6615  0D03  01CF               	clrf	(_flag)
  6616  0D04  2D23               	goto	l3348
  6617                           	line	457
  6618                           	
  6619  0D05                     l329:	
  6620                           	line	458
  6621                           	
  6622  0D05                     l3338:	
  6623                           ;PR28.c: 457: else
  6624                           ;PR28.c: 458: flag = 1;
  6625  0D05  01CF               	clrf	(_flag)
  6626  0D06  1403               	bsf	status,0
  6627  0D07  0DCF               	rlf	(_flag),f
  6628  0D08  2D23               	goto	l3348
  6629                           	
  6630  0D09                     l330:	
  6631                           	line	459
  6632                           ;PR28.c: 459: }else {
  6633  0D09  2D23               	goto	l3348
  6634                           	
  6635  0D0A                     l326:	
  6636                           	line	460
  6637                           	
  6638  0D0A                     l3340:	
  6639                           ;PR28.c: 460: store();
  6640  0D0A  160A  118A  2303   	fcall	_store
              120A  158A         
  6641                           	line	461
  6642                           	
  6643  0D0F                     l3342:	
  6644                           ;PR28.c: 461: DisplayLEDs();
  6645  0D0F  160A  118A  24A0   	fcall	_DisplayLEDs
              120A  158A         
  6646                           	line	462
  6647                           	
  6648  0D14                     l3344:	
  6649                           ;PR28.c: 462: if(flag ==0){flag = 1;}
  6650  0D14  1283               	bcf	status, 5	;RP0=0, select bank0
  6651  0D15  1303               	bcf	status, 6	;RP1=0, select bank0
  6652  0D16  08CF               	movf	(_flag),f
  6653  0D17  1D03               	skipz
  6654  0D18  2D1A               	goto	u4241
  6655  0D19  2D1B               	goto	u4240
  6656  0D1A                     u4241:
  6657  0D1A  2D1F               	goto	l332
  6658  0D1B                     u4240:
  6659                           	
  6660  0D1B                     l3346:	
  6661  0D1B  01CF               	clrf	(_flag)
  6662  0D1C  1403               	bsf	status,0
  6663  0D1D  0DCF               	rlf	(_flag),f
  6664  0D1E  2D23               	goto	l3348
  6665                           	line	463
  6666                           	
  6667  0D1F                     l332:	
  6668                           	line	464
  6669                           ;PR28.c: 463: else
  6670                           ;PR28.c: 464: flag = 0;
  6671  0D1F  01CF               	clrf	(_flag)
  6672  0D20  2D23               	goto	l3348
  6673                           	
  6674  0D21                     l333:	
  6675  0D21  2D23               	goto	l3348
  6676                           	line	465
  6677                           	
  6678  0D22                     l331:	
  6679  0D22  2D23               	goto	l3348
  6680                           	line	466
  6681                           	
  6682  0D23                     l325:	
  6683                           	line	467
  6684                           	
  6685  0D23                     l3348:	
  6686                           ;PR28.c: 465: }
  6687                           ;PR28.c: 466: }
  6688                           ;PR28.c: 467: if(Buttons.BTN8 ==1){
  6689  0D23  083A               	movf	0+(_Buttons)+08h,w
  6690  0D24  3A01               	xorlw	01h
  6691  0D25  1D03               	skipz
  6692  0D26  2D28               	goto	u4251
  6693  0D27  2D29               	goto	u4250
  6694  0D28                     u4251:
  6695  0D28  2D5B               	goto	l343
  6696  0D29                     u4250:
  6697                           	line	468
  6698                           	
  6699  0D29                     l3350:	
  6700                           ;PR28.c: 468: if (matrix[2][2] =='X' | matrix[2][2] == 'O')
  6701  0D29  0843               	movf	0+(_matrix)+08h,w
  6702  0D2A  3A58               	xorlw	058h
  6703  0D2B  1903               	skipnz
  6704  0D2C  2D2E               	goto	u4261
  6705  0D2D  2D2F               	goto	u4260
  6706  0D2E                     u4261:
  6707  0D2E  2D36               	goto	l3354
  6708  0D2F                     u4260:
  6709                           	
  6710  0D2F                     l3352:	
  6711  0D2F  0843               	movf	0+(_matrix)+08h,w
  6712  0D30  3A4F               	xorlw	04Fh
  6713  0D31  1D03               	skipz
  6714  0D32  2D34               	goto	u4271
  6715  0D33  2D35               	goto	u4270
  6716  0D34                     u4271:
  6717  0D34  2D42               	goto	l3360
  6718  0D35                     u4270:
  6719  0D35  2D36               	goto	l3354
  6720                           	
  6721  0D36                     l337:	
  6722                           	line	469
  6723                           	
  6724  0D36                     l3354:	
  6725                           ;PR28.c: 469: { if(flag==0){flag = 0;}
  6726  0D36  08CF               	movf	(_flag),f
  6727  0D37  1D03               	skipz
  6728  0D38  2D3A               	goto	u4281
  6729  0D39  2D3B               	goto	u4280
  6730  0D3A                     u4281:
  6731  0D3A  2D3D               	goto	l3358
  6732  0D3B                     u4280:
  6733                           	
  6734  0D3B                     l3356:	
  6735  0D3B  01CF               	clrf	(_flag)
  6736  0D3C  2D5B               	goto	l343
  6737                           	line	470
  6738                           	
  6739  0D3D                     l338:	
  6740                           	line	471
  6741                           	
  6742  0D3D                     l3358:	
  6743                           ;PR28.c: 470: else
  6744                           ;PR28.c: 471: flag = 1;
  6745  0D3D  01CF               	clrf	(_flag)
  6746  0D3E  1403               	bsf	status,0
  6747  0D3F  0DCF               	rlf	(_flag),f
  6748  0D40  2D5B               	goto	l343
  6749                           	
  6750  0D41                     l339:	
  6751                           	line	472
  6752                           ;PR28.c: 472: }else {
  6753  0D41  2D5B               	goto	l343
  6754                           	
  6755  0D42                     l335:	
  6756                           	line	473
  6757                           	
  6758  0D42                     l3360:	
  6759                           ;PR28.c: 473: store();
  6760  0D42  160A  118A  2303   	fcall	_store
              120A  158A         
  6761                           	line	474
  6762                           	
  6763  0D47                     l3362:	
  6764                           ;PR28.c: 474: DisplayLEDs();
  6765  0D47  160A  118A  24A0   	fcall	_DisplayLEDs
              120A  158A         
  6766                           	line	475
  6767                           	
  6768  0D4C                     l3364:	
  6769                           ;PR28.c: 475: if(flag ==0){flag = 1;}
  6770  0D4C  1283               	bcf	status, 5	;RP0=0, select bank0
  6771  0D4D  1303               	bcf	status, 6	;RP1=0, select bank0
  6772  0D4E  08CF               	movf	(_flag),f
  6773  0D4F  1D03               	skipz
  6774  0D50  2D52               	goto	u4291
  6775  0D51  2D53               	goto	u4290
  6776  0D52                     u4291:
  6777  0D52  2D57               	goto	l341
  6778  0D53                     u4290:
  6779                           	
  6780  0D53                     l3366:	
  6781  0D53  01CF               	clrf	(_flag)
  6782  0D54  1403               	bsf	status,0
  6783  0D55  0DCF               	rlf	(_flag),f
  6784  0D56  2D5B               	goto	l343
  6785                           	line	476
  6786                           	
  6787  0D57                     l341:	
  6788                           	line	477
  6789                           ;PR28.c: 476: else
  6790                           ;PR28.c: 477: flag = 0;
  6791  0D57  01CF               	clrf	(_flag)
  6792  0D58  2D5B               	goto	l343
  6793                           	
  6794  0D59                     l342:	
  6795  0D59  2D5B               	goto	l343
  6796                           	line	478
  6797                           	
  6798  0D5A                     l340:	
  6799  0D5A  2D5B               	goto	l343
  6800                           	line	479
  6801                           	
  6802  0D5B                     l334:	
  6803                           	line	480
  6804                           	
  6805  0D5B                     l343:	
  6806  0D5B  0008               	return
  6807                           	opt stack 0
  6808                           GLOBAL	__end_of_checkstatus
  6809  0D5C                     	__end_of_checkstatus:
  6810                           	signat	_checkstatus,88
  6811                           	global	_store
  6812                           
  6813 ;; *************** function _store *****************
  6814 ;; Defined at:
  6815 ;;		line 331 in file "PR28.c"
  6816 ;; Parameters:    Size  Location     Type
  6817 ;;		None
  6818 ;; Auto vars:     Size  Location     Type
  6819 ;;		None
  6820 ;; Return value:  Size  Location     Type
  6821 ;;		None               void
  6822 ;; Registers used:
  6823 ;;		wreg, status,2, status,0
  6824 ;; Tracked objects:
  6825 ;;		On entry : 0/0
  6826 ;;		On exit  : 0/0
  6827 ;;		Unchanged: 0/0
  6828 ;; Data sizes:     COMMON   BANK0   BANK1   BANK3   BANK2
  6829 ;;      Params:         0       0       0       0       0
  6830 ;;      Locals:         0       0       0       0       0
  6831 ;;      Temps:          0       1       0       0       0
  6832 ;;      Totals:         0       1       0       0       0
  6833 ;;Total ram usage:        1 bytes
  6834 ;; Hardware stack levels used:    1
  6835 ;; Hardware stack levels required when called:    3
  6836 ;; This function calls:
  6837 ;;		Nothing
  6838 ;; This function is called by:
  6839 ;;		_checkstatus
  6840 ;; This function uses a non-reentrant model
  6841 ;;
  6842                           psect	text674,local,class=CODE,delta=2,merge=1
  6843                           global __ptext674
  6844  1303                     __ptext674:
  6845                           psect	text674
  6846                           	file	"PR28.c"
  6847                           	line	331
  6848                           	global	__size_of_store
  6849  00C7                     	__size_of_store	equ	__end_of_store-_store
  6850                           	
  6851  1303                     _store:	
  6852                           	opt	stack 1
  6853                           ; Regs used in _store: [wreg+status,2+status,0]
  6854                           	line	332
  6855                           	
  6856  1303                     l3368:	
  6857                           ;PR28.c: 332: if (flag ==0){
  6858  1303  1283               	bcf	status, 5	;RP0=0, select bank0
  6859  1304  1303               	bcf	status, 6	;RP1=0, select bank0
  6860  1305  08CF               	movf	(_flag),f
  6861  1306  1D03               	skipz
  6862  1307  2B09               	goto	u4301
  6863  1308  2B0A               	goto	u4300
  6864  1309                     u4301:
  6865  1309  2B66               	goto	l3390
  6866  130A                     u4300:
  6867                           	line	333
  6868                           	
  6869  130A                     l3370:	
  6870                           ;PR28.c: 333: if(Buttons.BTN0 == 1) { matrix[0][0] = 'X';}
  6871  130A  0832               	movf	(_Buttons),w
  6872  130B  3A01               	xorlw	01h
  6873  130C  1D03               	skipz
  6874  130D  2B0F               	goto	u4311
  6875  130E  2B10               	goto	u4310
  6876  130F                     u4311:
  6877  130F  2B14               	goto	l239
  6878  1310                     u4310:
  6879                           	
  6880  1310                     l3372:	
  6881  1310  3058               	movlw	(058h)
  6882  1311  00D2               	movwf	(??_store+0)+0
  6883  1312  0852               	movf	(??_store+0)+0,w
  6884  1313  00BB               	movwf	(_matrix)
  6885                           	
  6886  1314                     l239:	
  6887                           	line	334
  6888                           ;PR28.c: 334: if(Buttons.BTN1 == 1) { matrix[0][1] = 'X';}
  6889  1314  0833               	movf	0+(_Buttons)+01h,w
  6890  1315  3A01               	xorlw	01h
  6891  1316  1D03               	skipz
  6892  1317  2B19               	goto	u4321
  6893  1318  2B1A               	goto	u4320
  6894  1319                     u4321:
  6895  1319  2B1E               	goto	l240
  6896  131A                     u4320:
  6897                           	
  6898  131A                     l3374:	
  6899  131A  3058               	movlw	(058h)
  6900  131B  00D2               	movwf	(??_store+0)+0
  6901  131C  0852               	movf	(??_store+0)+0,w
  6902  131D  00BC               	movwf	0+(_matrix)+01h
  6903                           	
  6904  131E                     l240:	
  6905                           	line	335
  6906                           ;PR28.c: 335: if(Buttons.BTN2 == 1) { matrix[0][2] = 'X';}
  6907  131E  0834               	movf	0+(_Buttons)+02h,w
  6908  131F  3A01               	xorlw	01h
  6909  1320  1D03               	skipz
  6910  1321  2B23               	goto	u4331
  6911  1322  2B24               	goto	u4330
  6912  1323                     u4331:
  6913  1323  2B28               	goto	l241
  6914  1324                     u4330:
  6915                           	
  6916  1324                     l3376:	
  6917  1324  3058               	movlw	(058h)
  6918  1325  00D2               	movwf	(??_store+0)+0
  6919  1326  0852               	movf	(??_store+0)+0,w
  6920  1327  00BD               	movwf	0+(_matrix)+02h
  6921                           	
  6922  1328                     l241:	
  6923                           	line	336
  6924                           ;PR28.c: 336: if(Buttons.BTN3 == 1) { matrix[1][0] = 'X';}
  6925  1328  0835               	movf	0+(_Buttons)+03h,w
  6926  1329  3A01               	xorlw	01h
  6927  132A  1D03               	skipz
  6928  132B  2B2D               	goto	u4341
  6929  132C  2B2E               	goto	u4340
  6930  132D                     u4341:
  6931  132D  2B32               	goto	l242
  6932  132E                     u4340:
  6933                           	
  6934  132E                     l3378:	
  6935  132E  3058               	movlw	(058h)
  6936  132F  00D2               	movwf	(??_store+0)+0
  6937  1330  0852               	movf	(??_store+0)+0,w
  6938  1331  00BE               	movwf	0+(_matrix)+03h
  6939                           	
  6940  1332                     l242:	
  6941                           	line	337
  6942                           ;PR28.c: 337: if(Buttons.BTN4 == 1) { matrix[1][1] = 'X';}
  6943  1332  0836               	movf	0+(_Buttons)+04h,w
  6944  1333  3A01               	xorlw	01h
  6945  1334  1D03               	skipz
  6946  1335  2B37               	goto	u4351
  6947  1336  2B38               	goto	u4350
  6948  1337                     u4351:
  6949  1337  2B3C               	goto	l243
  6950  1338                     u4350:
  6951                           	
  6952  1338                     l3380:	
  6953  1338  3058               	movlw	(058h)
  6954  1339  00D2               	movwf	(??_store+0)+0
  6955  133A  0852               	movf	(??_store+0)+0,w
  6956  133B  00BF               	movwf	0+(_matrix)+04h
  6957                           	
  6958  133C                     l243:	
  6959                           	line	338
  6960                           ;PR28.c: 338: if(Buttons.BTN5 == 1) { matrix[1][2] = 'X';}
  6961  133C  0837               	movf	0+(_Buttons)+05h,w
  6962  133D  3A01               	xorlw	01h
  6963  133E  1D03               	skipz
  6964  133F  2B41               	goto	u4361
  6965  1340  2B42               	goto	u4360
  6966  1341                     u4361:
  6967  1341  2B46               	goto	l244
  6968  1342                     u4360:
  6969                           	
  6970  1342                     l3382:	
  6971  1342  3058               	movlw	(058h)
  6972  1343  00D2               	movwf	(??_store+0)+0
  6973  1344  0852               	movf	(??_store+0)+0,w
  6974  1345  00C0               	movwf	0+(_matrix)+05h
  6975                           	
  6976  1346                     l244:	
  6977                           	line	339
  6978                           ;PR28.c: 339: if(Buttons.BTN6 == 1) { matrix[2][0] = 'X';}
  6979  1346  0838               	movf	0+(_Buttons)+06h,w
  6980  1347  3A01               	xorlw	01h
  6981  1348  1D03               	skipz
  6982  1349  2B4B               	goto	u4371
  6983  134A  2B4C               	goto	u4370
  6984  134B                     u4371:
  6985  134B  2B50               	goto	l245
  6986  134C                     u4370:
  6987                           	
  6988  134C                     l3384:	
  6989  134C  3058               	movlw	(058h)
  6990  134D  00D2               	movwf	(??_store+0)+0
  6991  134E  0852               	movf	(??_store+0)+0,w
  6992  134F  00C1               	movwf	0+(_matrix)+06h
  6993                           	
  6994  1350                     l245:	
  6995                           	line	340
  6996                           ;PR28.c: 340: if(Buttons.BTN7 == 1) { matrix[2][1] = 'X';}
  6997  1350  0839               	movf	0+(_Buttons)+07h,w
  6998  1351  3A01               	xorlw	01h
  6999  1352  1D03               	skipz
  7000  1353  2B55               	goto	u4381
  7001  1354  2B56               	goto	u4380
  7002  1355                     u4381:
  7003  1355  2B5A               	goto	l246
  7004  1356                     u4380:
  7005                           	
  7006  1356                     l3386:	
  7007  1356  3058               	movlw	(058h)
  7008  1357  00D2               	movwf	(??_store+0)+0
  7009  1358  0852               	movf	(??_store+0)+0,w
  7010  1359  00C2               	movwf	0+(_matrix)+07h
  7011                           	
  7012  135A                     l246:	
  7013                           	line	341
  7014                           ;PR28.c: 341: if(Buttons.BTN8 == 1) { matrix[2][2] = 'X';}
  7015  135A  083A               	movf	0+(_Buttons)+08h,w
  7016  135B  3A01               	xorlw	01h
  7017  135C  1D03               	skipz
  7018  135D  2B5F               	goto	u4391
  7019  135E  2B60               	goto	u4390
  7020  135F                     u4391:
  7021  135F  2BC9               	goto	l259
  7022  1360                     u4390:
  7023                           	
  7024  1360                     l3388:	
  7025  1360  3058               	movlw	(058h)
  7026  1361  00D2               	movwf	(??_store+0)+0
  7027  1362  0852               	movf	(??_store+0)+0,w
  7028  1363  00C3               	movwf	0+(_matrix)+08h
  7029  1364  2BC9               	goto	l259
  7030                           	
  7031  1365                     l247:	
  7032                           	line	342
  7033                           ;PR28.c: 342: }
  7034  1365  2BC9               	goto	l259
  7035                           	line	343
  7036                           	
  7037  1366                     l238:	
  7038                           	
  7039  1366                     l3390:	
  7040                           ;PR28.c: 343: else if(flag == 1){
  7041  1366  084F               	movf	(_flag),w
  7042  1367  3A01               	xorlw	01h
  7043  1368  1D03               	skipz
  7044  1369  2B6B               	goto	u4401
  7045  136A  2B6C               	goto	u4400
  7046  136B                     u4401:
  7047  136B  2BC9               	goto	l259
  7048  136C                     u4400:
  7049                           	line	344
  7050                           	
  7051  136C                     l3392:	
  7052                           ;PR28.c: 344: if(Buttons.BTN0 == 1) { matrix[0][0] = 'O';}
  7053  136C  0832               	movf	(_Buttons),w
  7054  136D  3A01               	xorlw	01h
  7055  136E  1D03               	skipz
  7056  136F  2B71               	goto	u4411
  7057  1370  2B72               	goto	u4410
  7058  1371                     u4411:
  7059  1371  2B76               	goto	l250
  7060  1372                     u4410:
  7061                           	
  7062  1372                     l3394:	
  7063  1372  304F               	movlw	(04Fh)
  7064  1373  00D2               	movwf	(??_store+0)+0
  7065  1374  0852               	movf	(??_store+0)+0,w
  7066  1375  00BB               	movwf	(_matrix)
  7067                           	
  7068  1376                     l250:	
  7069                           	line	345
  7070                           ;PR28.c: 345: if(Buttons.BTN1 == 1) { matrix[0][1] = 'O';}
  7071  1376  0833               	movf	0+(_Buttons)+01h,w
  7072  1377  3A01               	xorlw	01h
  7073  1378  1D03               	skipz
  7074  1379  2B7B               	goto	u4421
  7075  137A  2B7C               	goto	u4420
  7076  137B                     u4421:
  7077  137B  2B80               	goto	l251
  7078  137C                     u4420:
  7079                           	
  7080  137C                     l3396:	
  7081  137C  304F               	movlw	(04Fh)
  7082  137D  00D2               	movwf	(??_store+0)+0
  7083  137E  0852               	movf	(??_store+0)+0,w
  7084  137F  00BC               	movwf	0+(_matrix)+01h
  7085                           	
  7086  1380                     l251:	
  7087                           	line	346
  7088                           ;PR28.c: 346: if(Buttons.BTN2 == 1) { matrix[0][2] = 'O';}
  7089  1380  0834               	movf	0+(_Buttons)+02h,w
  7090  1381  3A01               	xorlw	01h
  7091  1382  1D03               	skipz
  7092  1383  2B85               	goto	u4431
  7093  1384  2B86               	goto	u4430
  7094  1385                     u4431:
  7095  1385  2B8A               	goto	l252
  7096  1386                     u4430:
  7097                           	
  7098  1386                     l3398:	
  7099  1386  304F               	movlw	(04Fh)
  7100  1387  00D2               	movwf	(??_store+0)+0
  7101  1388  0852               	movf	(??_store+0)+0,w
  7102  1389  00BD               	movwf	0+(_matrix)+02h
  7103                           	
  7104  138A                     l252:	
  7105                           	line	347
  7106                           ;PR28.c: 347: if(Buttons.BTN3 == 1) { matrix[1][0] = 'O';}
  7107  138A  0835               	movf	0+(_Buttons)+03h,w
  7108  138B  3A01               	xorlw	01h
  7109  138C  1D03               	skipz
  7110  138D  2B8F               	goto	u4441
  7111  138E  2B90               	goto	u4440
  7112  138F                     u4441:
  7113  138F  2B94               	goto	l253
  7114  1390                     u4440:
  7115                           	
  7116  1390                     l3400:	
  7117  1390  304F               	movlw	(04Fh)
  7118  1391  00D2               	movwf	(??_store+0)+0
  7119  1392  0852               	movf	(??_store+0)+0,w
  7120  1393  00BE               	movwf	0+(_matrix)+03h
  7121                           	
  7122  1394                     l253:	
  7123                           	line	348
  7124                           ;PR28.c: 348: if(Buttons.BTN4 == 1) { matrix[1][1] = 'O';}
  7125  1394  0836               	movf	0+(_Buttons)+04h,w
  7126  1395  3A01               	xorlw	01h
  7127  1396  1D03               	skipz
  7128  1397  2B99               	goto	u4451
  7129  1398  2B9A               	goto	u4450
  7130  1399                     u4451:
  7131  1399  2B9E               	goto	l254
  7132  139A                     u4450:
  7133                           	
  7134  139A                     l3402:	
  7135  139A  304F               	movlw	(04Fh)
  7136  139B  00D2               	movwf	(??_store+0)+0
  7137  139C  0852               	movf	(??_store+0)+0,w
  7138  139D  00BF               	movwf	0+(_matrix)+04h
  7139                           	
  7140  139E                     l254:	
  7141                           	line	349
  7142                           ;PR28.c: 349: if(Buttons.BTN5 == 1) { matrix[1][2] = 'O';}
  7143  139E  0837               	movf	0+(_Buttons)+05h,w
  7144  139F  3A01               	xorlw	01h
  7145  13A0  1D03               	skipz
  7146  13A1  2BA3               	goto	u4461
  7147  13A2  2BA4               	goto	u4460
  7148  13A3                     u4461:
  7149  13A3  2BA8               	goto	l255
  7150  13A4                     u4460:
  7151                           	
  7152  13A4                     l3404:	
  7153  13A4  304F               	movlw	(04Fh)
  7154  13A5  00D2               	movwf	(??_store+0)+0
  7155  13A6  0852               	movf	(??_store+0)+0,w
  7156  13A7  00C0               	movwf	0+(_matrix)+05h
  7157                           	
  7158  13A8                     l255:	
  7159                           	line	350
  7160                           ;PR28.c: 350: if(Buttons.BTN6 == 1) { matrix[2][0] = 'O';}
  7161  13A8  0838               	movf	0+(_Buttons)+06h,w
  7162  13A9  3A01               	xorlw	01h
  7163  13AA  1D03               	skipz
  7164  13AB  2BAD               	goto	u4471
  7165  13AC  2BAE               	goto	u4470
  7166  13AD                     u4471:
  7167  13AD  2BB2               	goto	l256
  7168  13AE                     u4470:
  7169                           	
  7170  13AE                     l3406:	
  7171  13AE  304F               	movlw	(04Fh)
  7172  13AF  00D2               	movwf	(??_store+0)+0
  7173  13B0  0852               	movf	(??_store+0)+0,w
  7174  13B1  00C1               	movwf	0+(_matrix)+06h
  7175                           	
  7176  13B2                     l256:	
  7177                           	line	351
  7178                           ;PR28.c: 351: if(Buttons.BTN7 == 1) { matrix[2][1] = 'O';}
  7179  13B2  0839               	movf	0+(_Buttons)+07h,w
  7180  13B3  3A01               	xorlw	01h
  7181  13B4  1D03               	skipz
  7182  13B5  2BB7               	goto	u4481
  7183  13B6  2BB8               	goto	u4480
  7184  13B7                     u4481:
  7185  13B7  2BBC               	goto	l257
  7186  13B8                     u4480:
  7187                           	
  7188  13B8                     l3408:	
  7189  13B8  304F               	movlw	(04Fh)
  7190  13B9  00D2               	movwf	(??_store+0)+0
  7191  13BA  0852               	movf	(??_store+0)+0,w
  7192  13BB  00C2               	movwf	0+(_matrix)+07h
  7193                           	
  7194  13BC                     l257:	
  7195                           	line	352
  7196                           ;PR28.c: 352: if(Buttons.BTN8 == 1) { matrix[2][2] = 'O';}
  7197  13BC  083A               	movf	0+(_Buttons)+08h,w
  7198  13BD  3A01               	xorlw	01h
  7199  13BE  1D03               	skipz
  7200  13BF  2BC1               	goto	u4491
  7201  13C0  2BC2               	goto	u4490
  7202  13C1                     u4491:
  7203  13C1  2BC9               	goto	l259
  7204  13C2                     u4490:
  7205                           	
  7206  13C2                     l3410:	
  7207  13C2  304F               	movlw	(04Fh)
  7208  13C3  00D2               	movwf	(??_store+0)+0
  7209  13C4  0852               	movf	(??_store+0)+0,w
  7210  13C5  00C3               	movwf	0+(_matrix)+08h
  7211  13C6  2BC9               	goto	l259
  7212                           	
  7213  13C7                     l258:	
  7214  13C7  2BC9               	goto	l259
  7215                           	line	353
  7216                           	
  7217  13C8                     l249:	
  7218  13C8  2BC9               	goto	l259
  7219                           	line	354
  7220                           	
  7221  13C9                     l248:	
  7222                           	
  7223  13C9                     l259:	
  7224  13C9  0008               	return
  7225                           	opt stack 0
  7226                           GLOBAL	__end_of_store
  7227  13CA                     	__end_of_store:
  7228                           	signat	_store,88
  7229                           	global	_DisplayLEDs
  7230                           
  7231 ;; *************** function _DisplayLEDs *****************
  7232 ;; Defined at:
  7233 ;;		line 591 in file "PR28.c"
  7234 ;; Parameters:    Size  Location     Type
  7235 ;;		None
  7236 ;; Auto vars:     Size  Location     Type
  7237 ;;  k               2    3[BANK0 ] int 
  7238 ;; Return value:  Size  Location     Type
  7239 ;;		None               void
  7240 ;; Registers used:
  7241 ;;		wreg, fsr0l, fsr0h, status,2, status,0, btemp+1, pclath, cstack
  7242 ;; Tracked objects:
  7243 ;;		On entry : 0/0
  7244 ;;		On exit  : 0/0
  7245 ;;		Unchanged: 0/0
  7246 ;; Data sizes:     COMMON   BANK0   BANK1   BANK3   BANK2
  7247 ;;      Params:         0       0       0       0       0
  7248 ;;      Locals:         0       2       0       0       0
  7249 ;;      Temps:          0       1       0       0       0
  7250 ;;      Totals:         0       3       0       0       0
  7251 ;;Total ram usage:        3 bytes
  7252 ;; Hardware stack levels used:    1
  7253 ;; Hardware stack levels required when called:    4
  7254 ;; This function calls:
  7255 ;;		_led_display1
  7256 ;;		_led_display2
  7257 ;;		_led_display3
  7258 ;; This function is called by:
  7259 ;;		_checkstatus
  7260 ;; This function uses a non-reentrant model
  7261 ;;
  7262                           psect	text675,local,class=CODE,delta=2,merge=1
  7263                           global __ptext675
  7264  14A0                     __ptext675:
  7265                           psect	text675
  7266                           	file	"PR28.c"
  7267                           	line	591
  7268                           	global	__size_of_DisplayLEDs
  7269  F2AD                     	__size_of_DisplayLEDs	equ	__end_of_DisplayLEDs-_DisplayLEDs
  7270                           	
  7271  14A0                     _DisplayLEDs:	
  7272                           	opt	stack 0
  7273                           ; Regs used in _DisplayLEDs: [wreg-fsr0h+status,2+status,0+btemp+1+pclath+cstack]
  7274                           	line	592
  7275                           	
  7276  14A0                     l3412:	
  7277                           ;PR28.c: 592: RC5 = 1; RC6 =1; RC7 =1;
  7278  14A0  1283               	bcf	status, 5	;RP0=0, select bank0
  7279  14A1  1303               	bcf	status, 6	;RP1=0, select bank0
  7280  14A2  1687               	bsf	(61/8),(61)&7	;volatile
  7281  14A3  1707               	bsf	(62/8),(62)&7	;volatile
  7282  14A4  1787               	bsf	(63/8),(63)&7	;volatile
  7283                           	line	593
  7284                           ;PR28.c: 593: RA6 = RA7 = RA0 = 0;
  7285  14A5  1005               	bcf	(40/8),(40)&7	;volatile
  7286  14A6  1385               	bcf	(47/8),(47)&7	;volatile
  7287  14A7  1305               	bcf	(46/8),(46)&7	;volatile
  7288                           	line	596
  7289                           	
  7290  14A8                     l3414:	
  7291                           ;PR28.c: 596: for(int k = 0; k< 3 ; k++)
  7292  14A8  01D5               	clrf	(DisplayLEDs@k)
  7293  14A9  01D6               	clrf	(DisplayLEDs@k+1)
  7294                           	
  7295  14AA                     l3416:	
  7296  14AA  0856               	movf	(DisplayLEDs@k+1),w
  7297  14AB  3A80               	xorlw	80h
  7298  14AC  00FF               	movwf	btemp+1
  7299  14AD  3080               	movlw	(high(03h))^80h
  7300  14AE  027F               	subwf	btemp+1,w
  7301  14AF  1D03               	skipz
  7302  14B0  2CB3               	goto	u4505
  7303  14B1  3003               	movlw	low(03h)
  7304  14B2  0255               	subwf	(DisplayLEDs@k),w
  7305  14B3                     u4505:
  7306                           
  7307  14B3  1C03               	skipc
  7308  14B4  2CB6               	goto	u4501
  7309  14B5  2CB7               	goto	u4500
  7310  14B6                     u4501:
  7311  14B6  2CBB               	goto	l3420
  7312  14B7                     u4500:
  7313  14B7  120A  118A  2F4C   	goto	l505
  7314                           	
  7315  14BA                     l3418:	
  7316  14BA  2CB7               	goto	l505
  7317                           	line	597
  7318                           	
  7319  14BB                     l392:	
  7320                           	line	598
  7321                           	
  7322  14BB                     l3420:	
  7323                           ;PR28.c: 597: {
  7324                           ;PR28.c: 598: led_display1(result1[0]);led_display2(result1[1]);led_display3(result1[2])
                                 ;
  7325  14BB  1283               	bcf	status, 5	;RP0=0, select bank0
  7326  14BC  1303               	bcf	status, 6	;RP1=0, select bank0
  7327  14BD  0844               	movf	(_result1),w
  7328  14BE  160A  118A  227D   	fcall	_led_display1
              160A  118A         
  7329  14C3  1283               	bcf	status, 5	;RP0=0, select bank0
  7330  14C4  1303               	bcf	status, 6	;RP1=0, select bank0
  7331  14C5  0845               	movf	0+(_result1)+01h,w
  7332  14C6  160A  118A  21F7   	fcall	_led_display2
              160A  118A         
  7333  14CB  1283               	bcf	status, 5	;RP0=0, select bank0
  7334  14CC  1303               	bcf	status, 6	;RP1=0, select bank0
  7335  14CD  0846               	movf	0+(_result1)+02h,w
  7336  14CE  160A  118A  2171   	fcall	_led_display3
              160A  118A         
  7337                           	line	599
  7338                           	
  7339  14D3                     l3422:	
  7340                           ;PR28.c: 599: if(matrix[0][k] == 'O' & matrix[1][k] == 'O' & matrix[2][k] == 'O'){result
                                 1[k] = 0b01001001;}
  7341  14D3  1283               	bcf	status, 5	;RP0=0, select bank0
  7342  14D4  1303               	bcf	status, 6	;RP1=0, select bank0
  7343  14D5  0855               	movf	(DisplayLEDs@k),w
  7344  14D6  3E3B               	addlw	_matrix&0ffh
  7345  14D7  0084               	movwf	fsr0
  7346  14D8  1383               	bcf	status, 7	;select IRP bank0
  7347  14D9  0800               	movf	indf,w
  7348  14DA  3A4F               	xorlw	04Fh
  7349  14DB  1D03               	skipz
  7350  14DC  2CDE               	goto	u4511
  7351  14DD  2CDF               	goto	u4510
  7352  14DE                     u4511:
  7353  14DE  2CFB               	goto	l3430
  7354  14DF                     u4510:
  7355                           	
  7356  14DF                     l3424:	
  7357  14DF  0855               	movf	(DisplayLEDs@k),w
  7358  14E0  3E3E               	addlw	_matrix+03h&0ffh
  7359  14E1  0084               	movwf	fsr0
  7360  14E2  0800               	movf	indf,w
  7361  14E3  3A4F               	xorlw	04Fh
  7362  14E4  1D03               	skipz
  7363  14E5  2CE7               	goto	u4521
  7364  14E6  2CE8               	goto	u4520
  7365  14E7                     u4521:
  7366  14E7  2CFB               	goto	l3430
  7367  14E8                     u4520:
  7368                           	
  7369  14E8                     l3426:	
  7370  14E8  0855               	movf	(DisplayLEDs@k),w
  7371  14E9  3E41               	addlw	_matrix+06h&0ffh
  7372  14EA  0084               	movwf	fsr0
  7373  14EB  0800               	movf	indf,w
  7374  14EC  3A4F               	xorlw	04Fh
  7375  14ED  1D03               	skipz
  7376  14EE  2CF0               	goto	u4531
  7377  14EF  2CF1               	goto	u4530
  7378  14F0                     u4531:
  7379  14F0  2CFB               	goto	l3430
  7380  14F1                     u4530:
  7381                           	
  7382  14F1                     l3428:	
  7383  14F1  3049               	movlw	(049h)
  7384  14F2  00D4               	movwf	(??_DisplayLEDs+0)+0
  7385  14F3  0855               	movf	(DisplayLEDs@k),w
  7386  14F4  3E44               	addlw	_result1&0ffh
  7387  14F5  0084               	movwf	fsr0
  7388  14F6  0854               	movf	(??_DisplayLEDs+0)+0,w
  7389  14F7  0080               	movwf	indf
  7390  14F8  120A  118A  2F1E   	goto	l3870
  7391                           	line	600
  7392                           	
  7393  14FB                     l394:	
  7394                           	
  7395  14FB                     l3430:	
  7396                           ;PR28.c: 600: else if(matrix[0][k] == 'O' & matrix[1][k] == 'O' & matrix[2][k] == ' '){r
                                 esult1[k] = 0b01001000;}
  7397  14FB  0855               	movf	(DisplayLEDs@k),w
  7398  14FC  3E3B               	addlw	_matrix&0ffh
  7399  14FD  0084               	movwf	fsr0
  7400  14FE  0800               	movf	indf,w
  7401  14FF  3A4F               	xorlw	04Fh
  7402  1500  1D03               	skipz
  7403  1501  2D03               	goto	u4541
  7404  1502  2D04               	goto	u4540
  7405  1503                     u4541:
  7406  1503  2D1E               	goto	l3438
  7407  1504                     u4540:
  7408                           	
  7409  1504                     l3432:	
  7410  1504  0855               	movf	(DisplayLEDs@k),w
  7411  1505  3E3E               	addlw	_matrix+03h&0ffh
  7412  1506  0084               	movwf	fsr0
  7413  1507  0800               	movf	indf,w
  7414  1508  3A4F               	xorlw	04Fh
  7415  1509  1D03               	skipz
  7416  150A  2D0C               	goto	u4551
  7417  150B  2D0D               	goto	u4550
  7418  150C                     u4551:
  7419  150C  2D1E               	goto	l3438
  7420  150D                     u4550:
  7421                           	
  7422  150D                     l3434:	
  7423  150D  0855               	movf	(DisplayLEDs@k),w
  7424  150E  3E41               	addlw	_matrix+06h&0ffh
  7425  150F  0084               	movwf	fsr0
  7426  1510  0800               	movf	indf,w
  7427  1511  3A20               	xorlw	020h
  7428  1512  1D03               	skipz
  7429  1513  2D15               	goto	u4561
  7430  1514  2D16               	goto	u4560
  7431  1515                     u4561:
  7432  1515  2D1E               	goto	l3438
  7433  1516                     u4560:
  7434                           	
  7435  1516                     l3436:	
  7436  1516  3048               	movlw	(048h)
  7437  1517  00D4               	movwf	(??_DisplayLEDs+0)+0
  7438  1518  0855               	movf	(DisplayLEDs@k),w
  7439  1519  3E44               	addlw	_result1&0ffh
  7440  151A  0084               	movwf	fsr0
  7441  151B  0854               	movf	(??_DisplayLEDs+0)+0,w
  7442  151C  0080               	movwf	indf
  7443  151D  2CF8               	goto	l3870
  7444                           	line	601
  7445                           	
  7446  151E                     l396:	
  7447                           	
  7448  151E                     l3438:	
  7449                           ;PR28.c: 601: else if(matrix[0][k] == 'O' & matrix[1][k] == ' ' & matrix[2][k] == 'O'){r
                                 esult1[k] = 0b01000001;}
  7450  151E  0855               	movf	(DisplayLEDs@k),w
  7451  151F  3E3B               	addlw	_matrix&0ffh
  7452  1520  0084               	movwf	fsr0
  7453  1521  0800               	movf	indf,w
  7454  1522  3A4F               	xorlw	04Fh
  7455  1523  1D03               	skipz
  7456  1524  2D26               	goto	u4571
  7457  1525  2D27               	goto	u4570
  7458  1526                     u4571:
  7459  1526  2D41               	goto	l3446
  7460  1527                     u4570:
  7461                           	
  7462  1527                     l3440:	
  7463  1527  0855               	movf	(DisplayLEDs@k),w
  7464  1528  3E3E               	addlw	_matrix+03h&0ffh
  7465  1529  0084               	movwf	fsr0
  7466  152A  0800               	movf	indf,w
  7467  152B  3A20               	xorlw	020h
  7468  152C  1D03               	skipz
  7469  152D  2D2F               	goto	u4581
  7470  152E  2D30               	goto	u4580
  7471  152F                     u4581:
  7472  152F  2D41               	goto	l3446
  7473  1530                     u4580:
  7474                           	
  7475  1530                     l3442:	
  7476  1530  0855               	movf	(DisplayLEDs@k),w
  7477  1531  3E41               	addlw	_matrix+06h&0ffh
  7478  1532  0084               	movwf	fsr0
  7479  1533  0800               	movf	indf,w
  7480  1534  3A4F               	xorlw	04Fh
  7481  1535  1D03               	skipz
  7482  1536  2D38               	goto	u4591
  7483  1537  2D39               	goto	u4590
  7484  1538                     u4591:
  7485  1538  2D41               	goto	l3446
  7486  1539                     u4590:
  7487                           	
  7488  1539                     l3444:	
  7489  1539  3041               	movlw	(041h)
  7490  153A  00D4               	movwf	(??_DisplayLEDs+0)+0
  7491  153B  0855               	movf	(DisplayLEDs@k),w
  7492  153C  3E44               	addlw	_result1&0ffh
  7493  153D  0084               	movwf	fsr0
  7494  153E  0854               	movf	(??_DisplayLEDs+0)+0,w
  7495  153F  0080               	movwf	indf
  7496  1540  2CF8               	goto	l3870
  7497                           	line	602
  7498                           	
  7499  1541                     l398:	
  7500                           	
  7501  1541                     l3446:	
  7502                           ;PR28.c: 602: else if(matrix[0][k] == 'O' & matrix[1][k] == ' ' & matrix[2][k] == ' '){r
                                 esult1[k] = 0b01000000;}
  7503  1541  0855               	movf	(DisplayLEDs@k),w
  7504  1542  3E3B               	addlw	_matrix&0ffh
  7505  1543  0084               	movwf	fsr0
  7506  1544  0800               	movf	indf,w
  7507  1545  3A4F               	xorlw	04Fh
  7508  1546  1D03               	skipz
  7509  1547  2D49               	goto	u4601
  7510  1548  2D4A               	goto	u4600
  7511  1549                     u4601:
  7512  1549  2D64               	goto	l3454
  7513  154A                     u4600:
  7514                           	
  7515  154A                     l3448:	
  7516  154A  0855               	movf	(DisplayLEDs@k),w
  7517  154B  3E3E               	addlw	_matrix+03h&0ffh
  7518  154C  0084               	movwf	fsr0
  7519  154D  0800               	movf	indf,w
  7520  154E  3A20               	xorlw	020h
  7521  154F  1D03               	skipz
  7522  1550  2D52               	goto	u4611
  7523  1551  2D53               	goto	u4610
  7524  1552                     u4611:
  7525  1552  2D64               	goto	l3454
  7526  1553                     u4610:
  7527                           	
  7528  1553                     l3450:	
  7529  1553  0855               	movf	(DisplayLEDs@k),w
  7530  1554  3E41               	addlw	_matrix+06h&0ffh
  7531  1555  0084               	movwf	fsr0
  7532  1556  0800               	movf	indf,w
  7533  1557  3A20               	xorlw	020h
  7534  1558  1D03               	skipz
  7535  1559  2D5B               	goto	u4621
  7536  155A  2D5C               	goto	u4620
  7537  155B                     u4621:
  7538  155B  2D64               	goto	l3454
  7539  155C                     u4620:
  7540                           	
  7541  155C                     l3452:	
  7542  155C  3040               	movlw	(040h)
  7543  155D  00D4               	movwf	(??_DisplayLEDs+0)+0
  7544  155E  0855               	movf	(DisplayLEDs@k),w
  7545  155F  3E44               	addlw	_result1&0ffh
  7546  1560  0084               	movwf	fsr0
  7547  1561  0854               	movf	(??_DisplayLEDs+0)+0,w
  7548  1562  0080               	movwf	indf
  7549  1563  2CF8               	goto	l3870
  7550                           	line	603
  7551                           	
  7552  1564                     l400:	
  7553                           	
  7554  1564                     l3454:	
  7555                           ;PR28.c: 603: else if(matrix[0][k] == ' ' & matrix[1][k] == 'O' & matrix[2][k] == 'O'){r
                                 esult1[k] = 0b00001001;}
  7556  1564  0855               	movf	(DisplayLEDs@k),w
  7557  1565  3E3B               	addlw	_matrix&0ffh
  7558  1566  0084               	movwf	fsr0
  7559  1567  0800               	movf	indf,w
  7560  1568  3A20               	xorlw	020h
  7561  1569  1D03               	skipz
  7562  156A  2D6C               	goto	u4631
  7563  156B  2D6D               	goto	u4630
  7564  156C                     u4631:
  7565  156C  2D87               	goto	l3462
  7566  156D                     u4630:
  7567                           	
  7568  156D                     l3456:	
  7569  156D  0855               	movf	(DisplayLEDs@k),w
  7570  156E  3E3E               	addlw	_matrix+03h&0ffh
  7571  156F  0084               	movwf	fsr0
  7572  1570  0800               	movf	indf,w
  7573  1571  3A4F               	xorlw	04Fh
  7574  1572  1D03               	skipz
  7575  1573  2D75               	goto	u4641
  7576  1574  2D76               	goto	u4640
  7577  1575                     u4641:
  7578  1575  2D87               	goto	l3462
  7579  1576                     u4640:
  7580                           	
  7581  1576                     l3458:	
  7582  1576  0855               	movf	(DisplayLEDs@k),w
  7583  1577  3E41               	addlw	_matrix+06h&0ffh
  7584  1578  0084               	movwf	fsr0
  7585  1579  0800               	movf	indf,w
  7586  157A  3A4F               	xorlw	04Fh
  7587  157B  1D03               	skipz
  7588  157C  2D7E               	goto	u4651
  7589  157D  2D7F               	goto	u4650
  7590  157E                     u4651:
  7591  157E  2D87               	goto	l3462
  7592  157F                     u4650:
  7593                           	
  7594  157F                     l3460:	
  7595  157F  3009               	movlw	(09h)
  7596  1580  00D4               	movwf	(??_DisplayLEDs+0)+0
  7597  1581  0855               	movf	(DisplayLEDs@k),w
  7598  1582  3E44               	addlw	_result1&0ffh
  7599  1583  0084               	movwf	fsr0
  7600  1584  0854               	movf	(??_DisplayLEDs+0)+0,w
  7601  1585  0080               	movwf	indf
  7602  1586  2CF8               	goto	l3870
  7603                           	line	604
  7604                           	
  7605  1587                     l402:	
  7606                           	
  7607  1587                     l3462:	
  7608                           ;PR28.c: 604: else if(matrix[0][k] == ' ' & matrix[1][k] == 'O' & matrix[2][k] == ' '){r
                                 esult1[k] = 0b00001000;}
  7609  1587  0855               	movf	(DisplayLEDs@k),w
  7610  1588  3E3B               	addlw	_matrix&0ffh
  7611  1589  0084               	movwf	fsr0
  7612  158A  0800               	movf	indf,w
  7613  158B  3A20               	xorlw	020h
  7614  158C  1D03               	skipz
  7615  158D  2D8F               	goto	u4661
  7616  158E  2D92               	goto	u4660
  7617  158F                     u4661:
  7618  158F  120A  118A  2815   	goto	l3470
  7619  1592                     u4660:
  7620                           	
  7621  1592                     l3464:	
  7622  1592  0855               	movf	(DisplayLEDs@k),w
  7623  1593  3E3E               	addlw	_matrix+03h&0ffh
  7624  1594  0084               	movwf	fsr0
  7625  1595  0800               	movf	indf,w
  7626  1596  3A4F               	xorlw	04Fh
  7627  1597  1D03               	skipz
  7628  1598  2D9A               	goto	u4671
  7629  1599  2D9B               	goto	u4670
  7630  159A                     u4671:
  7631  159A  2D8F               	goto	l3470
  7632  159B                     u4670:
  7633                           	
  7634  159B                     l3466:	
  7635  159B  0855               	movf	(DisplayLEDs@k),w
  7636  159C  3E41               	addlw	_matrix+06h&0ffh
  7637  159D  0084               	movwf	fsr0
  7638  159E  0800               	movf	indf,w
  7639  159F  3A20               	xorlw	020h
  7640  15A0  1D03               	skipz
  7641  15A1  2DA3               	goto	u4681
  7642  15A2  2DA4               	goto	u4680
  7643  15A3                     u4681:
  7644  15A3  2D8F               	goto	l3470
  7645  15A4                     u4680:
  7646                           	
  7647  15A4                     l3468:	
  7648  15A4  3008               	movlw	(08h)
  7649  15A5  00D4               	movwf	(??_DisplayLEDs+0)+0
  7650  15A6  0855               	movf	(DisplayLEDs@k),w
  7651  15A7  3E44               	addlw	_result1&0ffh
  7652  15A8  0084               	movwf	fsr0
  7653  15A9  0854               	movf	(??_DisplayLEDs+0)+0,w
  7654  15AA  0080               	movwf	indf
  7655  15AB  2CF8               	goto	l3870
  7656                           	line	605
  7657                           	
  7658  0015                     l404:	
  7659                           	
  7660  0015                     l3470:	
  7661                           ;PR28.c: 605: else if(matrix[0][k] == ' ' & matrix[1][k] == ' ' & matrix[2][k] == 'O'){r
                                 esult1[k] = 0b00000001;}
  7662  0015  0855               	movf	(DisplayLEDs@k),w
  7663  0016  3E3B               	addlw	_matrix&0ffh
  7664  0017  0084               	movwf	fsr0
  7665  0018  0800               	movf	indf,w
  7666  0019  3A20               	xorlw	020h
  7667  001A  1D03               	skipz
  7668  001B  281D               	goto	u4691
  7669  001C  281E               	goto	u4690
  7670  001D                     u4691:
  7671  001D  2837               	goto	l3478
  7672  001E                     u4690:
  7673                           	
  7674  001E                     l3472:	
  7675  001E  0855               	movf	(DisplayLEDs@k),w
  7676  001F  3E3E               	addlw	_matrix+03h&0ffh
  7677  0020  0084               	movwf	fsr0
  7678  0021  0800               	movf	indf,w
  7679  0022  3A20               	xorlw	020h
  7680  0023  1D03               	skipz
  7681  0024  2826               	goto	u4701
  7682  0025  2827               	goto	u4700
  7683  0026                     u4701:
  7684  0026  2837               	goto	l3478
  7685  0027                     u4700:
  7686                           	
  7687  0027                     l3474:	
  7688  0027  0855               	movf	(DisplayLEDs@k),w
  7689  0028  3E41               	addlw	_matrix+06h&0ffh
  7690  0029  0084               	movwf	fsr0
  7691  002A  0800               	movf	indf,w
  7692  002B  3A4F               	xorlw	04Fh
  7693  002C  1D03               	skipz
  7694  002D  282F               	goto	u4711
  7695  002E  2830               	goto	u4710
  7696  002F                     u4711:
  7697  002F  2837               	goto	l3478
  7698  0030                     u4710:
  7699                           	
  7700  0030                     l3476:	
  7701  0030  0855               	movf	(DisplayLEDs@k),w
  7702  0031  3E44               	addlw	_result1&0ffh
  7703  0032  0084               	movwf	fsr0
  7704  0033  0180               	clrf	indf
  7705  0034  1403               	bsf	status,0
  7706  0035  0D80               	rlf	indf,f
  7707  0036  2F1E               	goto	l3870
  7708                           	line	607
  7709                           	
  7710  0037                     l406:	
  7711                           	
  7712  0037                     l3478:	
  7713                           ;PR28.c: 607: else if(matrix[0][k] == 'O' & matrix[1][k] == 'O' & matrix[2][k] == 'X'){r
                                 esult1[k] = 0b01001010;}
  7714  0037  0855               	movf	(DisplayLEDs@k),w
  7715  0038  3E3B               	addlw	_matrix&0ffh
  7716  0039  0084               	movwf	fsr0
  7717  003A  0800               	movf	indf,w
  7718  003B  3A4F               	xorlw	04Fh
  7719  003C  1D03               	skipz
  7720  003D  283F               	goto	u4721
  7721  003E  2840               	goto	u4720
  7722  003F                     u4721:
  7723  003F  285A               	goto	l3486
  7724  0040                     u4720:
  7725                           	
  7726  0040                     l3480:	
  7727  0040  0855               	movf	(DisplayLEDs@k),w
  7728  0041  3E3E               	addlw	_matrix+03h&0ffh
  7729  0042  0084               	movwf	fsr0
  7730  0043  0800               	movf	indf,w
  7731  0044  3A4F               	xorlw	04Fh
  7732  0045  1D03               	skipz
  7733  0046  2848               	goto	u4731
  7734  0047  2849               	goto	u4730
  7735  0048                     u4731:
  7736  0048  285A               	goto	l3486
  7737  0049                     u4730:
  7738                           	
  7739  0049                     l3482:	
  7740  0049  0855               	movf	(DisplayLEDs@k),w
  7741  004A  3E41               	addlw	_matrix+06h&0ffh
  7742  004B  0084               	movwf	fsr0
  7743  004C  0800               	movf	indf,w
  7744  004D  3A58               	xorlw	058h
  7745  004E  1D03               	skipz
  7746  004F  2851               	goto	u4741
  7747  0050  2852               	goto	u4740
  7748  0051                     u4741:
  7749  0051  285A               	goto	l3486
  7750  0052                     u4740:
  7751                           	
  7752  0052                     l3484:	
  7753  0052  304A               	movlw	(04Ah)
  7754  0053  00D4               	movwf	(??_DisplayLEDs+0)+0
  7755  0054  0855               	movf	(DisplayLEDs@k),w
  7756  0055  3E44               	addlw	_result1&0ffh
  7757  0056  0084               	movwf	fsr0
  7758  0057  0854               	movf	(??_DisplayLEDs+0)+0,w
  7759  0058  0080               	movwf	indf
  7760  0059  2F1E               	goto	l3870
  7761                           	line	608
  7762                           	
  7763  005A                     l408:	
  7764                           	
  7765  005A                     l3486:	
  7766                           ;PR28.c: 608: else if(matrix[0][k] == 'O' & matrix[1][k] == 'O' & matrix[2][k] == ' '){r
                                 esult1[k] = 0b01001000;}
  7767  005A  0855               	movf	(DisplayLEDs@k),w
  7768  005B  3E3B               	addlw	_matrix&0ffh
  7769  005C  0084               	movwf	fsr0
  7770  005D  0800               	movf	indf,w
  7771  005E  3A4F               	xorlw	04Fh
  7772  005F  1D03               	skipz
  7773  0060  2862               	goto	u4751
  7774  0061  2863               	goto	u4750
  7775  0062                     u4751:
  7776  0062  287D               	goto	l3494
  7777  0063                     u4750:
  7778                           	
  7779  0063                     l3488:	
  7780  0063  0855               	movf	(DisplayLEDs@k),w
  7781  0064  3E3E               	addlw	_matrix+03h&0ffh
  7782  0065  0084               	movwf	fsr0
  7783  0066  0800               	movf	indf,w
  7784  0067  3A4F               	xorlw	04Fh
  7785  0068  1D03               	skipz
  7786  0069  286B               	goto	u4761
  7787  006A  286C               	goto	u4760
  7788  006B                     u4761:
  7789  006B  287D               	goto	l3494
  7790  006C                     u4760:
  7791                           	
  7792  006C                     l3490:	
  7793  006C  0855               	movf	(DisplayLEDs@k),w
  7794  006D  3E41               	addlw	_matrix+06h&0ffh
  7795  006E  0084               	movwf	fsr0
  7796  006F  0800               	movf	indf,w
  7797  0070  3A20               	xorlw	020h
  7798  0071  1D03               	skipz
  7799  0072  2874               	goto	u4771
  7800  0073  2875               	goto	u4770
  7801  0074                     u4771:
  7802  0074  287D               	goto	l3494
  7803  0075                     u4770:
  7804                           	
  7805  0075                     l3492:	
  7806  0075  3048               	movlw	(048h)
  7807  0076  00D4               	movwf	(??_DisplayLEDs+0)+0
  7808  0077  0855               	movf	(DisplayLEDs@k),w
  7809  0078  3E44               	addlw	_result1&0ffh
  7810  0079  0084               	movwf	fsr0
  7811  007A  0854               	movf	(??_DisplayLEDs+0)+0,w
  7812  007B  0080               	movwf	indf
  7813  007C  2F1E               	goto	l3870
  7814                           	line	609
  7815                           	
  7816  007D                     l410:	
  7817                           	
  7818  007D                     l3494:	
  7819                           ;PR28.c: 609: else if(matrix[0][k] == 'O' & matrix[1][k] == ' ' & matrix[2][k] == 'X'){r
                                 esult1[k] = 0b01000010;}
  7820  007D  0855               	movf	(DisplayLEDs@k),w
  7821  007E  3E3B               	addlw	_matrix&0ffh
  7822  007F  0084               	movwf	fsr0
  7823  0080  0800               	movf	indf,w
  7824  0081  3A4F               	xorlw	04Fh
  7825  0082  1D03               	skipz
  7826  0083  2885               	goto	u4781
  7827  0084  2886               	goto	u4780
  7828  0085                     u4781:
  7829  0085  28A0               	goto	l3502
  7830  0086                     u4780:
  7831                           	
  7832  0086                     l3496:	
  7833  0086  0855               	movf	(DisplayLEDs@k),w
  7834  0087  3E3E               	addlw	_matrix+03h&0ffh
  7835  0088  0084               	movwf	fsr0
  7836  0089  0800               	movf	indf,w
  7837  008A  3A20               	xorlw	020h
  7838  008B  1D03               	skipz
  7839  008C  288E               	goto	u4791
  7840  008D  288F               	goto	u4790
  7841  008E                     u4791:
  7842  008E  28A0               	goto	l3502
  7843  008F                     u4790:
  7844                           	
  7845  008F                     l3498:	
  7846  008F  0855               	movf	(DisplayLEDs@k),w
  7847  0090  3E41               	addlw	_matrix+06h&0ffh
  7848  0091  0084               	movwf	fsr0
  7849  0092  0800               	movf	indf,w
  7850  0093  3A58               	xorlw	058h
  7851  0094  1D03               	skipz
  7852  0095  2897               	goto	u4801
  7853  0096  2898               	goto	u4800
  7854  0097                     u4801:
  7855  0097  28A0               	goto	l3502
  7856  0098                     u4800:
  7857                           	
  7858  0098                     l3500:	
  7859  0098  3042               	movlw	(042h)
  7860  0099  00D4               	movwf	(??_DisplayLEDs+0)+0
  7861  009A  0855               	movf	(DisplayLEDs@k),w
  7862  009B  3E44               	addlw	_result1&0ffh
  7863  009C  0084               	movwf	fsr0
  7864  009D  0854               	movf	(??_DisplayLEDs+0)+0,w
  7865  009E  0080               	movwf	indf
  7866  009F  2F1E               	goto	l3870
  7867                           	line	610
  7868                           	
  7869  00A0                     l412:	
  7870                           	
  7871  00A0                     l3502:	
  7872                           ;PR28.c: 610: else if(matrix[0][k] == 'O' & matrix[1][k] == ' ' & matrix[2][k] == ' '){r
                                 esult1[k] = 0b01000000;}
  7873  00A0  0855               	movf	(DisplayLEDs@k),w
  7874  00A1  3E3B               	addlw	_matrix&0ffh
  7875  00A2  0084               	movwf	fsr0
  7876  00A3  0800               	movf	indf,w
  7877  00A4  3A4F               	xorlw	04Fh
  7878  00A5  1D03               	skipz
  7879  00A6  28A8               	goto	u4811
  7880  00A7  28A9               	goto	u4810
  7881  00A8                     u4811:
  7882  00A8  28C3               	goto	l3510
  7883  00A9                     u4810:
  7884                           	
  7885  00A9                     l3504:	
  7886  00A9  0855               	movf	(DisplayLEDs@k),w
  7887  00AA  3E3E               	addlw	_matrix+03h&0ffh
  7888  00AB  0084               	movwf	fsr0
  7889  00AC  0800               	movf	indf,w
  7890  00AD  3A20               	xorlw	020h
  7891  00AE  1D03               	skipz
  7892  00AF  28B1               	goto	u4821
  7893  00B0  28B2               	goto	u4820
  7894  00B1                     u4821:
  7895  00B1  28C3               	goto	l3510
  7896  00B2                     u4820:
  7897                           	
  7898  00B2                     l3506:	
  7899  00B2  0855               	movf	(DisplayLEDs@k),w
  7900  00B3  3E41               	addlw	_matrix+06h&0ffh
  7901  00B4  0084               	movwf	fsr0
  7902  00B5  0800               	movf	indf,w
  7903  00B6  3A20               	xorlw	020h
  7904  00B7  1D03               	skipz
  7905  00B8  28BA               	goto	u4831
  7906  00B9  28BB               	goto	u4830
  7907  00BA                     u4831:
  7908  00BA  28C3               	goto	l3510
  7909  00BB                     u4830:
  7910                           	
  7911  00BB                     l3508:	
  7912  00BB  3040               	movlw	(040h)
  7913  00BC  00D4               	movwf	(??_DisplayLEDs+0)+0
  7914  00BD  0855               	movf	(DisplayLEDs@k),w
  7915  00BE  3E44               	addlw	_result1&0ffh
  7916  00BF  0084               	movwf	fsr0
  7917  00C0  0854               	movf	(??_DisplayLEDs+0)+0,w
  7918  00C1  0080               	movwf	indf
  7919  00C2  2F1E               	goto	l3870
  7920                           	line	611
  7921                           	
  7922  00C3                     l414:	
  7923                           	
  7924  00C3                     l3510:	
  7925                           ;PR28.c: 611: else if(matrix[0][k] == ' ' & matrix[1][k] == 'O' & matrix[2][k] == 'X'){r
                                 esult1[k] = 0b00001010;}
  7926  00C3  0855               	movf	(DisplayLEDs@k),w
  7927  00C4  3E3B               	addlw	_matrix&0ffh
  7928  00C5  0084               	movwf	fsr0
  7929  00C6  0800               	movf	indf,w
  7930  00C7  3A20               	xorlw	020h
  7931  00C8  1D03               	skipz
  7932  00C9  28CB               	goto	u4841
  7933  00CA  28CC               	goto	u4840
  7934  00CB                     u4841:
  7935  00CB  28E6               	goto	l3518
  7936  00CC                     u4840:
  7937                           	
  7938  00CC                     l3512:	
  7939  00CC  0855               	movf	(DisplayLEDs@k),w
  7940  00CD  3E3E               	addlw	_matrix+03h&0ffh
  7941  00CE  0084               	movwf	fsr0
  7942  00CF  0800               	movf	indf,w
  7943  00D0  3A4F               	xorlw	04Fh
  7944  00D1  1D03               	skipz
  7945  00D2  28D4               	goto	u4851
  7946  00D3  28D5               	goto	u4850
  7947  00D4                     u4851:
  7948  00D4  28E6               	goto	l3518
  7949  00D5                     u4850:
  7950                           	
  7951  00D5                     l3514:	
  7952  00D5  0855               	movf	(DisplayLEDs@k),w
  7953  00D6  3E41               	addlw	_matrix+06h&0ffh
  7954  00D7  0084               	movwf	fsr0
  7955  00D8  0800               	movf	indf,w
  7956  00D9  3A58               	xorlw	058h
  7957  00DA  1D03               	skipz
  7958  00DB  28DD               	goto	u4861
  7959  00DC  28DE               	goto	u4860
  7960  00DD                     u4861:
  7961  00DD  28E6               	goto	l3518
  7962  00DE                     u4860:
  7963                           	
  7964  00DE                     l3516:	
  7965  00DE  300A               	movlw	(0Ah)
  7966  00DF  00D4               	movwf	(??_DisplayLEDs+0)+0
  7967  00E0  0855               	movf	(DisplayLEDs@k),w
  7968  00E1  3E44               	addlw	_result1&0ffh
  7969  00E2  0084               	movwf	fsr0
  7970  00E3  0854               	movf	(??_DisplayLEDs+0)+0,w
  7971  00E4  0080               	movwf	indf
  7972  00E5  2F1E               	goto	l3870
  7973                           	line	612
  7974                           	
  7975  00E6                     l416:	
  7976                           	
  7977  00E6                     l3518:	
  7978                           ;PR28.c: 612: else if(matrix[0][k] == ' ' & matrix[1][k] == 'O' & matrix[2][k] == ' '){r
                                 esult1[k] = 0b00001000;}
  7979  00E6  0855               	movf	(DisplayLEDs@k),w
  7980  00E7  3E3B               	addlw	_matrix&0ffh
  7981  00E8  0084               	movwf	fsr0
  7982  00E9  0800               	movf	indf,w
  7983  00EA  3A20               	xorlw	020h
  7984  00EB  1D03               	skipz
  7985  00EC  28EE               	goto	u4871
  7986  00ED  28EF               	goto	u4870
  7987  00EE                     u4871:
  7988  00EE  2909               	goto	l3526
  7989  00EF                     u4870:
  7990                           	
  7991  00EF                     l3520:	
  7992  00EF  0855               	movf	(DisplayLEDs@k),w
  7993  00F0  3E3E               	addlw	_matrix+03h&0ffh
  7994  00F1  0084               	movwf	fsr0
  7995  00F2  0800               	movf	indf,w
  7996  00F3  3A4F               	xorlw	04Fh
  7997  00F4  1D03               	skipz
  7998  00F5  28F7               	goto	u4881
  7999  00F6  28F8               	goto	u4880
  8000  00F7                     u4881:
  8001  00F7  2909               	goto	l3526
  8002  00F8                     u4880:
  8003                           	
  8004  00F8                     l3522:	
  8005  00F8  0855               	movf	(DisplayLEDs@k),w
  8006  00F9  3E41               	addlw	_matrix+06h&0ffh
  8007  00FA  0084               	movwf	fsr0
  8008  00FB  0800               	movf	indf,w
  8009  00FC  3A20               	xorlw	020h
  8010  00FD  1D03               	skipz
  8011  00FE  2900               	goto	u4891
  8012  00FF  2901               	goto	u4890
  8013  0100                     u4891:
  8014  0100  2909               	goto	l3526
  8015  0101                     u4890:
  8016                           	
  8017  0101                     l3524:	
  8018  0101  3008               	movlw	(08h)
  8019  0102  00D4               	movwf	(??_DisplayLEDs+0)+0
  8020  0103  0855               	movf	(DisplayLEDs@k),w
  8021  0104  3E44               	addlw	_result1&0ffh
  8022  0105  0084               	movwf	fsr0
  8023  0106  0854               	movf	(??_DisplayLEDs+0)+0,w
  8024  0107  0080               	movwf	indf
  8025  0108  2F1E               	goto	l3870
  8026                           	line	613
  8027                           	
  8028  0109                     l418:	
  8029                           	
  8030  0109                     l3526:	
  8031                           ;PR28.c: 613: else if(matrix[0][k] == ' ' & matrix[1][k] == ' ' & matrix[2][k] == 'X'){r
                                 esult1[k] = 0b00000010;}
  8032  0109  0855               	movf	(DisplayLEDs@k),w
  8033  010A  3E3B               	addlw	_matrix&0ffh
  8034  010B  0084               	movwf	fsr0
  8035  010C  0800               	movf	indf,w
  8036  010D  3A20               	xorlw	020h
  8037  010E  1D03               	skipz
  8038  010F  2911               	goto	u4901
  8039  0110  2912               	goto	u4900
  8040  0111                     u4901:
  8041  0111  292C               	goto	l3534
  8042  0112                     u4900:
  8043                           	
  8044  0112                     l3528:	
  8045  0112  0855               	movf	(DisplayLEDs@k),w
  8046  0113  3E3E               	addlw	_matrix+03h&0ffh
  8047  0114  0084               	movwf	fsr0
  8048  0115  0800               	movf	indf,w
  8049  0116  3A20               	xorlw	020h
  8050  0117  1D03               	skipz
  8051  0118  291A               	goto	u4911
  8052  0119  291B               	goto	u4910
  8053  011A                     u4911:
  8054  011A  292C               	goto	l3534
  8055  011B                     u4910:
  8056                           	
  8057  011B                     l3530:	
  8058  011B  0855               	movf	(DisplayLEDs@k),w
  8059  011C  3E41               	addlw	_matrix+06h&0ffh
  8060  011D  0084               	movwf	fsr0
  8061  011E  0800               	movf	indf,w
  8062  011F  3A58               	xorlw	058h
  8063  0120  1D03               	skipz
  8064  0121  2923               	goto	u4921
  8065  0122  2924               	goto	u4920
  8066  0123                     u4921:
  8067  0123  292C               	goto	l3534
  8068  0124                     u4920:
  8069                           	
  8070  0124                     l3532:	
  8071  0124  3002               	movlw	(02h)
  8072  0125  00D4               	movwf	(??_DisplayLEDs+0)+0
  8073  0126  0855               	movf	(DisplayLEDs@k),w
  8074  0127  3E44               	addlw	_result1&0ffh
  8075  0128  0084               	movwf	fsr0
  8076  0129  0854               	movf	(??_DisplayLEDs+0)+0,w
  8077  012A  0080               	movwf	indf
  8078  012B  2F1E               	goto	l3870
  8079                           	line	615
  8080                           	
  8081  012C                     l420:	
  8082                           	
  8083  012C                     l3534:	
  8084                           ;PR28.c: 615: else if(matrix[0][k] == 'O' & matrix[1][k] == 'X' & matrix[2][k] == 'O'){r
                                 esult1[k] = 0b01010001;}
  8085  012C  0855               	movf	(DisplayLEDs@k),w
  8086  012D  3E3B               	addlw	_matrix&0ffh
  8087  012E  0084               	movwf	fsr0
  8088  012F  0800               	movf	indf,w
  8089  0130  3A4F               	xorlw	04Fh
  8090  0131  1D03               	skipz
  8091  0132  2934               	goto	u4931
  8092  0133  2935               	goto	u4930
  8093  0134                     u4931:
  8094  0134  294F               	goto	l3542
  8095  0135                     u4930:
  8096                           	
  8097  0135                     l3536:	
  8098  0135  0855               	movf	(DisplayLEDs@k),w
  8099  0136  3E3E               	addlw	_matrix+03h&0ffh
  8100  0137  0084               	movwf	fsr0
  8101  0138  0800               	movf	indf,w
  8102  0139  3A58               	xorlw	058h
  8103  013A  1D03               	skipz
  8104  013B  293D               	goto	u4941
  8105  013C  293E               	goto	u4940
  8106  013D                     u4941:
  8107  013D  294F               	goto	l3542
  8108  013E                     u4940:
  8109                           	
  8110  013E                     l3538:	
  8111  013E  0855               	movf	(DisplayLEDs@k),w
  8112  013F  3E41               	addlw	_matrix+06h&0ffh
  8113  0140  0084               	movwf	fsr0
  8114  0141  0800               	movf	indf,w
  8115  0142  3A4F               	xorlw	04Fh
  8116  0143  1D03               	skipz
  8117  0144  2946               	goto	u4951
  8118  0145  2947               	goto	u4950
  8119  0146                     u4951:
  8120  0146  294F               	goto	l3542
  8121  0147                     u4950:
  8122                           	
  8123  0147                     l3540:	
  8124  0147  3051               	movlw	(051h)
  8125  0148  00D4               	movwf	(??_DisplayLEDs+0)+0
  8126  0149  0855               	movf	(DisplayLEDs@k),w
  8127  014A  3E44               	addlw	_result1&0ffh
  8128  014B  0084               	movwf	fsr0
  8129  014C  0854               	movf	(??_DisplayLEDs+0)+0,w
  8130  014D  0080               	movwf	indf
  8131  014E  2F1E               	goto	l3870
  8132                           	line	616
  8133                           	
  8134  014F                     l422:	
  8135                           	
  8136  014F                     l3542:	
  8137                           ;PR28.c: 616: else if(matrix[0][k] == 'O' & matrix[1][k] == 'X' & matrix[2][k] == ' '){r
                                 esult1[k] = 0b01010000;}
  8138  014F  0855               	movf	(DisplayLEDs@k),w
  8139  0150  3E3B               	addlw	_matrix&0ffh
  8140  0151  0084               	movwf	fsr0
  8141  0152  0800               	movf	indf,w
  8142  0153  3A4F               	xorlw	04Fh
  8143  0154  1D03               	skipz
  8144  0155  2957               	goto	u4961
  8145  0156  2958               	goto	u4960
  8146  0157                     u4961:
  8147  0157  2972               	goto	l3550
  8148  0158                     u4960:
  8149                           	
  8150  0158                     l3544:	
  8151  0158  0855               	movf	(DisplayLEDs@k),w
  8152  0159  3E3E               	addlw	_matrix+03h&0ffh
  8153  015A  0084               	movwf	fsr0
  8154  015B  0800               	movf	indf,w
  8155  015C  3A58               	xorlw	058h
  8156  015D  1D03               	skipz
  8157  015E  2960               	goto	u4971
  8158  015F  2961               	goto	u4970
  8159  0160                     u4971:
  8160  0160  2972               	goto	l3550
  8161  0161                     u4970:
  8162                           	
  8163  0161                     l3546:	
  8164  0161  0855               	movf	(DisplayLEDs@k),w
  8165  0162  3E41               	addlw	_matrix+06h&0ffh
  8166  0163  0084               	movwf	fsr0
  8167  0164  0800               	movf	indf,w
  8168  0165  3A20               	xorlw	020h
  8169  0166  1D03               	skipz
  8170  0167  2969               	goto	u4981
  8171  0168  296A               	goto	u4980
  8172  0169                     u4981:
  8173  0169  2972               	goto	l3550
  8174  016A                     u4980:
  8175                           	
  8176  016A                     l3548:	
  8177  016A  3050               	movlw	(050h)
  8178  016B  00D4               	movwf	(??_DisplayLEDs+0)+0
  8179  016C  0855               	movf	(DisplayLEDs@k),w
  8180  016D  3E44               	addlw	_result1&0ffh
  8181  016E  0084               	movwf	fsr0
  8182  016F  0854               	movf	(??_DisplayLEDs+0)+0,w
  8183  0170  0080               	movwf	indf
  8184  0171  2F1E               	goto	l3870
  8185                           	line	617
  8186                           	
  8187  0172                     l424:	
  8188                           	
  8189  0172                     l3550:	
  8190                           ;PR28.c: 617: else if(matrix[0][k] == 'O' & matrix[1][k] == ' ' & matrix[2][k] == 'O'){r
                                 esult1[k] = 0b01000001;}
  8191  0172  0855               	movf	(DisplayLEDs@k),w
  8192  0173  3E3B               	addlw	_matrix&0ffh
  8193  0174  0084               	movwf	fsr0
  8194  0175  0800               	movf	indf,w
  8195  0176  3A4F               	xorlw	04Fh
  8196  0177  1D03               	skipz
  8197  0178  297A               	goto	u4991
  8198  0179  297B               	goto	u4990
  8199  017A                     u4991:
  8200  017A  2995               	goto	l3558
  8201  017B                     u4990:
  8202                           	
  8203  017B                     l3552:	
  8204  017B  0855               	movf	(DisplayLEDs@k),w
  8205  017C  3E3E               	addlw	_matrix+03h&0ffh
  8206  017D  0084               	movwf	fsr0
  8207  017E  0800               	movf	indf,w
  8208  017F  3A20               	xorlw	020h
  8209  0180  1D03               	skipz
  8210  0181  2983               	goto	u5001
  8211  0182  2984               	goto	u5000
  8212  0183                     u5001:
  8213  0183  2995               	goto	l3558
  8214  0184                     u5000:
  8215                           	
  8216  0184                     l3554:	
  8217  0184  0855               	movf	(DisplayLEDs@k),w
  8218  0185  3E41               	addlw	_matrix+06h&0ffh
  8219  0186  0084               	movwf	fsr0
  8220  0187  0800               	movf	indf,w
  8221  0188  3A4F               	xorlw	04Fh
  8222  0189  1D03               	skipz
  8223  018A  298C               	goto	u5011
  8224  018B  298D               	goto	u5010
  8225  018C                     u5011:
  8226  018C  2995               	goto	l3558
  8227  018D                     u5010:
  8228                           	
  8229  018D                     l3556:	
  8230  018D  3041               	movlw	(041h)
  8231  018E  00D4               	movwf	(??_DisplayLEDs+0)+0
  8232  018F  0855               	movf	(DisplayLEDs@k),w
  8233  0190  3E44               	addlw	_result1&0ffh
  8234  0191  0084               	movwf	fsr0
  8235  0192  0854               	movf	(??_DisplayLEDs+0)+0,w
  8236  0193  0080               	movwf	indf
  8237  0194  2F1E               	goto	l3870
  8238                           	line	618
  8239                           	
  8240  0195                     l426:	
  8241                           	
  8242  0195                     l3558:	
  8243                           ;PR28.c: 618: else if(matrix[0][k] == 'O' & matrix[1][k] == ' ' & matrix[2][k] == ' '){r
                                 esult1[k] = 0b01000000;}
  8244  0195  0855               	movf	(DisplayLEDs@k),w
  8245  0196  3E3B               	addlw	_matrix&0ffh
  8246  0197  0084               	movwf	fsr0
  8247  0198  0800               	movf	indf,w
  8248  0199  3A4F               	xorlw	04Fh
  8249  019A  1D03               	skipz
  8250  019B  299D               	goto	u5021
  8251  019C  299E               	goto	u5020
  8252  019D                     u5021:
  8253  019D  29B8               	goto	l3566
  8254  019E                     u5020:
  8255                           	
  8256  019E                     l3560:	
  8257  019E  0855               	movf	(DisplayLEDs@k),w
  8258  019F  3E3E               	addlw	_matrix+03h&0ffh
  8259  01A0  0084               	movwf	fsr0
  8260  01A1  0800               	movf	indf,w
  8261  01A2  3A20               	xorlw	020h
  8262  01A3  1D03               	skipz
  8263  01A4  29A6               	goto	u5031
  8264  01A5  29A7               	goto	u5030
  8265  01A6                     u5031:
  8266  01A6  29B8               	goto	l3566
  8267  01A7                     u5030:
  8268                           	
  8269  01A7                     l3562:	
  8270  01A7  0855               	movf	(DisplayLEDs@k),w
  8271  01A8  3E41               	addlw	_matrix+06h&0ffh
  8272  01A9  0084               	movwf	fsr0
  8273  01AA  0800               	movf	indf,w
  8274  01AB  3A20               	xorlw	020h
  8275  01AC  1D03               	skipz
  8276  01AD  29AF               	goto	u5041
  8277  01AE  29B0               	goto	u5040
  8278  01AF                     u5041:
  8279  01AF  29B8               	goto	l3566
  8280  01B0                     u5040:
  8281                           	
  8282  01B0                     l3564:	
  8283  01B0  3040               	movlw	(040h)
  8284  01B1  00D4               	movwf	(??_DisplayLEDs+0)+0
  8285  01B2  0855               	movf	(DisplayLEDs@k),w
  8286  01B3  3E44               	addlw	_result1&0ffh
  8287  01B4  0084               	movwf	fsr0
  8288  01B5  0854               	movf	(??_DisplayLEDs+0)+0,w
  8289  01B6  0080               	movwf	indf
  8290  01B7  2F1E               	goto	l3870
  8291                           	line	619
  8292                           	
  8293  01B8                     l428:	
  8294                           	
  8295  01B8                     l3566:	
  8296                           ;PR28.c: 619: else if(matrix[0][k] == ' ' & matrix[1][k] == 'X' & matrix[2][k] == 'O'){r
                                 esult1[k] = 0b00010001;}
  8297  01B8  0855               	movf	(DisplayLEDs@k),w
  8298  01B9  3E3B               	addlw	_matrix&0ffh
  8299  01BA  0084               	movwf	fsr0
  8300  01BB  0800               	movf	indf,w
  8301  01BC  3A20               	xorlw	020h
  8302  01BD  1D03               	skipz
  8303  01BE  29C0               	goto	u5051
  8304  01BF  29C1               	goto	u5050
  8305  01C0                     u5051:
  8306  01C0  29DB               	goto	l3574
  8307  01C1                     u5050:
  8308                           	
  8309  01C1                     l3568:	
  8310  01C1  0855               	movf	(DisplayLEDs@k),w
  8311  01C2  3E3E               	addlw	_matrix+03h&0ffh
  8312  01C3  0084               	movwf	fsr0
  8313  01C4  0800               	movf	indf,w
  8314  01C5  3A58               	xorlw	058h
  8315  01C6  1D03               	skipz
  8316  01C7  29C9               	goto	u5061
  8317  01C8  29CA               	goto	u5060
  8318  01C9                     u5061:
  8319  01C9  29DB               	goto	l3574
  8320  01CA                     u5060:
  8321                           	
  8322  01CA                     l3570:	
  8323  01CA  0855               	movf	(DisplayLEDs@k),w
  8324  01CB  3E41               	addlw	_matrix+06h&0ffh
  8325  01CC  0084               	movwf	fsr0
  8326  01CD  0800               	movf	indf,w
  8327  01CE  3A4F               	xorlw	04Fh
  8328  01CF  1D03               	skipz
  8329  01D0  29D2               	goto	u5071
  8330  01D1  29D3               	goto	u5070
  8331  01D2                     u5071:
  8332  01D2  29DB               	goto	l3574
  8333  01D3                     u5070:
  8334                           	
  8335  01D3                     l3572:	
  8336  01D3  3011               	movlw	(011h)
  8337  01D4  00D4               	movwf	(??_DisplayLEDs+0)+0
  8338  01D5  0855               	movf	(DisplayLEDs@k),w
  8339  01D6  3E44               	addlw	_result1&0ffh
  8340  01D7  0084               	movwf	fsr0
  8341  01D8  0854               	movf	(??_DisplayLEDs+0)+0,w
  8342  01D9  0080               	movwf	indf
  8343  01DA  2F1E               	goto	l3870
  8344                           	line	620
  8345                           	
  8346  01DB                     l430:	
  8347                           	
  8348  01DB                     l3574:	
  8349                           ;PR28.c: 620: else if(matrix[0][k] == ' ' & matrix[1][k] == 'X' & matrix[2][k] == ' '){r
                                 esult1[k] = 0b00010000;}
  8350  01DB  0855               	movf	(DisplayLEDs@k),w
  8351  01DC  3E3B               	addlw	_matrix&0ffh
  8352  01DD  0084               	movwf	fsr0
  8353  01DE  0800               	movf	indf,w
  8354  01DF  3A20               	xorlw	020h
  8355  01E0  1D03               	skipz
  8356  01E1  29E3               	goto	u5081
  8357  01E2  29E4               	goto	u5080
  8358  01E3                     u5081:
  8359  01E3  29FE               	goto	l3582
  8360  01E4                     u5080:
  8361                           	
  8362  01E4                     l3576:	
  8363  01E4  0855               	movf	(DisplayLEDs@k),w
  8364  01E5  3E3E               	addlw	_matrix+03h&0ffh
  8365  01E6  0084               	movwf	fsr0
  8366  01E7  0800               	movf	indf,w
  8367  01E8  3A58               	xorlw	058h
  8368  01E9  1D03               	skipz
  8369  01EA  29EC               	goto	u5091
  8370  01EB  29ED               	goto	u5090
  8371  01EC                     u5091:
  8372  01EC  29FE               	goto	l3582
  8373  01ED                     u5090:
  8374                           	
  8375  01ED                     l3578:	
  8376  01ED  0855               	movf	(DisplayLEDs@k),w
  8377  01EE  3E41               	addlw	_matrix+06h&0ffh
  8378  01EF  0084               	movwf	fsr0
  8379  01F0  0800               	movf	indf,w
  8380  01F1  3A20               	xorlw	020h
  8381  01F2  1D03               	skipz
  8382  01F3  29F5               	goto	u5101
  8383  01F4  29F6               	goto	u5100
  8384  01F5                     u5101:
  8385  01F5  29FE               	goto	l3582
  8386  01F6                     u5100:
  8387                           	
  8388  01F6                     l3580:	
  8389  01F6  3010               	movlw	(010h)
  8390  01F7  00D4               	movwf	(??_DisplayLEDs+0)+0
  8391  01F8  0855               	movf	(DisplayLEDs@k),w
  8392  01F9  3E44               	addlw	_result1&0ffh
  8393  01FA  0084               	movwf	fsr0
  8394  01FB  0854               	movf	(??_DisplayLEDs+0)+0,w
  8395  01FC  0080               	movwf	indf
  8396  01FD  2F1E               	goto	l3870
  8397                           	line	621
  8398                           	
  8399  01FE                     l432:	
  8400                           	
  8401  01FE                     l3582:	
  8402                           ;PR28.c: 621: else if(matrix[0][k] == ' ' & matrix[1][k] == ' ' & matrix[2][k] == 'O'){r
                                 esult1[k] = 0b00000001;}
  8403  01FE  0855               	movf	(DisplayLEDs@k),w
  8404  01FF  3E3B               	addlw	_matrix&0ffh
  8405  0200  0084               	movwf	fsr0
  8406  0201  0800               	movf	indf,w
  8407  0202  3A20               	xorlw	020h
  8408  0203  1D03               	skipz
  8409  0204  2A06               	goto	u5111
  8410  0205  2A07               	goto	u5110
  8411  0206                     u5111:
  8412  0206  2A20               	goto	l3590
  8413  0207                     u5110:
  8414                           	
  8415  0207                     l3584:	
  8416  0207  0855               	movf	(DisplayLEDs@k),w
  8417  0208  3E3E               	addlw	_matrix+03h&0ffh
  8418  0209  0084               	movwf	fsr0
  8419  020A  0800               	movf	indf,w
  8420  020B  3A20               	xorlw	020h
  8421  020C  1D03               	skipz
  8422  020D  2A0F               	goto	u5121
  8423  020E  2A10               	goto	u5120
  8424  020F                     u5121:
  8425  020F  2A20               	goto	l3590
  8426  0210                     u5120:
  8427                           	
  8428  0210                     l3586:	
  8429  0210  0855               	movf	(DisplayLEDs@k),w
  8430  0211  3E41               	addlw	_matrix+06h&0ffh
  8431  0212  0084               	movwf	fsr0
  8432  0213  0800               	movf	indf,w
  8433  0214  3A4F               	xorlw	04Fh
  8434  0215  1D03               	skipz
  8435  0216  2A18               	goto	u5131
  8436  0217  2A19               	goto	u5130
  8437  0218                     u5131:
  8438  0218  2A20               	goto	l3590
  8439  0219                     u5130:
  8440                           	
  8441  0219                     l3588:	
  8442  0219  0855               	movf	(DisplayLEDs@k),w
  8443  021A  3E44               	addlw	_result1&0ffh
  8444  021B  0084               	movwf	fsr0
  8445  021C  0180               	clrf	indf
  8446  021D  1403               	bsf	status,0
  8447  021E  0D80               	rlf	indf,f
  8448  021F  2F1E               	goto	l3870
  8449                           	line	623
  8450                           	
  8451  0220                     l434:	
  8452                           	
  8453  0220                     l3590:	
  8454                           ;PR28.c: 623: else if(matrix[0][k] == 'O' & matrix[1][k] == 'X' & matrix[2][k] == 'X'){r
                                 esult1[k] = 0b01010010;}
  8455  0220  0855               	movf	(DisplayLEDs@k),w
  8456  0221  3E3B               	addlw	_matrix&0ffh
  8457  0222  0084               	movwf	fsr0
  8458  0223  0800               	movf	indf,w
  8459  0224  3A4F               	xorlw	04Fh
  8460  0225  1D03               	skipz
  8461  0226  2A28               	goto	u5141
  8462  0227  2A29               	goto	u5140
  8463  0228                     u5141:
  8464  0228  2A43               	goto	l3598
  8465  0229                     u5140:
  8466                           	
  8467  0229                     l3592:	
  8468  0229  0855               	movf	(DisplayLEDs@k),w
  8469  022A  3E3E               	addlw	_matrix+03h&0ffh
  8470  022B  0084               	movwf	fsr0
  8471  022C  0800               	movf	indf,w
  8472  022D  3A58               	xorlw	058h
  8473  022E  1D03               	skipz
  8474  022F  2A31               	goto	u5151
  8475  0230  2A32               	goto	u5150
  8476  0231                     u5151:
  8477  0231  2A43               	goto	l3598
  8478  0232                     u5150:
  8479                           	
  8480  0232                     l3594:	
  8481  0232  0855               	movf	(DisplayLEDs@k),w
  8482  0233  3E41               	addlw	_matrix+06h&0ffh
  8483  0234  0084               	movwf	fsr0
  8484  0235  0800               	movf	indf,w
  8485  0236  3A58               	xorlw	058h
  8486  0237  1D03               	skipz
  8487  0238  2A3A               	goto	u5161
  8488  0239  2A3B               	goto	u5160
  8489  023A                     u5161:
  8490  023A  2A43               	goto	l3598
  8491  023B                     u5160:
  8492                           	
  8493  023B                     l3596:	
  8494  023B  3052               	movlw	(052h)
  8495  023C  00D4               	movwf	(??_DisplayLEDs+0)+0
  8496  023D  0855               	movf	(DisplayLEDs@k),w
  8497  023E  3E44               	addlw	_result1&0ffh
  8498  023F  0084               	movwf	fsr0
  8499  0240  0854               	movf	(??_DisplayLEDs+0)+0,w
  8500  0241  0080               	movwf	indf
  8501  0242  2F1E               	goto	l3870
  8502                           	line	624
  8503                           	
  8504  0243                     l436:	
  8505                           	
  8506  0243                     l3598:	
  8507                           ;PR28.c: 624: else if(matrix[0][k] == 'O' & matrix[1][k] == 'X' & matrix[2][k] == ' '){r
                                 esult1[k] = 0b01010000;}
  8508  0243  0855               	movf	(DisplayLEDs@k),w
  8509  0244  3E3B               	addlw	_matrix&0ffh
  8510  0245  0084               	movwf	fsr0
  8511  0246  0800               	movf	indf,w
  8512  0247  3A4F               	xorlw	04Fh
  8513  0248  1D03               	skipz
  8514  0249  2A4B               	goto	u5171
  8515  024A  2A4C               	goto	u5170
  8516  024B                     u5171:
  8517  024B  2A66               	goto	l3606
  8518  024C                     u5170:
  8519                           	
  8520  024C                     l3600:	
  8521  024C  0855               	movf	(DisplayLEDs@k),w
  8522  024D  3E3E               	addlw	_matrix+03h&0ffh
  8523  024E  0084               	movwf	fsr0
  8524  024F  0800               	movf	indf,w
  8525  0250  3A58               	xorlw	058h
  8526  0251  1D03               	skipz
  8527  0252  2A54               	goto	u5181
  8528  0253  2A55               	goto	u5180
  8529  0254                     u5181:
  8530  0254  2A66               	goto	l3606
  8531  0255                     u5180:
  8532                           	
  8533  0255                     l3602:	
  8534  0255  0855               	movf	(DisplayLEDs@k),w
  8535  0256  3E41               	addlw	_matrix+06h&0ffh
  8536  0257  0084               	movwf	fsr0
  8537  0258  0800               	movf	indf,w
  8538  0259  3A20               	xorlw	020h
  8539  025A  1D03               	skipz
  8540  025B  2A5D               	goto	u5191
  8541  025C  2A5E               	goto	u5190
  8542  025D                     u5191:
  8543  025D  2A66               	goto	l3606
  8544  025E                     u5190:
  8545                           	
  8546  025E                     l3604:	
  8547  025E  3050               	movlw	(050h)
  8548  025F  00D4               	movwf	(??_DisplayLEDs+0)+0
  8549  0260  0855               	movf	(DisplayLEDs@k),w
  8550  0261  3E44               	addlw	_result1&0ffh
  8551  0262  0084               	movwf	fsr0
  8552  0263  0854               	movf	(??_DisplayLEDs+0)+0,w
  8553  0264  0080               	movwf	indf
  8554  0265  2F1E               	goto	l3870
  8555                           	line	625
  8556                           	
  8557  0266                     l438:	
  8558                           	
  8559  0266                     l3606:	
  8560                           ;PR28.c: 625: else if(matrix[0][k] == 'O' & matrix[1][k] == ' ' & matrix[2][k] == 'X'){r
                                 esult1[k] = 0b01000010;}
  8561  0266  0855               	movf	(DisplayLEDs@k),w
  8562  0267  3E3B               	addlw	_matrix&0ffh
  8563  0268  0084               	movwf	fsr0
  8564  0269  0800               	movf	indf,w
  8565  026A  3A4F               	xorlw	04Fh
  8566  026B  1D03               	skipz
  8567  026C  2A6E               	goto	u5201
  8568  026D  2A6F               	goto	u5200
  8569  026E                     u5201:
  8570  026E  2A89               	goto	l3614
  8571  026F                     u5200:
  8572                           	
  8573  026F                     l3608:	
  8574  026F  0855               	movf	(DisplayLEDs@k),w
  8575  0270  3E3E               	addlw	_matrix+03h&0ffh
  8576  0271  0084               	movwf	fsr0
  8577  0272  0800               	movf	indf,w
  8578  0273  3A20               	xorlw	020h
  8579  0274  1D03               	skipz
  8580  0275  2A77               	goto	u5211
  8581  0276  2A78               	goto	u5210
  8582  0277                     u5211:
  8583  0277  2A89               	goto	l3614
  8584  0278                     u5210:
  8585                           	
  8586  0278                     l3610:	
  8587  0278  0855               	movf	(DisplayLEDs@k),w
  8588  0279  3E41               	addlw	_matrix+06h&0ffh
  8589  027A  0084               	movwf	fsr0
  8590  027B  0800               	movf	indf,w
  8591  027C  3A58               	xorlw	058h
  8592  027D  1D03               	skipz
  8593  027E  2A80               	goto	u5221
  8594  027F  2A81               	goto	u5220
  8595  0280                     u5221:
  8596  0280  2A89               	goto	l3614
  8597  0281                     u5220:
  8598                           	
  8599  0281                     l3612:	
  8600  0281  3042               	movlw	(042h)
  8601  0282  00D4               	movwf	(??_DisplayLEDs+0)+0
  8602  0283  0855               	movf	(DisplayLEDs@k),w
  8603  0284  3E44               	addlw	_result1&0ffh
  8604  0285  0084               	movwf	fsr0
  8605  0286  0854               	movf	(??_DisplayLEDs+0)+0,w
  8606  0287  0080               	movwf	indf
  8607  0288  2F1E               	goto	l3870
  8608                           	line	626
  8609                           	
  8610  0289                     l440:	
  8611                           	
  8612  0289                     l3614:	
  8613                           ;PR28.c: 626: else if(matrix[0][k] == 'O' & matrix[1][k] == ' ' & matrix[2][k] == ' '){r
                                 esult1[k] = 0b01000000;}
  8614  0289  0855               	movf	(DisplayLEDs@k),w
  8615  028A  3E3B               	addlw	_matrix&0ffh
  8616  028B  0084               	movwf	fsr0
  8617  028C  0800               	movf	indf,w
  8618  028D  3A4F               	xorlw	04Fh
  8619  028E  1D03               	skipz
  8620  028F  2A91               	goto	u5231
  8621  0290  2A92               	goto	u5230
  8622  0291                     u5231:
  8623  0291  2AAC               	goto	l3622
  8624  0292                     u5230:
  8625                           	
  8626  0292                     l3616:	
  8627  0292  0855               	movf	(DisplayLEDs@k),w
  8628  0293  3E3E               	addlw	_matrix+03h&0ffh
  8629  0294  0084               	movwf	fsr0
  8630  0295  0800               	movf	indf,w
  8631  0296  3A20               	xorlw	020h
  8632  0297  1D03               	skipz
  8633  0298  2A9A               	goto	u5241
  8634  0299  2A9B               	goto	u5240
  8635  029A                     u5241:
  8636  029A  2AAC               	goto	l3622
  8637  029B                     u5240:
  8638                           	
  8639  029B                     l3618:	
  8640  029B  0855               	movf	(DisplayLEDs@k),w
  8641  029C  3E41               	addlw	_matrix+06h&0ffh
  8642  029D  0084               	movwf	fsr0
  8643  029E  0800               	movf	indf,w
  8644  029F  3A20               	xorlw	020h
  8645  02A0  1D03               	skipz
  8646  02A1  2AA3               	goto	u5251
  8647  02A2  2AA4               	goto	u5250
  8648  02A3                     u5251:
  8649  02A3  2AAC               	goto	l3622
  8650  02A4                     u5250:
  8651                           	
  8652  02A4                     l3620:	
  8653  02A4  3040               	movlw	(040h)
  8654  02A5  00D4               	movwf	(??_DisplayLEDs+0)+0
  8655  02A6  0855               	movf	(DisplayLEDs@k),w
  8656  02A7  3E44               	addlw	_result1&0ffh
  8657  02A8  0084               	movwf	fsr0
  8658  02A9  0854               	movf	(??_DisplayLEDs+0)+0,w
  8659  02AA  0080               	movwf	indf
  8660  02AB  2F1E               	goto	l3870
  8661                           	line	627
  8662                           	
  8663  02AC                     l442:	
  8664                           	
  8665  02AC                     l3622:	
  8666                           ;PR28.c: 627: else if(matrix[0][k] == ' ' & matrix[1][k] == 'X' & matrix[2][k] == 'X'){r
                                 esult1[k] = 0b00010010;}
  8667  02AC  0855               	movf	(DisplayLEDs@k),w
  8668  02AD  3E3B               	addlw	_matrix&0ffh
  8669  02AE  0084               	movwf	fsr0
  8670  02AF  0800               	movf	indf,w
  8671  02B0  3A20               	xorlw	020h
  8672  02B1  1D03               	skipz
  8673  02B2  2AB4               	goto	u5261
  8674  02B3  2AB5               	goto	u5260
  8675  02B4                     u5261:
  8676  02B4  2ACF               	goto	l3630
  8677  02B5                     u5260:
  8678                           	
  8679  02B5                     l3624:	
  8680  02B5  0855               	movf	(DisplayLEDs@k),w
  8681  02B6  3E3E               	addlw	_matrix+03h&0ffh
  8682  02B7  0084               	movwf	fsr0
  8683  02B8  0800               	movf	indf,w
  8684  02B9  3A58               	xorlw	058h
  8685  02BA  1D03               	skipz
  8686  02BB  2ABD               	goto	u5271
  8687  02BC  2ABE               	goto	u5270
  8688  02BD                     u5271:
  8689  02BD  2ACF               	goto	l3630
  8690  02BE                     u5270:
  8691                           	
  8692  02BE                     l3626:	
  8693  02BE  0855               	movf	(DisplayLEDs@k),w
  8694  02BF  3E41               	addlw	_matrix+06h&0ffh
  8695  02C0  0084               	movwf	fsr0
  8696  02C1  0800               	movf	indf,w
  8697  02C2  3A58               	xorlw	058h
  8698  02C3  1D03               	skipz
  8699  02C4  2AC6               	goto	u5281
  8700  02C5  2AC7               	goto	u5280
  8701  02C6                     u5281:
  8702  02C6  2ACF               	goto	l3630
  8703  02C7                     u5280:
  8704                           	
  8705  02C7                     l3628:	
  8706  02C7  3012               	movlw	(012h)
  8707  02C8  00D4               	movwf	(??_DisplayLEDs+0)+0
  8708  02C9  0855               	movf	(DisplayLEDs@k),w
  8709  02CA  3E44               	addlw	_result1&0ffh
  8710  02CB  0084               	movwf	fsr0
  8711  02CC  0854               	movf	(??_DisplayLEDs+0)+0,w
  8712  02CD  0080               	movwf	indf
  8713  02CE  2F1E               	goto	l3870
  8714                           	line	628
  8715                           	
  8716  02CF                     l444:	
  8717                           	
  8718  02CF                     l3630:	
  8719                           ;PR28.c: 628: else if(matrix[0][k] == ' ' & matrix[1][k] == 'X' & matrix[2][k] == ' '){r
                                 esult1[k] = 0b00010000;}
  8720  02CF  0855               	movf	(DisplayLEDs@k),w
  8721  02D0  3E3B               	addlw	_matrix&0ffh
  8722  02D1  0084               	movwf	fsr0
  8723  02D2  0800               	movf	indf,w
  8724  02D3  3A20               	xorlw	020h
  8725  02D4  1D03               	skipz
  8726  02D5  2AD7               	goto	u5291
  8727  02D6  2AD8               	goto	u5290
  8728  02D7                     u5291:
  8729  02D7  2AF2               	goto	l3638
  8730  02D8                     u5290:
  8731                           	
  8732  02D8                     l3632:	
  8733  02D8  0855               	movf	(DisplayLEDs@k),w
  8734  02D9  3E3E               	addlw	_matrix+03h&0ffh
  8735  02DA  0084               	movwf	fsr0
  8736  02DB  0800               	movf	indf,w
  8737  02DC  3A58               	xorlw	058h
  8738  02DD  1D03               	skipz
  8739  02DE  2AE0               	goto	u5301
  8740  02DF  2AE1               	goto	u5300
  8741  02E0                     u5301:
  8742  02E0  2AF2               	goto	l3638
  8743  02E1                     u5300:
  8744                           	
  8745  02E1                     l3634:	
  8746  02E1  0855               	movf	(DisplayLEDs@k),w
  8747  02E2  3E41               	addlw	_matrix+06h&0ffh
  8748  02E3  0084               	movwf	fsr0
  8749  02E4  0800               	movf	indf,w
  8750  02E5  3A20               	xorlw	020h
  8751  02E6  1D03               	skipz
  8752  02E7  2AE9               	goto	u5311
  8753  02E8  2AEA               	goto	u5310
  8754  02E9                     u5311:
  8755  02E9  2AF2               	goto	l3638
  8756  02EA                     u5310:
  8757                           	
  8758  02EA                     l3636:	
  8759  02EA  3010               	movlw	(010h)
  8760  02EB  00D4               	movwf	(??_DisplayLEDs+0)+0
  8761  02EC  0855               	movf	(DisplayLEDs@k),w
  8762  02ED  3E44               	addlw	_result1&0ffh
  8763  02EE  0084               	movwf	fsr0
  8764  02EF  0854               	movf	(??_DisplayLEDs+0)+0,w
  8765  02F0  0080               	movwf	indf
  8766  02F1  2F1E               	goto	l3870
  8767                           	line	629
  8768                           	
  8769  02F2                     l446:	
  8770                           	
  8771  02F2                     l3638:	
  8772                           ;PR28.c: 629: else if(matrix[0][k] == ' ' & matrix[1][k] == ' ' & matrix[2][k] == 'X'){r
                                 esult1[k] = 0b00000010;}
  8773  02F2  0855               	movf	(DisplayLEDs@k),w
  8774  02F3  3E3B               	addlw	_matrix&0ffh
  8775  02F4  0084               	movwf	fsr0
  8776  02F5  0800               	movf	indf,w
  8777  02F6  3A20               	xorlw	020h
  8778  02F7  1D03               	skipz
  8779  02F8  2AFA               	goto	u5321
  8780  02F9  2AFB               	goto	u5320
  8781  02FA                     u5321:
  8782  02FA  2B15               	goto	l3646
  8783  02FB                     u5320:
  8784                           	
  8785  02FB                     l3640:	
  8786  02FB  0855               	movf	(DisplayLEDs@k),w
  8787  02FC  3E3E               	addlw	_matrix+03h&0ffh
  8788  02FD  0084               	movwf	fsr0
  8789  02FE  0800               	movf	indf,w
  8790  02FF  3A20               	xorlw	020h
  8791  0300  1D03               	skipz
  8792  0301  2B03               	goto	u5331
  8793  0302  2B04               	goto	u5330
  8794  0303                     u5331:
  8795  0303  2B15               	goto	l3646
  8796  0304                     u5330:
  8797                           	
  8798  0304                     l3642:	
  8799  0304  0855               	movf	(DisplayLEDs@k),w
  8800  0305  3E41               	addlw	_matrix+06h&0ffh
  8801  0306  0084               	movwf	fsr0
  8802  0307  0800               	movf	indf,w
  8803  0308  3A58               	xorlw	058h
  8804  0309  1D03               	skipz
  8805  030A  2B0C               	goto	u5341
  8806  030B  2B0D               	goto	u5340
  8807  030C                     u5341:
  8808  030C  2B15               	goto	l3646
  8809  030D                     u5340:
  8810                           	
  8811  030D                     l3644:	
  8812  030D  3002               	movlw	(02h)
  8813  030E  00D4               	movwf	(??_DisplayLEDs+0)+0
  8814  030F  0855               	movf	(DisplayLEDs@k),w
  8815  0310  3E44               	addlw	_result1&0ffh
  8816  0311  0084               	movwf	fsr0
  8817  0312  0854               	movf	(??_DisplayLEDs+0)+0,w
  8818  0313  0080               	movwf	indf
  8819  0314  2F1E               	goto	l3870
  8820                           	line	631
  8821                           	
  8822  0315                     l448:	
  8823                           	
  8824  0315                     l3646:	
  8825                           ;PR28.c: 631: else if(matrix[0][k] == 'X' & matrix[1][k] == 'O' & matrix[2][k] == 'O'){r
                                 esult1[k] = 0b10001001;}
  8826  0315  0855               	movf	(DisplayLEDs@k),w
  8827  0316  3E3B               	addlw	_matrix&0ffh
  8828  0317  0084               	movwf	fsr0
  8829  0318  0800               	movf	indf,w
  8830  0319  3A58               	xorlw	058h
  8831  031A  1D03               	skipz
  8832  031B  2B1D               	goto	u5351
  8833  031C  2B1E               	goto	u5350
  8834  031D                     u5351:
  8835  031D  2B38               	goto	l3654
  8836  031E                     u5350:
  8837                           	
  8838  031E                     l3648:	
  8839  031E  0855               	movf	(DisplayLEDs@k),w
  8840  031F  3E3E               	addlw	_matrix+03h&0ffh
  8841  0320  0084               	movwf	fsr0
  8842  0321  0800               	movf	indf,w
  8843  0322  3A4F               	xorlw	04Fh
  8844  0323  1D03               	skipz
  8845  0324  2B26               	goto	u5361
  8846  0325  2B27               	goto	u5360
  8847  0326                     u5361:
  8848  0326  2B38               	goto	l3654
  8849  0327                     u5360:
  8850                           	
  8851  0327                     l3650:	
  8852  0327  0855               	movf	(DisplayLEDs@k),w
  8853  0328  3E41               	addlw	_matrix+06h&0ffh
  8854  0329  0084               	movwf	fsr0
  8855  032A  0800               	movf	indf,w
  8856  032B  3A4F               	xorlw	04Fh
  8857  032C  1D03               	skipz
  8858  032D  2B2F               	goto	u5371
  8859  032E  2B30               	goto	u5370
  8860  032F                     u5371:
  8861  032F  2B38               	goto	l3654
  8862  0330                     u5370:
  8863                           	
  8864  0330                     l3652:	
  8865  0330  3089               	movlw	(089h)
  8866  0331  00D4               	movwf	(??_DisplayLEDs+0)+0
  8867  0332  0855               	movf	(DisplayLEDs@k),w
  8868  0333  3E44               	addlw	_result1&0ffh
  8869  0334  0084               	movwf	fsr0
  8870  0335  0854               	movf	(??_DisplayLEDs+0)+0,w
  8871  0336  0080               	movwf	indf
  8872  0337  2F1E               	goto	l3870
  8873                           	line	632
  8874                           	
  8875  0338                     l450:	
  8876                           	
  8877  0338                     l3654:	
  8878                           ;PR28.c: 632: else if(matrix[0][k] == 'X' & matrix[1][k] == 'O' & matrix[2][k] == ' '){r
                                 esult1[k] = 0b10001000;}
  8879  0338  0855               	movf	(DisplayLEDs@k),w
  8880  0339  3E3B               	addlw	_matrix&0ffh
  8881  033A  0084               	movwf	fsr0
  8882  033B  0800               	movf	indf,w
  8883  033C  3A58               	xorlw	058h
  8884  033D  1D03               	skipz
  8885  033E  2B40               	goto	u5381
  8886  033F  2B41               	goto	u5380
  8887  0340                     u5381:
  8888  0340  2B5B               	goto	l3662
  8889  0341                     u5380:
  8890                           	
  8891  0341                     l3656:	
  8892  0341  0855               	movf	(DisplayLEDs@k),w
  8893  0342  3E3E               	addlw	_matrix+03h&0ffh
  8894  0343  0084               	movwf	fsr0
  8895  0344  0800               	movf	indf,w
  8896  0345  3A4F               	xorlw	04Fh
  8897  0346  1D03               	skipz
  8898  0347  2B49               	goto	u5391
  8899  0348  2B4A               	goto	u5390
  8900  0349                     u5391:
  8901  0349  2B5B               	goto	l3662
  8902  034A                     u5390:
  8903                           	
  8904  034A                     l3658:	
  8905  034A  0855               	movf	(DisplayLEDs@k),w
  8906  034B  3E41               	addlw	_matrix+06h&0ffh
  8907  034C  0084               	movwf	fsr0
  8908  034D  0800               	movf	indf,w
  8909  034E  3A20               	xorlw	020h
  8910  034F  1D03               	skipz
  8911  0350  2B52               	goto	u5401
  8912  0351  2B53               	goto	u5400
  8913  0352                     u5401:
  8914  0352  2B5B               	goto	l3662
  8915  0353                     u5400:
  8916                           	
  8917  0353                     l3660:	
  8918  0353  3088               	movlw	(088h)
  8919  0354  00D4               	movwf	(??_DisplayLEDs+0)+0
  8920  0355  0855               	movf	(DisplayLEDs@k),w
  8921  0356  3E44               	addlw	_result1&0ffh
  8922  0357  0084               	movwf	fsr0
  8923  0358  0854               	movf	(??_DisplayLEDs+0)+0,w
  8924  0359  0080               	movwf	indf
  8925  035A  2F1E               	goto	l3870
  8926                           	line	633
  8927                           	
  8928  035B                     l452:	
  8929                           	
  8930  035B                     l3662:	
  8931                           ;PR28.c: 633: else if(matrix[0][k] == 'X' & matrix[1][k] == ' ' & matrix[2][k] == 'O'){r
                                 esult1[k] = 0b10000001;}
  8932  035B  0855               	movf	(DisplayLEDs@k),w
  8933  035C  3E3B               	addlw	_matrix&0ffh
  8934  035D  0084               	movwf	fsr0
  8935  035E  0800               	movf	indf,w
  8936  035F  3A58               	xorlw	058h
  8937  0360  1D03               	skipz
  8938  0361  2B63               	goto	u5411
  8939  0362  2B64               	goto	u5410
  8940  0363                     u5411:
  8941  0363  2B7E               	goto	l3670
  8942  0364                     u5410:
  8943                           	
  8944  0364                     l3664:	
  8945  0364  0855               	movf	(DisplayLEDs@k),w
  8946  0365  3E3E               	addlw	_matrix+03h&0ffh
  8947  0366  0084               	movwf	fsr0
  8948  0367  0800               	movf	indf,w
  8949  0368  3A20               	xorlw	020h
  8950  0369  1D03               	skipz
  8951  036A  2B6C               	goto	u5421
  8952  036B  2B6D               	goto	u5420
  8953  036C                     u5421:
  8954  036C  2B7E               	goto	l3670
  8955  036D                     u5420:
  8956                           	
  8957  036D                     l3666:	
  8958  036D  0855               	movf	(DisplayLEDs@k),w
  8959  036E  3E41               	addlw	_matrix+06h&0ffh
  8960  036F  0084               	movwf	fsr0
  8961  0370  0800               	movf	indf,w
  8962  0371  3A4F               	xorlw	04Fh
  8963  0372  1D03               	skipz
  8964  0373  2B75               	goto	u5431
  8965  0374  2B76               	goto	u5430
  8966  0375                     u5431:
  8967  0375  2B7E               	goto	l3670
  8968  0376                     u5430:
  8969                           	
  8970  0376                     l3668:	
  8971  0376  3081               	movlw	(081h)
  8972  0377  00D4               	movwf	(??_DisplayLEDs+0)+0
  8973  0378  0855               	movf	(DisplayLEDs@k),w
  8974  0379  3E44               	addlw	_result1&0ffh
  8975  037A  0084               	movwf	fsr0
  8976  037B  0854               	movf	(??_DisplayLEDs+0)+0,w
  8977  037C  0080               	movwf	indf
  8978  037D  2F1E               	goto	l3870
  8979                           	line	634
  8980                           	
  8981  037E                     l454:	
  8982                           	
  8983  037E                     l3670:	
  8984                           ;PR28.c: 634: else if(matrix[0][k] == 'X' & matrix[1][k] == ' ' & matrix[2][k] == ' '){r
                                 esult1[k] = 0b10000000;}
  8985  037E  0855               	movf	(DisplayLEDs@k),w
  8986  037F  3E3B               	addlw	_matrix&0ffh
  8987  0380  0084               	movwf	fsr0
  8988  0381  0800               	movf	indf,w
  8989  0382  3A58               	xorlw	058h
  8990  0383  1D03               	skipz
  8991  0384  2B86               	goto	u5441
  8992  0385  2B87               	goto	u5440
  8993  0386                     u5441:
  8994  0386  2BA1               	goto	l3678
  8995  0387                     u5440:
  8996                           	
  8997  0387                     l3672:	
  8998  0387  0855               	movf	(DisplayLEDs@k),w
  8999  0388  3E3E               	addlw	_matrix+03h&0ffh
  9000  0389  0084               	movwf	fsr0
  9001  038A  0800               	movf	indf,w
  9002  038B  3A20               	xorlw	020h
  9003  038C  1D03               	skipz
  9004  038D  2B8F               	goto	u5451
  9005  038E  2B90               	goto	u5450
  9006  038F                     u5451:
  9007  038F  2BA1               	goto	l3678
  9008  0390                     u5450:
  9009                           	
  9010  0390                     l3674:	
  9011  0390  0855               	movf	(DisplayLEDs@k),w
  9012  0391  3E41               	addlw	_matrix+06h&0ffh
  9013  0392  0084               	movwf	fsr0
  9014  0393  0800               	movf	indf,w
  9015  0394  3A20               	xorlw	020h
  9016  0395  1D03               	skipz
  9017  0396  2B98               	goto	u5461
  9018  0397  2B99               	goto	u5460
  9019  0398                     u5461:
  9020  0398  2BA1               	goto	l3678
  9021  0399                     u5460:
  9022                           	
  9023  0399                     l3676:	
  9024  0399  3080               	movlw	(080h)
  9025  039A  00D4               	movwf	(??_DisplayLEDs+0)+0
  9026  039B  0855               	movf	(DisplayLEDs@k),w
  9027  039C  3E44               	addlw	_result1&0ffh
  9028  039D  0084               	movwf	fsr0
  9029  039E  0854               	movf	(??_DisplayLEDs+0)+0,w
  9030  039F  0080               	movwf	indf
  9031  03A0  2F1E               	goto	l3870
  9032                           	line	635
  9033                           	
  9034  03A1                     l456:	
  9035                           	
  9036  03A1                     l3678:	
  9037                           ;PR28.c: 635: else if(matrix[0][k] == ' ' & matrix[1][k] == 'O' & matrix[2][k] == 'O'){r
                                 esult1[k] = 0b00001001;}
  9038  03A1  0855               	movf	(DisplayLEDs@k),w
  9039  03A2  3E3B               	addlw	_matrix&0ffh
  9040  03A3  0084               	movwf	fsr0
  9041  03A4  0800               	movf	indf,w
  9042  03A5  3A20               	xorlw	020h
  9043  03A6  1D03               	skipz
  9044  03A7  2BA9               	goto	u5471
  9045  03A8  2BAA               	goto	u5470
  9046  03A9                     u5471:
  9047  03A9  2BC4               	goto	l3686
  9048  03AA                     u5470:
  9049                           	
  9050  03AA                     l3680:	
  9051  03AA  0855               	movf	(DisplayLEDs@k),w
  9052  03AB  3E3E               	addlw	_matrix+03h&0ffh
  9053  03AC  0084               	movwf	fsr0
  9054  03AD  0800               	movf	indf,w
  9055  03AE  3A4F               	xorlw	04Fh
  9056  03AF  1D03               	skipz
  9057  03B0  2BB2               	goto	u5481
  9058  03B1  2BB3               	goto	u5480
  9059  03B2                     u5481:
  9060  03B2  2BC4               	goto	l3686
  9061  03B3                     u5480:
  9062                           	
  9063  03B3                     l3682:	
  9064  03B3  0855               	movf	(DisplayLEDs@k),w
  9065  03B4  3E41               	addlw	_matrix+06h&0ffh
  9066  03B5  0084               	movwf	fsr0
  9067  03B6  0800               	movf	indf,w
  9068  03B7  3A4F               	xorlw	04Fh
  9069  03B8  1D03               	skipz
  9070  03B9  2BBB               	goto	u5491
  9071  03BA  2BBC               	goto	u5490
  9072  03BB                     u5491:
  9073  03BB  2BC4               	goto	l3686
  9074  03BC                     u5490:
  9075                           	
  9076  03BC                     l3684:	
  9077  03BC  3009               	movlw	(09h)
  9078  03BD  00D4               	movwf	(??_DisplayLEDs+0)+0
  9079  03BE  0855               	movf	(DisplayLEDs@k),w
  9080  03BF  3E44               	addlw	_result1&0ffh
  9081  03C0  0084               	movwf	fsr0
  9082  03C1  0854               	movf	(??_DisplayLEDs+0)+0,w
  9083  03C2  0080               	movwf	indf
  9084  03C3  2F1E               	goto	l3870
  9085                           	line	636
  9086                           	
  9087  03C4                     l458:	
  9088                           	
  9089  03C4                     l3686:	
  9090                           ;PR28.c: 636: else if(matrix[0][k] == ' ' & matrix[1][k] == 'O' & matrix[2][k] == ' '){r
                                 esult1[k] = 0b00001000;}
  9091  03C4  0855               	movf	(DisplayLEDs@k),w
  9092  03C5  3E3B               	addlw	_matrix&0ffh
  9093  03C6  0084               	movwf	fsr0
  9094  03C7  0800               	movf	indf,w
  9095  03C8  3A20               	xorlw	020h
  9096  03C9  1D03               	skipz
  9097  03CA  2BCC               	goto	u5501
  9098  03CB  2BCD               	goto	u5500
  9099  03CC                     u5501:
  9100  03CC  2BE7               	goto	l3694
  9101  03CD                     u5500:
  9102                           	
  9103  03CD                     l3688:	
  9104  03CD  0855               	movf	(DisplayLEDs@k),w
  9105  03CE  3E3E               	addlw	_matrix+03h&0ffh
  9106  03CF  0084               	movwf	fsr0
  9107  03D0  0800               	movf	indf,w
  9108  03D1  3A4F               	xorlw	04Fh
  9109  03D2  1D03               	skipz
  9110  03D3  2BD5               	goto	u5511
  9111  03D4  2BD6               	goto	u5510
  9112  03D5                     u5511:
  9113  03D5  2BE7               	goto	l3694
  9114  03D6                     u5510:
  9115                           	
  9116  03D6                     l3690:	
  9117  03D6  0855               	movf	(DisplayLEDs@k),w
  9118  03D7  3E41               	addlw	_matrix+06h&0ffh
  9119  03D8  0084               	movwf	fsr0
  9120  03D9  0800               	movf	indf,w
  9121  03DA  3A20               	xorlw	020h
  9122  03DB  1D03               	skipz
  9123  03DC  2BDE               	goto	u5521
  9124  03DD  2BDF               	goto	u5520
  9125  03DE                     u5521:
  9126  03DE  2BE7               	goto	l3694
  9127  03DF                     u5520:
  9128                           	
  9129  03DF                     l3692:	
  9130  03DF  3008               	movlw	(08h)
  9131  03E0  00D4               	movwf	(??_DisplayLEDs+0)+0
  9132  03E1  0855               	movf	(DisplayLEDs@k),w
  9133  03E2  3E44               	addlw	_result1&0ffh
  9134  03E3  0084               	movwf	fsr0
  9135  03E4  0854               	movf	(??_DisplayLEDs+0)+0,w
  9136  03E5  0080               	movwf	indf
  9137  03E6  2F1E               	goto	l3870
  9138                           	line	637
  9139                           	
  9140  03E7                     l460:	
  9141                           	
  9142  03E7                     l3694:	
  9143                           ;PR28.c: 637: else if(matrix[0][k] == ' ' & matrix[1][k] == ' ' & matrix[2][k] == 'O'){r
                                 esult1[k] = 0b00000001;}
  9144  03E7  0855               	movf	(DisplayLEDs@k),w
  9145  03E8  3E3B               	addlw	_matrix&0ffh
  9146  03E9  0084               	movwf	fsr0
  9147  03EA  0800               	movf	indf,w
  9148  03EB  3A20               	xorlw	020h
  9149  03EC  1D03               	skipz
  9150  03ED  2BEF               	goto	u5531
  9151  03EE  2BF0               	goto	u5530
  9152  03EF                     u5531:
  9153  03EF  2C09               	goto	l3702
  9154  03F0                     u5530:
  9155                           	
  9156  03F0                     l3696:	
  9157  03F0  0855               	movf	(DisplayLEDs@k),w
  9158  03F1  3E3E               	addlw	_matrix+03h&0ffh
  9159  03F2  0084               	movwf	fsr0
  9160  03F3  0800               	movf	indf,w
  9161  03F4  3A20               	xorlw	020h
  9162  03F5  1D03               	skipz
  9163  03F6  2BF8               	goto	u5541
  9164  03F7  2BF9               	goto	u5540
  9165  03F8                     u5541:
  9166  03F8  2C09               	goto	l3702
  9167  03F9                     u5540:
  9168                           	
  9169  03F9                     l3698:	
  9170  03F9  0855               	movf	(DisplayLEDs@k),w
  9171  03FA  3E41               	addlw	_matrix+06h&0ffh
  9172  03FB  0084               	movwf	fsr0
  9173  03FC  0800               	movf	indf,w
  9174  03FD  3A4F               	xorlw	04Fh
  9175  03FE  1D03               	skipz
  9176  03FF  2C01               	goto	u5551
  9177  0400  2C02               	goto	u5550
  9178  0401                     u5551:
  9179  0401  2C09               	goto	l3702
  9180  0402                     u5550:
  9181                           	
  9182  0402                     l3700:	
  9183  0402  0855               	movf	(DisplayLEDs@k),w
  9184  0403  3E44               	addlw	_result1&0ffh
  9185  0404  0084               	movwf	fsr0
  9186  0405  0180               	clrf	indf
  9187  0406  1403               	bsf	status,0
  9188  0407  0D80               	rlf	indf,f
  9189  0408  2F1E               	goto	l3870
  9190                           	line	639
  9191                           	
  9192  0409                     l462:	
  9193                           	
  9194  0409                     l3702:	
  9195                           ;PR28.c: 639: else if(matrix[0][k] == 'X' & matrix[1][k] == 'O' & matrix[2][k] == 'X'){r
                                 esult1[k] = 0b10001010;}
  9196  0409  0855               	movf	(DisplayLEDs@k),w
  9197  040A  3E3B               	addlw	_matrix&0ffh
  9198  040B  0084               	movwf	fsr0
  9199  040C  0800               	movf	indf,w
  9200  040D  3A58               	xorlw	058h
  9201  040E  1D03               	skipz
  9202  040F  2C11               	goto	u5561
  9203  0410  2C12               	goto	u5560
  9204  0411                     u5561:
  9205  0411  2C2C               	goto	l3710
  9206  0412                     u5560:
  9207                           	
  9208  0412                     l3704:	
  9209  0412  0855               	movf	(DisplayLEDs@k),w
  9210  0413  3E3E               	addlw	_matrix+03h&0ffh
  9211  0414  0084               	movwf	fsr0
  9212  0415  0800               	movf	indf,w
  9213  0416  3A4F               	xorlw	04Fh
  9214  0417  1D03               	skipz
  9215  0418  2C1A               	goto	u5571
  9216  0419  2C1B               	goto	u5570
  9217  041A                     u5571:
  9218  041A  2C2C               	goto	l3710
  9219  041B                     u5570:
  9220                           	
  9221  041B                     l3706:	
  9222  041B  0855               	movf	(DisplayLEDs@k),w
  9223  041C  3E41               	addlw	_matrix+06h&0ffh
  9224  041D  0084               	movwf	fsr0
  9225  041E  0800               	movf	indf,w
  9226  041F  3A58               	xorlw	058h
  9227  0420  1D03               	skipz
  9228  0421  2C23               	goto	u5581
  9229  0422  2C24               	goto	u5580
  9230  0423                     u5581:
  9231  0423  2C2C               	goto	l3710
  9232  0424                     u5580:
  9233                           	
  9234  0424                     l3708:	
  9235  0424  308A               	movlw	(08Ah)
  9236  0425  00D4               	movwf	(??_DisplayLEDs+0)+0
  9237  0426  0855               	movf	(DisplayLEDs@k),w
  9238  0427  3E44               	addlw	_result1&0ffh
  9239  0428  0084               	movwf	fsr0
  9240  0429  0854               	movf	(??_DisplayLEDs+0)+0,w
  9241  042A  0080               	movwf	indf
  9242  042B  2F1E               	goto	l3870
  9243                           	line	640
  9244                           	
  9245  042C                     l464:	
  9246                           	
  9247  042C                     l3710:	
  9248                           ;PR28.c: 640: else if(matrix[0][k] == 'X' & matrix[1][k] == 'O' & matrix[2][k] == ' '){r
                                 esult1[k] = 0b10001000;}
  9249  042C  0855               	movf	(DisplayLEDs@k),w
  9250  042D  3E3B               	addlw	_matrix&0ffh
  9251  042E  0084               	movwf	fsr0
  9252  042F  0800               	movf	indf,w
  9253  0430  3A58               	xorlw	058h
  9254  0431  1D03               	skipz
  9255  0432  2C34               	goto	u5591
  9256  0433  2C35               	goto	u5590
  9257  0434                     u5591:
  9258  0434  2C4F               	goto	l3718
  9259  0435                     u5590:
  9260                           	
  9261  0435                     l3712:	
  9262  0435  0855               	movf	(DisplayLEDs@k),w
  9263  0436  3E3E               	addlw	_matrix+03h&0ffh
  9264  0437  0084               	movwf	fsr0
  9265  0438  0800               	movf	indf,w
  9266  0439  3A4F               	xorlw	04Fh
  9267  043A  1D03               	skipz
  9268  043B  2C3D               	goto	u5601
  9269  043C  2C3E               	goto	u5600
  9270  043D                     u5601:
  9271  043D  2C4F               	goto	l3718
  9272  043E                     u5600:
  9273                           	
  9274  043E                     l3714:	
  9275  043E  0855               	movf	(DisplayLEDs@k),w
  9276  043F  3E41               	addlw	_matrix+06h&0ffh
  9277  0440  0084               	movwf	fsr0
  9278  0441  0800               	movf	indf,w
  9279  0442  3A20               	xorlw	020h
  9280  0443  1D03               	skipz
  9281  0444  2C46               	goto	u5611
  9282  0445  2C47               	goto	u5610
  9283  0446                     u5611:
  9284  0446  2C4F               	goto	l3718
  9285  0447                     u5610:
  9286                           	
  9287  0447                     l3716:	
  9288  0447  3088               	movlw	(088h)
  9289  0448  00D4               	movwf	(??_DisplayLEDs+0)+0
  9290  0449  0855               	movf	(DisplayLEDs@k),w
  9291  044A  3E44               	addlw	_result1&0ffh
  9292  044B  0084               	movwf	fsr0
  9293  044C  0854               	movf	(??_DisplayLEDs+0)+0,w
  9294  044D  0080               	movwf	indf
  9295  044E  2F1E               	goto	l3870
  9296                           	line	641
  9297                           	
  9298  044F                     l466:	
  9299                           	
  9300  044F                     l3718:	
  9301                           ;PR28.c: 641: else if(matrix[0][k] == 'X' & matrix[1][k] == ' ' & matrix[2][k] == 'X'){r
                                 esult1[k] = 0b10000010;}
  9302  044F  0855               	movf	(DisplayLEDs@k),w
  9303  0450  3E3B               	addlw	_matrix&0ffh
  9304  0451  0084               	movwf	fsr0
  9305  0452  0800               	movf	indf,w
  9306  0453  3A58               	xorlw	058h
  9307  0454  1D03               	skipz
  9308  0455  2C57               	goto	u5621
  9309  0456  2C58               	goto	u5620
  9310  0457                     u5621:
  9311  0457  2C72               	goto	l3726
  9312  0458                     u5620:
  9313                           	
  9314  0458                     l3720:	
  9315  0458  0855               	movf	(DisplayLEDs@k),w
  9316  0459  3E3E               	addlw	_matrix+03h&0ffh
  9317  045A  0084               	movwf	fsr0
  9318  045B  0800               	movf	indf,w
  9319  045C  3A20               	xorlw	020h
  9320  045D  1D03               	skipz
  9321  045E  2C60               	goto	u5631
  9322  045F  2C61               	goto	u5630
  9323  0460                     u5631:
  9324  0460  2C72               	goto	l3726
  9325  0461                     u5630:
  9326                           	
  9327  0461                     l3722:	
  9328  0461  0855               	movf	(DisplayLEDs@k),w
  9329  0462  3E41               	addlw	_matrix+06h&0ffh
  9330  0463  0084               	movwf	fsr0
  9331  0464  0800               	movf	indf,w
  9332  0465  3A58               	xorlw	058h
  9333  0466  1D03               	skipz
  9334  0467  2C69               	goto	u5641
  9335  0468  2C6A               	goto	u5640
  9336  0469                     u5641:
  9337  0469  2C72               	goto	l3726
  9338  046A                     u5640:
  9339                           	
  9340  046A                     l3724:	
  9341  046A  3082               	movlw	(082h)
  9342  046B  00D4               	movwf	(??_DisplayLEDs+0)+0
  9343  046C  0855               	movf	(DisplayLEDs@k),w
  9344  046D  3E44               	addlw	_result1&0ffh
  9345  046E  0084               	movwf	fsr0
  9346  046F  0854               	movf	(??_DisplayLEDs+0)+0,w
  9347  0470  0080               	movwf	indf
  9348  0471  2F1E               	goto	l3870
  9349                           	line	642
  9350                           	
  9351  0472                     l468:	
  9352                           	
  9353  0472                     l3726:	
  9354                           ;PR28.c: 642: else if(matrix[0][k] == 'X' & matrix[1][k] == ' ' & matrix[2][k] == ' '){r
                                 esult1[k] = 0b10000000;}
  9355  0472  0855               	movf	(DisplayLEDs@k),w
  9356  0473  3E3B               	addlw	_matrix&0ffh
  9357  0474  0084               	movwf	fsr0
  9358  0475  0800               	movf	indf,w
  9359  0476  3A58               	xorlw	058h
  9360  0477  1D03               	skipz
  9361  0478  2C7A               	goto	u5651
  9362  0479  2C7B               	goto	u5650
  9363  047A                     u5651:
  9364  047A  2C95               	goto	l3734
  9365  047B                     u5650:
  9366                           	
  9367  047B                     l3728:	
  9368  047B  0855               	movf	(DisplayLEDs@k),w
  9369  047C  3E3E               	addlw	_matrix+03h&0ffh
  9370  047D  0084               	movwf	fsr0
  9371  047E  0800               	movf	indf,w
  9372  047F  3A20               	xorlw	020h
  9373  0480  1D03               	skipz
  9374  0481  2C83               	goto	u5661
  9375  0482  2C84               	goto	u5660
  9376  0483                     u5661:
  9377  0483  2C95               	goto	l3734
  9378  0484                     u5660:
  9379                           	
  9380  0484                     l3730:	
  9381  0484  0855               	movf	(DisplayLEDs@k),w
  9382  0485  3E41               	addlw	_matrix+06h&0ffh
  9383  0486  0084               	movwf	fsr0
  9384  0487  0800               	movf	indf,w
  9385  0488  3A20               	xorlw	020h
  9386  0489  1D03               	skipz
  9387  048A  2C8C               	goto	u5671
  9388  048B  2C8D               	goto	u5670
  9389  048C                     u5671:
  9390  048C  2C95               	goto	l3734
  9391  048D                     u5670:
  9392                           	
  9393  048D                     l3732:	
  9394  048D  3080               	movlw	(080h)
  9395  048E  00D4               	movwf	(??_DisplayLEDs+0)+0
  9396  048F  0855               	movf	(DisplayLEDs@k),w
  9397  0490  3E44               	addlw	_result1&0ffh
  9398  0491  0084               	movwf	fsr0
  9399  0492  0854               	movf	(??_DisplayLEDs+0)+0,w
  9400  0493  0080               	movwf	indf
  9401  0494  2F1E               	goto	l3870
  9402                           	line	643
  9403                           	
  9404  0495                     l470:	
  9405                           	
  9406  0495                     l3734:	
  9407                           ;PR28.c: 643: else if(matrix[0][k] == ' ' & matrix[1][k] == 'O' & matrix[2][k] == 'X'){r
                                 esult1[k] = 0b00001010;}
  9408  0495  0855               	movf	(DisplayLEDs@k),w
  9409  0496  3E3B               	addlw	_matrix&0ffh
  9410  0497  0084               	movwf	fsr0
  9411  0498  0800               	movf	indf,w
  9412  0499  3A20               	xorlw	020h
  9413  049A  1D03               	skipz
  9414  049B  2C9D               	goto	u5681
  9415  049C  2C9E               	goto	u5680
  9416  049D                     u5681:
  9417  049D  2CB8               	goto	l3742
  9418  049E                     u5680:
  9419                           	
  9420  049E                     l3736:	
  9421  049E  0855               	movf	(DisplayLEDs@k),w
  9422  049F  3E3E               	addlw	_matrix+03h&0ffh
  9423  04A0  0084               	movwf	fsr0
  9424  04A1  0800               	movf	indf,w
  9425  04A2  3A4F               	xorlw	04Fh
  9426  04A3  1D03               	skipz
  9427  04A4  2CA6               	goto	u5691
  9428  04A5  2CA7               	goto	u5690
  9429  04A6                     u5691:
  9430  04A6  2CB8               	goto	l3742
  9431  04A7                     u5690:
  9432                           	
  9433  04A7                     l3738:	
  9434  04A7  0855               	movf	(DisplayLEDs@k),w
  9435  04A8  3E41               	addlw	_matrix+06h&0ffh
  9436  04A9  0084               	movwf	fsr0
  9437  04AA  0800               	movf	indf,w
  9438  04AB  3A58               	xorlw	058h
  9439  04AC  1D03               	skipz
  9440  04AD  2CAF               	goto	u5701
  9441  04AE  2CB0               	goto	u5700
  9442  04AF                     u5701:
  9443  04AF  2CB8               	goto	l3742
  9444  04B0                     u5700:
  9445                           	
  9446  04B0                     l3740:	
  9447  04B0  300A               	movlw	(0Ah)
  9448  04B1  00D4               	movwf	(??_DisplayLEDs+0)+0
  9449  04B2  0855               	movf	(DisplayLEDs@k),w
  9450  04B3  3E44               	addlw	_result1&0ffh
  9451  04B4  0084               	movwf	fsr0
  9452  04B5  0854               	movf	(??_DisplayLEDs+0)+0,w
  9453  04B6  0080               	movwf	indf
  9454  04B7  2F1E               	goto	l3870
  9455                           	line	644
  9456                           	
  9457  04B8                     l472:	
  9458                           	
  9459  04B8                     l3742:	
  9460                           ;PR28.c: 644: else if(matrix[0][k] == ' ' & matrix[1][k] == 'O' & matrix[2][k] == ' '){r
                                 esult1[k] = 0b00001000;}
  9461  04B8  0855               	movf	(DisplayLEDs@k),w
  9462  04B9  3E3B               	addlw	_matrix&0ffh
  9463  04BA  0084               	movwf	fsr0
  9464  04BB  0800               	movf	indf,w
  9465  04BC  3A20               	xorlw	020h
  9466  04BD  1D03               	skipz
  9467  04BE  2CC0               	goto	u5711
  9468  04BF  2CC1               	goto	u5710
  9469  04C0                     u5711:
  9470  04C0  2CDB               	goto	l3750
  9471  04C1                     u5710:
  9472                           	
  9473  04C1                     l3744:	
  9474  04C1  0855               	movf	(DisplayLEDs@k),w
  9475  04C2  3E3E               	addlw	_matrix+03h&0ffh
  9476  04C3  0084               	movwf	fsr0
  9477  04C4  0800               	movf	indf,w
  9478  04C5  3A4F               	xorlw	04Fh
  9479  04C6  1D03               	skipz
  9480  04C7  2CC9               	goto	u5721
  9481  04C8  2CCA               	goto	u5720
  9482  04C9                     u5721:
  9483  04C9  2CDB               	goto	l3750
  9484  04CA                     u5720:
  9485                           	
  9486  04CA                     l3746:	
  9487  04CA  0855               	movf	(DisplayLEDs@k),w
  9488  04CB  3E41               	addlw	_matrix+06h&0ffh
  9489  04CC  0084               	movwf	fsr0
  9490  04CD  0800               	movf	indf,w
  9491  04CE  3A20               	xorlw	020h
  9492  04CF  1D03               	skipz
  9493  04D0  2CD2               	goto	u5731
  9494  04D1  2CD3               	goto	u5730
  9495  04D2                     u5731:
  9496  04D2  2CDB               	goto	l3750
  9497  04D3                     u5730:
  9498                           	
  9499  04D3                     l3748:	
  9500  04D3  3008               	movlw	(08h)
  9501  04D4  00D4               	movwf	(??_DisplayLEDs+0)+0
  9502  04D5  0855               	movf	(DisplayLEDs@k),w
  9503  04D6  3E44               	addlw	_result1&0ffh
  9504  04D7  0084               	movwf	fsr0
  9505  04D8  0854               	movf	(??_DisplayLEDs+0)+0,w
  9506  04D9  0080               	movwf	indf
  9507  04DA  2F1E               	goto	l3870
  9508                           	line	645
  9509                           	
  9510  04DB                     l474:	
  9511                           	
  9512  04DB                     l3750:	
  9513                           ;PR28.c: 645: else if(matrix[0][k] == ' ' & matrix[1][k] == ' ' & matrix[2][k] == 'X'){r
                                 esult1[k] = 0b00000010;}
  9514  04DB  0855               	movf	(DisplayLEDs@k),w
  9515  04DC  3E3B               	addlw	_matrix&0ffh
  9516  04DD  0084               	movwf	fsr0
  9517  04DE  0800               	movf	indf,w
  9518  04DF  3A20               	xorlw	020h
  9519  04E0  1D03               	skipz
  9520  04E1  2CE3               	goto	u5741
  9521  04E2  2CE4               	goto	u5740
  9522  04E3                     u5741:
  9523  04E3  2CFE               	goto	l3758
  9524  04E4                     u5740:
  9525                           	
  9526  04E4                     l3752:	
  9527  04E4  0855               	movf	(DisplayLEDs@k),w
  9528  04E5  3E3E               	addlw	_matrix+03h&0ffh
  9529  04E6  0084               	movwf	fsr0
  9530  04E7  0800               	movf	indf,w
  9531  04E8  3A20               	xorlw	020h
  9532  04E9  1D03               	skipz
  9533  04EA  2CEC               	goto	u5751
  9534  04EB  2CED               	goto	u5750
  9535  04EC                     u5751:
  9536  04EC  2CFE               	goto	l3758
  9537  04ED                     u5750:
  9538                           	
  9539  04ED                     l3754:	
  9540  04ED  0855               	movf	(DisplayLEDs@k),w
  9541  04EE  3E41               	addlw	_matrix+06h&0ffh
  9542  04EF  0084               	movwf	fsr0
  9543  04F0  0800               	movf	indf,w
  9544  04F1  3A58               	xorlw	058h
  9545  04F2  1D03               	skipz
  9546  04F3  2CF5               	goto	u5761
  9547  04F4  2CF6               	goto	u5760
  9548  04F5                     u5761:
  9549  04F5  2CFE               	goto	l3758
  9550  04F6                     u5760:
  9551                           	
  9552  04F6                     l3756:	
  9553  04F6  3002               	movlw	(02h)
  9554  04F7  00D4               	movwf	(??_DisplayLEDs+0)+0
  9555  04F8  0855               	movf	(DisplayLEDs@k),w
  9556  04F9  3E44               	addlw	_result1&0ffh
  9557  04FA  0084               	movwf	fsr0
  9558  04FB  0854               	movf	(??_DisplayLEDs+0)+0,w
  9559  04FC  0080               	movwf	indf
  9560  04FD  2F1E               	goto	l3870
  9561                           	line	647
  9562                           	
  9563  04FE                     l476:	
  9564                           	
  9565  04FE                     l3758:	
  9566                           ;PR28.c: 647: else if(matrix[0][k] == 'X' & matrix[1][k] == 'X' & matrix[2][k] == 'O'){r
                                 esult1[k] = 0b10010001;}
  9567  04FE  0855               	movf	(DisplayLEDs@k),w
  9568  04FF  3E3B               	addlw	_matrix&0ffh
  9569  0500  0084               	movwf	fsr0
  9570  0501  0800               	movf	indf,w
  9571  0502  3A58               	xorlw	058h
  9572  0503  1D03               	skipz
  9573  0504  2D06               	goto	u5771
  9574  0505  2D07               	goto	u5770
  9575  0506                     u5771:
  9576  0506  2D21               	goto	l3766
  9577  0507                     u5770:
  9578                           	
  9579  0507                     l3760:	
  9580  0507  0855               	movf	(DisplayLEDs@k),w
  9581  0508  3E3E               	addlw	_matrix+03h&0ffh
  9582  0509  0084               	movwf	fsr0
  9583  050A  0800               	movf	indf,w
  9584  050B  3A58               	xorlw	058h
  9585  050C  1D03               	skipz
  9586  050D  2D0F               	goto	u5781
  9587  050E  2D10               	goto	u5780
  9588  050F                     u5781:
  9589  050F  2D21               	goto	l3766
  9590  0510                     u5780:
  9591                           	
  9592  0510                     l3762:	
  9593  0510  0855               	movf	(DisplayLEDs@k),w
  9594  0511  3E41               	addlw	_matrix+06h&0ffh
  9595  0512  0084               	movwf	fsr0
  9596  0513  0800               	movf	indf,w
  9597  0514  3A4F               	xorlw	04Fh
  9598  0515  1D03               	skipz
  9599  0516  2D18               	goto	u5791
  9600  0517  2D19               	goto	u5790
  9601  0518                     u5791:
  9602  0518  2D21               	goto	l3766
  9603  0519                     u5790:
  9604                           	
  9605  0519                     l3764:	
  9606  0519  3091               	movlw	(091h)
  9607  051A  00D4               	movwf	(??_DisplayLEDs+0)+0
  9608  051B  0855               	movf	(DisplayLEDs@k),w
  9609  051C  3E44               	addlw	_result1&0ffh
  9610  051D  0084               	movwf	fsr0
  9611  051E  0854               	movf	(??_DisplayLEDs+0)+0,w
  9612  051F  0080               	movwf	indf
  9613  0520  2F1E               	goto	l3870
  9614                           	line	648
  9615                           	
  9616  0521                     l478:	
  9617                           	
  9618  0521                     l3766:	
  9619                           ;PR28.c: 648: else if(matrix[0][k] == 'X' & matrix[1][k] == 'X' & matrix[2][k] == ' '){r
                                 esult1[k] = 0b10010000;}
  9620  0521  0855               	movf	(DisplayLEDs@k),w
  9621  0522  3E3B               	addlw	_matrix&0ffh
  9622  0523  0084               	movwf	fsr0
  9623  0524  0800               	movf	indf,w
  9624  0525  3A58               	xorlw	058h
  9625  0526  1D03               	skipz
  9626  0527  2D29               	goto	u5801
  9627  0528  2D2A               	goto	u5800
  9628  0529                     u5801:
  9629  0529  2D44               	goto	l3774
  9630  052A                     u5800:
  9631                           	
  9632  052A                     l3768:	
  9633  052A  0855               	movf	(DisplayLEDs@k),w
  9634  052B  3E3E               	addlw	_matrix+03h&0ffh
  9635  052C  0084               	movwf	fsr0
  9636  052D  0800               	movf	indf,w
  9637  052E  3A58               	xorlw	058h
  9638  052F  1D03               	skipz
  9639  0530  2D32               	goto	u5811
  9640  0531  2D33               	goto	u5810
  9641  0532                     u5811:
  9642  0532  2D44               	goto	l3774
  9643  0533                     u5810:
  9644                           	
  9645  0533                     l3770:	
  9646  0533  0855               	movf	(DisplayLEDs@k),w
  9647  0534  3E41               	addlw	_matrix+06h&0ffh
  9648  0535  0084               	movwf	fsr0
  9649  0536  0800               	movf	indf,w
  9650  0537  3A20               	xorlw	020h
  9651  0538  1D03               	skipz
  9652  0539  2D3B               	goto	u5821
  9653  053A  2D3C               	goto	u5820
  9654  053B                     u5821:
  9655  053B  2D44               	goto	l3774
  9656  053C                     u5820:
  9657                           	
  9658  053C                     l3772:	
  9659  053C  3090               	movlw	(090h)
  9660  053D  00D4               	movwf	(??_DisplayLEDs+0)+0
  9661  053E  0855               	movf	(DisplayLEDs@k),w
  9662  053F  3E44               	addlw	_result1&0ffh
  9663  0540  0084               	movwf	fsr0
  9664  0541  0854               	movf	(??_DisplayLEDs+0)+0,w
  9665  0542  0080               	movwf	indf
  9666  0543  2F1E               	goto	l3870
  9667                           	line	649
  9668                           	
  9669  0544                     l480:	
  9670                           	
  9671  0544                     l3774:	
  9672                           ;PR28.c: 649: else if(matrix[0][k] == 'X' & matrix[1][k] == ' ' & matrix[2][k] == 'O'){r
                                 esult1[k] = 0b10000001;}
  9673  0544  0855               	movf	(DisplayLEDs@k),w
  9674  0545  3E3B               	addlw	_matrix&0ffh
  9675  0546  0084               	movwf	fsr0
  9676  0547  0800               	movf	indf,w
  9677  0548  3A58               	xorlw	058h
  9678  0549  1D03               	skipz
  9679  054A  2D4C               	goto	u5831
  9680  054B  2D4D               	goto	u5830
  9681  054C                     u5831:
  9682  054C  2D67               	goto	l3782
  9683  054D                     u5830:
  9684                           	
  9685  054D                     l3776:	
  9686  054D  0855               	movf	(DisplayLEDs@k),w
  9687  054E  3E3E               	addlw	_matrix+03h&0ffh
  9688  054F  0084               	movwf	fsr0
  9689  0550  0800               	movf	indf,w
  9690  0551  3A20               	xorlw	020h
  9691  0552  1D03               	skipz
  9692  0553  2D55               	goto	u5841
  9693  0554  2D56               	goto	u5840
  9694  0555                     u5841:
  9695  0555  2D67               	goto	l3782
  9696  0556                     u5840:
  9697                           	
  9698  0556                     l3778:	
  9699  0556  0855               	movf	(DisplayLEDs@k),w
  9700  0557  3E41               	addlw	_matrix+06h&0ffh
  9701  0558  0084               	movwf	fsr0
  9702  0559  0800               	movf	indf,w
  9703  055A  3A4F               	xorlw	04Fh
  9704  055B  1D03               	skipz
  9705  055C  2D5E               	goto	u5851
  9706  055D  2D5F               	goto	u5850
  9707  055E                     u5851:
  9708  055E  2D67               	goto	l3782
  9709  055F                     u5850:
  9710                           	
  9711  055F                     l3780:	
  9712  055F  3081               	movlw	(081h)
  9713  0560  00D4               	movwf	(??_DisplayLEDs+0)+0
  9714  0561  0855               	movf	(DisplayLEDs@k),w
  9715  0562  3E44               	addlw	_result1&0ffh
  9716  0563  0084               	movwf	fsr0
  9717  0564  0854               	movf	(??_DisplayLEDs+0)+0,w
  9718  0565  0080               	movwf	indf
  9719  0566  2F1E               	goto	l3870
  9720                           	line	650
  9721                           	
  9722  0567                     l482:	
  9723                           	
  9724  0567                     l3782:	
  9725                           ;PR28.c: 650: else if(matrix[0][k] == 'X' & matrix[1][k] == ' ' & matrix[2][k] == ' '){r
                                 esult1[k] = 0b10000000;}
  9726  0567  0855               	movf	(DisplayLEDs@k),w
  9727  0568  3E3B               	addlw	_matrix&0ffh
  9728  0569  0084               	movwf	fsr0
  9729  056A  0800               	movf	indf,w
  9730  056B  3A58               	xorlw	058h
  9731  056C  1D03               	skipz
  9732  056D  2D6F               	goto	u5861
  9733  056E  2D70               	goto	u5860
  9734  056F                     u5861:
  9735  056F  2D8A               	goto	l3790
  9736  0570                     u5860:
  9737                           	
  9738  0570                     l3784:	
  9739  0570  0855               	movf	(DisplayLEDs@k),w
  9740  0571  3E3E               	addlw	_matrix+03h&0ffh
  9741  0572  0084               	movwf	fsr0
  9742  0573  0800               	movf	indf,w
  9743  0574  3A20               	xorlw	020h
  9744  0575  1D03               	skipz
  9745  0576  2D78               	goto	u5871
  9746  0577  2D79               	goto	u5870
  9747  0578                     u5871:
  9748  0578  2D8A               	goto	l3790
  9749  0579                     u5870:
  9750                           	
  9751  0579                     l3786:	
  9752  0579  0855               	movf	(DisplayLEDs@k),w
  9753  057A  3E41               	addlw	_matrix+06h&0ffh
  9754  057B  0084               	movwf	fsr0
  9755  057C  0800               	movf	indf,w
  9756  057D  3A20               	xorlw	020h
  9757  057E  1D03               	skipz
  9758  057F  2D81               	goto	u5881
  9759  0580  2D82               	goto	u5880
  9760  0581                     u5881:
  9761  0581  2D8A               	goto	l3790
  9762  0582                     u5880:
  9763                           	
  9764  0582                     l3788:	
  9765  0582  3080               	movlw	(080h)
  9766  0583  00D4               	movwf	(??_DisplayLEDs+0)+0
  9767  0584  0855               	movf	(DisplayLEDs@k),w
  9768  0585  3E44               	addlw	_result1&0ffh
  9769  0586  0084               	movwf	fsr0
  9770  0587  0854               	movf	(??_DisplayLEDs+0)+0,w
  9771  0588  0080               	movwf	indf
  9772  0589  2F1E               	goto	l3870
  9773                           	line	651
  9774                           	
  9775  058A                     l484:	
  9776                           	
  9777  058A                     l3790:	
  9778                           ;PR28.c: 651: else if(matrix[0][k] == ' ' & matrix[1][k] == 'X' & matrix[2][k] == 'O'){r
                                 esult1[k] = 0b00010001;}
  9779  058A  0855               	movf	(DisplayLEDs@k),w
  9780  058B  3E3B               	addlw	_matrix&0ffh
  9781  058C  0084               	movwf	fsr0
  9782  058D  0800               	movf	indf,w
  9783  058E  3A20               	xorlw	020h
  9784  058F  1D03               	skipz
  9785  0590  2D92               	goto	u5891
  9786  0591  2D93               	goto	u5890
  9787  0592                     u5891:
  9788  0592  2DAD               	goto	l3798
  9789  0593                     u5890:
  9790                           	
  9791  0593                     l3792:	
  9792  0593  0855               	movf	(DisplayLEDs@k),w
  9793  0594  3E3E               	addlw	_matrix+03h&0ffh
  9794  0595  0084               	movwf	fsr0
  9795  0596  0800               	movf	indf,w
  9796  0597  3A58               	xorlw	058h
  9797  0598  1D03               	skipz
  9798  0599  2D9B               	goto	u5901
  9799  059A  2D9C               	goto	u5900
  9800  059B                     u5901:
  9801  059B  2DAD               	goto	l3798
  9802  059C                     u5900:
  9803                           	
  9804  059C                     l3794:	
  9805  059C  0855               	movf	(DisplayLEDs@k),w
  9806  059D  3E41               	addlw	_matrix+06h&0ffh
  9807  059E  0084               	movwf	fsr0
  9808  059F  0800               	movf	indf,w
  9809  05A0  3A4F               	xorlw	04Fh
  9810  05A1  1D03               	skipz
  9811  05A2  2DA4               	goto	u5911
  9812  05A3  2DA5               	goto	u5910
  9813  05A4                     u5911:
  9814  05A4  2DAD               	goto	l3798
  9815  05A5                     u5910:
  9816                           	
  9817  05A5                     l3796:	
  9818  05A5  3011               	movlw	(011h)
  9819  05A6  00D4               	movwf	(??_DisplayLEDs+0)+0
  9820  05A7  0855               	movf	(DisplayLEDs@k),w
  9821  05A8  3E44               	addlw	_result1&0ffh
  9822  05A9  0084               	movwf	fsr0
  9823  05AA  0854               	movf	(??_DisplayLEDs+0)+0,w
  9824  05AB  0080               	movwf	indf
  9825  05AC  2F1E               	goto	l3870
  9826                           	line	652
  9827                           	
  9828  05AD                     l486:	
  9829                           	
  9830  05AD                     l3798:	
  9831                           ;PR28.c: 652: else if(matrix[0][k] == ' ' & matrix[1][k] == 'X' & matrix[2][k] == ' '){r
                                 esult1[k] = 0b00010000;}
  9832  05AD  0855               	movf	(DisplayLEDs@k),w
  9833  05AE  3E3B               	addlw	_matrix&0ffh
  9834  05AF  0084               	movwf	fsr0
  9835  05B0  0800               	movf	indf,w
  9836  05B1  3A20               	xorlw	020h
  9837  05B2  1D03               	skipz
  9838  05B3  2DB5               	goto	u5921
  9839  05B4  2DB6               	goto	u5920
  9840  05B5                     u5921:
  9841  05B5  2DD0               	goto	l3806
  9842  05B6                     u5920:
  9843                           	
  9844  05B6                     l3800:	
  9845  05B6  0855               	movf	(DisplayLEDs@k),w
  9846  05B7  3E3E               	addlw	_matrix+03h&0ffh
  9847  05B8  0084               	movwf	fsr0
  9848  05B9  0800               	movf	indf,w
  9849  05BA  3A58               	xorlw	058h
  9850  05BB  1D03               	skipz
  9851  05BC  2DBE               	goto	u5931
  9852  05BD  2DBF               	goto	u5930
  9853  05BE                     u5931:
  9854  05BE  2DD0               	goto	l3806
  9855  05BF                     u5930:
  9856                           	
  9857  05BF                     l3802:	
  9858  05BF  0855               	movf	(DisplayLEDs@k),w
  9859  05C0  3E41               	addlw	_matrix+06h&0ffh
  9860  05C1  0084               	movwf	fsr0
  9861  05C2  0800               	movf	indf,w
  9862  05C3  3A20               	xorlw	020h
  9863  05C4  1D03               	skipz
  9864  05C5  2DC7               	goto	u5941
  9865  05C6  2DC8               	goto	u5940
  9866  05C7                     u5941:
  9867  05C7  2DD0               	goto	l3806
  9868  05C8                     u5940:
  9869                           	
  9870  05C8                     l3804:	
  9871  05C8  3010               	movlw	(010h)
  9872  05C9  00D4               	movwf	(??_DisplayLEDs+0)+0
  9873  05CA  0855               	movf	(DisplayLEDs@k),w
  9874  05CB  3E44               	addlw	_result1&0ffh
  9875  05CC  0084               	movwf	fsr0
  9876  05CD  0854               	movf	(??_DisplayLEDs+0)+0,w
  9877  05CE  0080               	movwf	indf
  9878  05CF  2F1E               	goto	l3870
  9879                           	line	653
  9880                           	
  9881  05D0                     l488:	
  9882                           	
  9883  05D0                     l3806:	
  9884                           ;PR28.c: 653: else if(matrix[0][k] == ' ' & matrix[1][k] == ' ' & matrix[2][k] == 'O'){r
                                 esult1[k] = 0b00000001;}
  9885  05D0  0855               	movf	(DisplayLEDs@k),w
  9886  05D1  3E3B               	addlw	_matrix&0ffh
  9887  05D2  0084               	movwf	fsr0
  9888  05D3  0800               	movf	indf,w
  9889  05D4  3A20               	xorlw	020h
  9890  05D5  1D03               	skipz
  9891  05D6  2DD8               	goto	u5951
  9892  05D7  2DD9               	goto	u5950
  9893  05D8                     u5951:
  9894  05D8  2DF2               	goto	l3814
  9895  05D9                     u5950:
  9896                           	
  9897  05D9                     l3808:	
  9898  05D9  0855               	movf	(DisplayLEDs@k),w
  9899  05DA  3E3E               	addlw	_matrix+03h&0ffh
  9900  05DB  0084               	movwf	fsr0
  9901  05DC  0800               	movf	indf,w
  9902  05DD  3A20               	xorlw	020h
  9903  05DE  1D03               	skipz
  9904  05DF  2DE1               	goto	u5961
  9905  05E0  2DE2               	goto	u5960
  9906  05E1                     u5961:
  9907  05E1  2DF2               	goto	l3814
  9908  05E2                     u5960:
  9909                           	
  9910  05E2                     l3810:	
  9911  05E2  0855               	movf	(DisplayLEDs@k),w
  9912  05E3  3E41               	addlw	_matrix+06h&0ffh
  9913  05E4  0084               	movwf	fsr0
  9914  05E5  0800               	movf	indf,w
  9915  05E6  3A4F               	xorlw	04Fh
  9916  05E7  1D03               	skipz
  9917  05E8  2DEA               	goto	u5971
  9918  05E9  2DEB               	goto	u5970
  9919  05EA                     u5971:
  9920  05EA  2DF2               	goto	l3814
  9921  05EB                     u5970:
  9922                           	
  9923  05EB                     l3812:	
  9924  05EB  0855               	movf	(DisplayLEDs@k),w
  9925  05EC  3E44               	addlw	_result1&0ffh
  9926  05ED  0084               	movwf	fsr0
  9927  05EE  0180               	clrf	indf
  9928  05EF  1403               	bsf	status,0
  9929  05F0  0D80               	rlf	indf,f
  9930  05F1  2F1E               	goto	l3870
  9931                           	line	655
  9932                           	
  9933  05F2                     l490:	
  9934                           	
  9935  05F2                     l3814:	
  9936                           ;PR28.c: 655: else if(matrix[0][k] == 'X' & matrix[1][k] == 'X' & matrix[2][k] == 'X'){r
                                 esult1[k] = 0b10010010;}
  9937  05F2  0855               	movf	(DisplayLEDs@k),w
  9938  05F3  3E3B               	addlw	_matrix&0ffh
  9939  05F4  0084               	movwf	fsr0
  9940  05F5  0800               	movf	indf,w
  9941  05F6  3A58               	xorlw	058h
  9942  05F7  1D03               	skipz
  9943  05F8  2DFA               	goto	u5981
  9944  05F9  2DFB               	goto	u5980
  9945  05FA                     u5981:
  9946  05FA  2E15               	goto	l3822
  9947  05FB                     u5980:
  9948                           	
  9949  05FB                     l3816:	
  9950  05FB  0855               	movf	(DisplayLEDs@k),w
  9951  05FC  3E3E               	addlw	_matrix+03h&0ffh
  9952  05FD  0084               	movwf	fsr0
  9953  05FE  0800               	movf	indf,w
  9954  05FF  3A58               	xorlw	058h
  9955  0600  1D03               	skipz
  9956  0601  2E03               	goto	u5991
  9957  0602  2E04               	goto	u5990
  9958  0603                     u5991:
  9959  0603  2E15               	goto	l3822
  9960  0604                     u5990:
  9961                           	
  9962  0604                     l3818:	
  9963  0604  0855               	movf	(DisplayLEDs@k),w
  9964  0605  3E41               	addlw	_matrix+06h&0ffh
  9965  0606  0084               	movwf	fsr0
  9966  0607  0800               	movf	indf,w
  9967  0608  3A58               	xorlw	058h
  9968  0609  1D03               	skipz
  9969  060A  2E0C               	goto	u6001
  9970  060B  2E0D               	goto	u6000
  9971  060C                     u6001:
  9972  060C  2E15               	goto	l3822
  9973  060D                     u6000:
  9974                           	
  9975  060D                     l3820:	
  9976  060D  3092               	movlw	(092h)
  9977  060E  00D4               	movwf	(??_DisplayLEDs+0)+0
  9978  060F  0855               	movf	(DisplayLEDs@k),w
  9979  0610  3E44               	addlw	_result1&0ffh
  9980  0611  0084               	movwf	fsr0
  9981  0612  0854               	movf	(??_DisplayLEDs+0)+0,w
  9982  0613  0080               	movwf	indf
  9983  0614  2F1E               	goto	l3870
  9984                           	line	656
  9985                           	
  9986  0615                     l492:	
  9987                           	
  9988  0615                     l3822:	
  9989                           ;PR28.c: 656: else if(matrix[0][k] == 'X' & matrix[1][k] == 'X' & matrix[2][k] == ' '){r
                                 esult1[k] = 0b10010000;}
  9990  0615  0855               	movf	(DisplayLEDs@k),w
  9991  0616  3E3B               	addlw	_matrix&0ffh
  9992  0617  0084               	movwf	fsr0
  9993  0618  0800               	movf	indf,w
  9994  0619  3A58               	xorlw	058h
  9995  061A  1D03               	skipz
  9996  061B  2E1D               	goto	u6011
  9997  061C  2E1E               	goto	u6010
  9998  061D                     u6011:
  9999  061D  2E38               	goto	l3830
 10000  061E                     u6010:
 10001                           	
 10002  061E                     l3824:	
 10003  061E  0855               	movf	(DisplayLEDs@k),w
 10004  061F  3E3E               	addlw	_matrix+03h&0ffh
 10005  0620  0084               	movwf	fsr0
 10006  0621  0800               	movf	indf,w
 10007  0622  3A58               	xorlw	058h
 10008  0623  1D03               	skipz
 10009  0624  2E26               	goto	u6021
 10010  0625  2E27               	goto	u6020
 10011  0626                     u6021:
 10012  0626  2E38               	goto	l3830
 10013  0627                     u6020:
 10014                           	
 10015  0627                     l3826:	
 10016  0627  0855               	movf	(DisplayLEDs@k),w
 10017  0628  3E41               	addlw	_matrix+06h&0ffh
 10018  0629  0084               	movwf	fsr0
 10019  062A  0800               	movf	indf,w
 10020  062B  3A20               	xorlw	020h
 10021  062C  1D03               	skipz
 10022  062D  2E2F               	goto	u6031
 10023  062E  2E30               	goto	u6030
 10024  062F                     u6031:
 10025  062F  2E38               	goto	l3830
 10026  0630                     u6030:
 10027                           	
 10028  0630                     l3828:	
 10029  0630  3090               	movlw	(090h)
 10030  0631  00D4               	movwf	(??_DisplayLEDs+0)+0
 10031  0632  0855               	movf	(DisplayLEDs@k),w
 10032  0633  3E44               	addlw	_result1&0ffh
 10033  0634  0084               	movwf	fsr0
 10034  0635  0854               	movf	(??_DisplayLEDs+0)+0,w
 10035  0636  0080               	movwf	indf
 10036  0637  2F1E               	goto	l3870
 10037                           	line	657
 10038                           	
 10039  0638                     l494:	
 10040                           	
 10041  0638                     l3830:	
 10042                           ;PR28.c: 657: else if(matrix[0][k] == 'X' & matrix[1][k] == ' ' & matrix[2][k] == 'X'){r
                                 esult1[k] = 0b10000010;}
 10043  0638  0855               	movf	(DisplayLEDs@k),w
 10044  0639  3E3B               	addlw	_matrix&0ffh
 10045  063A  0084               	movwf	fsr0
 10046  063B  0800               	movf	indf,w
 10047  063C  3A58               	xorlw	058h
 10048  063D  1D03               	skipz
 10049  063E  2E40               	goto	u6041
 10050  063F  2E41               	goto	u6040
 10051  0640                     u6041:
 10052  0640  2E5B               	goto	l3838
 10053  0641                     u6040:
 10054                           	
 10055  0641                     l3832:	
 10056  0641  0855               	movf	(DisplayLEDs@k),w
 10057  0642  3E3E               	addlw	_matrix+03h&0ffh
 10058  0643  0084               	movwf	fsr0
 10059  0644  0800               	movf	indf,w
 10060  0645  3A20               	xorlw	020h
 10061  0646  1D03               	skipz
 10062  0647  2E49               	goto	u6051
 10063  0648  2E4A               	goto	u6050
 10064  0649                     u6051:
 10065  0649  2E5B               	goto	l3838
 10066  064A                     u6050:
 10067                           	
 10068  064A                     l3834:	
 10069  064A  0855               	movf	(DisplayLEDs@k),w
 10070  064B  3E41               	addlw	_matrix+06h&0ffh
 10071  064C  0084               	movwf	fsr0
 10072  064D  0800               	movf	indf,w
 10073  064E  3A58               	xorlw	058h
 10074  064F  1D03               	skipz
 10075  0650  2E52               	goto	u6061
 10076  0651  2E53               	goto	u6060
 10077  0652                     u6061:
 10078  0652  2E5B               	goto	l3838
 10079  0653                     u6060:
 10080                           	
 10081  0653                     l3836:	
 10082  0653  3082               	movlw	(082h)
 10083  0654  00D4               	movwf	(??_DisplayLEDs+0)+0
 10084  0655  0855               	movf	(DisplayLEDs@k),w
 10085  0656  3E44               	addlw	_result1&0ffh
 10086  0657  0084               	movwf	fsr0
 10087  0658  0854               	movf	(??_DisplayLEDs+0)+0,w
 10088  0659  0080               	movwf	indf
 10089  065A  2F1E               	goto	l3870
 10090                           	line	658
 10091                           	
 10092  065B                     l496:	
 10093                           	
 10094  065B                     l3838:	
 10095                           ;PR28.c: 658: else if(matrix[0][k] == 'X' & matrix[1][k] == ' ' & matrix[2][k] == ' '){r
                                 esult1[k] = 0b10000000;}
 10096  065B  0855               	movf	(DisplayLEDs@k),w
 10097  065C  3E3B               	addlw	_matrix&0ffh
 10098  065D  0084               	movwf	fsr0
 10099  065E  0800               	movf	indf,w
 10100  065F  3A58               	xorlw	058h
 10101  0660  1D03               	skipz
 10102  0661  2E63               	goto	u6071
 10103  0662  2E64               	goto	u6070
 10104  0663                     u6071:
 10105  0663  2E7E               	goto	l3846
 10106  0664                     u6070:
 10107                           	
 10108  0664                     l3840:	
 10109  0664  0855               	movf	(DisplayLEDs@k),w
 10110  0665  3E3E               	addlw	_matrix+03h&0ffh
 10111  0666  0084               	movwf	fsr0
 10112  0667  0800               	movf	indf,w
 10113  0668  3A20               	xorlw	020h
 10114  0669  1D03               	skipz
 10115  066A  2E6C               	goto	u6081
 10116  066B  2E6D               	goto	u6080
 10117  066C                     u6081:
 10118  066C  2E7E               	goto	l3846
 10119  066D                     u6080:
 10120                           	
 10121  066D                     l3842:	
 10122  066D  0855               	movf	(DisplayLEDs@k),w
 10123  066E  3E41               	addlw	_matrix+06h&0ffh
 10124  066F  0084               	movwf	fsr0
 10125  0670  0800               	movf	indf,w
 10126  0671  3A20               	xorlw	020h
 10127  0672  1D03               	skipz
 10128  0673  2E75               	goto	u6091
 10129  0674  2E76               	goto	u6090
 10130  0675                     u6091:
 10131  0675  2E7E               	goto	l3846
 10132  0676                     u6090:
 10133                           	
 10134  0676                     l3844:	
 10135  0676  3080               	movlw	(080h)
 10136  0677  00D4               	movwf	(??_DisplayLEDs+0)+0
 10137  0678  0855               	movf	(DisplayLEDs@k),w
 10138  0679  3E44               	addlw	_result1&0ffh
 10139  067A  0084               	movwf	fsr0
 10140  067B  0854               	movf	(??_DisplayLEDs+0)+0,w
 10141  067C  0080               	movwf	indf
 10142  067D  2F1E               	goto	l3870
 10143                           	line	659
 10144                           	
 10145  067E                     l498:	
 10146                           	
 10147  067E                     l3846:	
 10148                           ;PR28.c: 659: else if(matrix[0][k] == ' ' & matrix[1][k] == 'X' & matrix[2][k] == 'X'){r
                                 esult1[k] = 0b00010010;}
 10149  067E  0855               	movf	(DisplayLEDs@k),w
 10150  067F  3E3B               	addlw	_matrix&0ffh
 10151  0680  0084               	movwf	fsr0
 10152  0681  0800               	movf	indf,w
 10153  0682  3A20               	xorlw	020h
 10154  0683  1D03               	skipz
 10155  0684  2E86               	goto	u6101
 10156  0685  2E87               	goto	u6100
 10157  0686                     u6101:
 10158  0686  2EA1               	goto	l3854
 10159  0687                     u6100:
 10160                           	
 10161  0687                     l3848:	
 10162  0687  0855               	movf	(DisplayLEDs@k),w
 10163  0688  3E3E               	addlw	_matrix+03h&0ffh
 10164  0689  0084               	movwf	fsr0
 10165  068A  0800               	movf	indf,w
 10166  068B  3A58               	xorlw	058h
 10167  068C  1D03               	skipz
 10168  068D  2E8F               	goto	u6111
 10169  068E  2E90               	goto	u6110
 10170  068F                     u6111:
 10171  068F  2EA1               	goto	l3854
 10172  0690                     u6110:
 10173                           	
 10174  0690                     l3850:	
 10175  0690  0855               	movf	(DisplayLEDs@k),w
 10176  0691  3E41               	addlw	_matrix+06h&0ffh
 10177  0692  0084               	movwf	fsr0
 10178  0693  0800               	movf	indf,w
 10179  0694  3A58               	xorlw	058h
 10180  0695  1D03               	skipz
 10181  0696  2E98               	goto	u6121
 10182  0697  2E99               	goto	u6120
 10183  0698                     u6121:
 10184  0698  2EA1               	goto	l3854
 10185  0699                     u6120:
 10186                           	
 10187  0699                     l3852:	
 10188  0699  3012               	movlw	(012h)
 10189  069A  00D4               	movwf	(??_DisplayLEDs+0)+0
 10190  069B  0855               	movf	(DisplayLEDs@k),w
 10191  069C  3E44               	addlw	_result1&0ffh
 10192  069D  0084               	movwf	fsr0
 10193  069E  0854               	movf	(??_DisplayLEDs+0)+0,w
 10194  069F  0080               	movwf	indf
 10195  06A0  2F1E               	goto	l3870
 10196                           	line	660
 10197                           	
 10198  06A1                     l500:	
 10199                           	
 10200  06A1                     l3854:	
 10201                           ;PR28.c: 660: else if(matrix[0][k] == ' ' & matrix[1][k] == 'X' & matrix[2][k] == ' '){r
                                 esult1[k] = 0b00010000;}
 10202  06A1  0855               	movf	(DisplayLEDs@k),w
 10203  06A2  3E3B               	addlw	_matrix&0ffh
 10204  06A3  0084               	movwf	fsr0
 10205  06A4  0800               	movf	indf,w
 10206  06A5  3A20               	xorlw	020h
 10207  06A6  1D03               	skipz
 10208  06A7  2EA9               	goto	u6131
 10209  06A8  2EAA               	goto	u6130
 10210  06A9                     u6131:
 10211  06A9  2EC4               	goto	l3862
 10212  06AA                     u6130:
 10213                           	
 10214  06AA                     l3856:	
 10215  06AA  0855               	movf	(DisplayLEDs@k),w
 10216  06AB  3E3E               	addlw	_matrix+03h&0ffh
 10217  06AC  0084               	movwf	fsr0
 10218  06AD  0800               	movf	indf,w
 10219  06AE  3A58               	xorlw	058h
 10220  06AF  1D03               	skipz
 10221  06B0  2EB2               	goto	u6141
 10222  06B1  2EB3               	goto	u6140
 10223  06B2                     u6141:
 10224  06B2  2EC4               	goto	l3862
 10225  06B3                     u6140:
 10226                           	
 10227  06B3                     l3858:	
 10228  06B3  0855               	movf	(DisplayLEDs@k),w
 10229  06B4  3E41               	addlw	_matrix+06h&0ffh
 10230  06B5  0084               	movwf	fsr0
 10231  06B6  0800               	movf	indf,w
 10232  06B7  3A20               	xorlw	020h
 10233  06B8  1D03               	skipz
 10234  06B9  2EBB               	goto	u6151
 10235  06BA  2EBC               	goto	u6150
 10236  06BB                     u6151:
 10237  06BB  2EC4               	goto	l3862
 10238  06BC                     u6150:
 10239                           	
 10240  06BC                     l3860:	
 10241  06BC  3010               	movlw	(010h)
 10242  06BD  00D4               	movwf	(??_DisplayLEDs+0)+0
 10243  06BE  0855               	movf	(DisplayLEDs@k),w
 10244  06BF  3E44               	addlw	_result1&0ffh
 10245  06C0  0084               	movwf	fsr0
 10246  06C1  0854               	movf	(??_DisplayLEDs+0)+0,w
 10247  06C2  0080               	movwf	indf
 10248  06C3  2F1E               	goto	l3870
 10249                           	line	661
 10250                           	
 10251  06C4                     l502:	
 10252                           	
 10253  06C4                     l3862:	
 10254                           ;PR28.c: 661: else if(matrix[0][k] == ' ' & matrix[1][k] == ' ' & matrix[2][k] == 'X'){r
                                 esult1[k] = 0b00000010;}
 10255  06C4  0855               	movf	(DisplayLEDs@k),w
 10256  06C5  3E3B               	addlw	_matrix&0ffh
 10257  06C6  0084               	movwf	fsr0
 10258  06C7  0800               	movf	indf,w
 10259  06C8  3A20               	xorlw	020h
 10260  06C9  1D03               	skipz
 10261  06CA  2ECC               	goto	u6161
 10262  06CB  2ECD               	goto	u6160
 10263  06CC                     u6161:
 10264  06CC  2F1E               	goto	l3870
 10265  06CD                     u6160:
 10266                           	
 10267  06CD                     l3864:	
 10268  06CD  0855               	movf	(DisplayLEDs@k),w
 10269  06CE  3E3E               	addlw	_matrix+03h&0ffh
 10270  06CF  0084               	movwf	fsr0
 10271  06D0  0800               	movf	indf,w
 10272  06D1  3A20               	xorlw	020h
 10273  06D2  1D03               	skipz
 10274  06D3  2ED5               	goto	u6171
 10275  06D4  2ED6               	goto	u6170
 10276  06D5                     u6171:
 10277  06D5  2F1E               	goto	l3870
 10278  06D6                     u6170:
 10279                           	
 10280  06D6                     l3866:	
 10281  06D6  0855               	movf	(DisplayLEDs@k),w
 10282  06D7  3E41               	addlw	_matrix+06h&0ffh
 10283  06D8  0084               	movwf	fsr0
 10284  06D9  0800               	movf	indf,w
 10285  06DA  3A58               	xorlw	058h
 10286  06DB  1D03               	skipz
 10287  06DC  2EDE               	goto	u6181
 10288  06DD  2EDF               	goto	u6180
 10289  06DE                     u6181:
 10290  06DE  2F1E               	goto	l3870
 10291  06DF                     u6180:
 10292                           	
 10293  06DF                     l3868:	
 10294  06DF  3002               	movlw	(02h)
 10295  06E0  00D4               	movwf	(??_DisplayLEDs+0)+0
 10296  06E1  0855               	movf	(DisplayLEDs@k),w
 10297  06E2  3E44               	addlw	_result1&0ffh
 10298  06E3  0084               	movwf	fsr0
 10299  06E4  0854               	movf	(??_DisplayLEDs+0)+0,w
 10300  06E5  0080               	movwf	indf
 10301  06E6  2F1E               	goto	l3870
 10302                           	
 10303  06E7                     l504:	
 10304  06E7  2F1E               	goto	l3870
 10305                           	line	663
 10306                           	
 10307  06E8                     l503:	
 10308  06E8  2F1E               	goto	l3870
 10309                           	
 10310  06E9                     l501:	
 10311  06E9  2F1E               	goto	l3870
 10312                           	
 10313  06EA                     l499:	
 10314  06EA  2F1E               	goto	l3870
 10315                           	
 10316  06EB                     l497:	
 10317  06EB  2F1E               	goto	l3870
 10318                           	
 10319  06EC                     l495:	
 10320  06EC  2F1E               	goto	l3870
 10321                           	
 10322  06ED                     l493:	
 10323  06ED  2F1E               	goto	l3870
 10324                           	
 10325  06EE                     l491:	
 10326  06EE  2F1E               	goto	l3870
 10327                           	
 10328  06EF                     l489:	
 10329  06EF  2F1E               	goto	l3870
 10330                           	
 10331  06F0                     l487:	
 10332  06F0  2F1E               	goto	l3870
 10333                           	
 10334  06F1                     l485:	
 10335  06F1  2F1E               	goto	l3870
 10336                           	
 10337  06F2                     l483:	
 10338  06F2  2F1E               	goto	l3870
 10339                           	
 10340  06F3                     l481:	
 10341  06F3  2F1E               	goto	l3870
 10342                           	
 10343  06F4                     l479:	
 10344  06F4  2F1E               	goto	l3870
 10345                           	
 10346  06F5                     l477:	
 10347  06F5  2F1E               	goto	l3870
 10348                           	
 10349  06F6                     l475:	
 10350  06F6  2F1E               	goto	l3870
 10351                           	
 10352  06F7                     l473:	
 10353  06F7  2F1E               	goto	l3870
 10354                           	
 10355  06F8                     l471:	
 10356  06F8  2F1E               	goto	l3870
 10357                           	
 10358  06F9                     l469:	
 10359  06F9  2F1E               	goto	l3870
 10360                           	
 10361  06FA                     l467:	
 10362  06FA  2F1E               	goto	l3870
 10363                           	
 10364  06FB                     l465:	
 10365  06FB  2F1E               	goto	l3870
 10366                           	
 10367  06FC                     l463:	
 10368  06FC  2F1E               	goto	l3870
 10369                           	
 10370  06FD                     l461:	
 10371  06FD  2F1E               	goto	l3870
 10372                           	
 10373  06FE                     l459:	
 10374  06FE  2F1E               	goto	l3870
 10375                           	
 10376  06FF                     l457:	
 10377  06FF  2F1E               	goto	l3870
 10378                           	
 10379  0700                     l455:	
 10380  0700  2F1E               	goto	l3870
 10381                           	
 10382  0701                     l453:	
 10383  0701  2F1E               	goto	l3870
 10384                           	
 10385  0702                     l451:	
 10386  0702  2F1E               	goto	l3870
 10387                           	
 10388  0703                     l449:	
 10389  0703  2F1E               	goto	l3870
 10390                           	
 10391  0704                     l447:	
 10392  0704  2F1E               	goto	l3870
 10393                           	
 10394  0705                     l445:	
 10395  0705  2F1E               	goto	l3870
 10396                           	
 10397  0706                     l443:	
 10398  0706  2F1E               	goto	l3870
 10399                           	
 10400  0707                     l441:	
 10401  0707  2F1E               	goto	l3870
 10402                           	
 10403  0708                     l439:	
 10404  0708  2F1E               	goto	l3870
 10405                           	
 10406  0709                     l437:	
 10407  0709  2F1E               	goto	l3870
 10408                           	
 10409  070A                     l435:	
 10410  070A  2F1E               	goto	l3870
 10411                           	
 10412  070B                     l433:	
 10413  070B  2F1E               	goto	l3870
 10414                           	
 10415  070C                     l431:	
 10416  070C  2F1E               	goto	l3870
 10417                           	
 10418  070D                     l429:	
 10419  070D  2F1E               	goto	l3870
 10420                           	
 10421  070E                     l427:	
 10422  070E  2F1E               	goto	l3870
 10423                           	
 10424  070F                     l425:	
 10425  070F  2F1E               	goto	l3870
 10426                           	
 10427  0710                     l423:	
 10428  0710  2F1E               	goto	l3870
 10429                           	
 10430  0711                     l421:	
 10431  0711  2F1E               	goto	l3870
 10432                           	
 10433  0712                     l419:	
 10434  0712  2F1E               	goto	l3870
 10435                           	
 10436  0713                     l417:	
 10437  0713  2F1E               	goto	l3870
 10438                           	
 10439  0714                     l415:	
 10440  0714  2F1E               	goto	l3870
 10441                           	
 10442  0715                     l413:	
 10443  0715  2F1E               	goto	l3870
 10444                           	
 10445  0716                     l411:	
 10446  0716  2F1E               	goto	l3870
 10447                           	
 10448  0717                     l409:	
 10449  0717  2F1E               	goto	l3870
 10450                           	
 10451  0718                     l407:	
 10452  0718  2F1E               	goto	l3870
 10453                           	
 10454  0719                     l405:	
 10455  0719  2F1E               	goto	l3870
 10456                           	
 10457  071A                     l403:	
 10458  071A  2F1E               	goto	l3870
 10459                           	
 10460  071B                     l401:	
 10461  071B  2F1E               	goto	l3870
 10462                           	
 10463  071C                     l399:	
 10464  071C  2F1E               	goto	l3870
 10465                           	
 10466  071D                     l397:	
 10467  071D  2F1E               	goto	l3870
 10468                           	
 10469  071E                     l395:	
 10470                           	
 10471  071E                     l3870:	
 10472                           ;PR28.c: 663: led_display1(result1[0]);led_display2(result1[1]);led_display3(result1[2])
                                 ;
 10473  071E  0844               	movf	(_result1),w
 10474  071F  160A  118A  227D   	fcall	_led_display1
              120A  118A         
 10475                           	
 10476  0724                     l3872:	
 10477  0724  1283               	bcf	status, 5	;RP0=0, select bank0
 10478  0725  1303               	bcf	status, 6	;RP1=0, select bank0
 10479  0726  0845               	movf	0+(_result1)+01h,w
 10480  0727  160A  118A  21F7   	fcall	_led_display2
              120A  118A         
 10481                           	
 10482  072C                     l3874:	
 10483  072C  1283               	bcf	status, 5	;RP0=0, select bank0
 10484  072D  1303               	bcf	status, 6	;RP1=0, select bank0
 10485  072E  0846               	movf	0+(_result1)+02h,w
 10486  072F  160A  118A  2171   	fcall	_led_display3
              120A  118A         
 10487                           	line	596
 10488                           	
 10489  0734                     l3876:	
 10490  0734  3001               	movlw	low(01h)
 10491  0735  1283               	bcf	status, 5	;RP0=0, select bank0
 10492  0736  1303               	bcf	status, 6	;RP1=0, select bank0
 10493  0737  07D5               	addwf	(DisplayLEDs@k),f
 10494  0738  1803               	skipnc
 10495  0739  0AD6               	incf	(DisplayLEDs@k+1),f
 10496  073A  3000               	movlw	high(01h)
 10497  073B  07D6               	addwf	(DisplayLEDs@k+1),f
 10498                           	
 10499  073C                     l3878:	
 10500  073C  0856               	movf	(DisplayLEDs@k+1),w
 10501  073D  3A80               	xorlw	80h
 10502  073E  00FF               	movwf	btemp+1
 10503  073F  3080               	movlw	(high(03h))^80h
 10504  0740  027F               	subwf	btemp+1,w
 10505  0741  1D03               	skipz
 10506  0742  2F45               	goto	u6195
 10507  0743  3003               	movlw	low(03h)
 10508  0744  0255               	subwf	(DisplayLEDs@k),w
 10509  0745                     u6195:
 10510                           
 10511  0745  1C03               	skipc
 10512  0746  2F48               	goto	u6191
 10513  0747  2F4B               	goto	u6190
 10514  0748                     u6191:
 10515  0748  160A  118A  2CBB   	goto	l3420
 10516  074B                     u6190:
 10517  074B  2F4C               	goto	l505
 10518                           	
 10519  074C                     l393:	
 10520                           	line	665
 10521                           	
 10522  074C                     l505:	
 10523  074C  0008               	return
 10524                           	opt stack 0
 10525                           GLOBAL	__end_of_DisplayLEDs
 10526  074D                     	__end_of_DisplayLEDs:
 10527                           	signat	_DisplayLEDs,88
 10528                           	global	_RestartTimer1
 10529                           
 10530 ;; *************** function _RestartTimer1 *****************
 10531 ;; Defined at:
 10532 ;;		line 544 in file "PR28.c"
 10533 ;; Parameters:    Size  Location     Type
 10534 ;;		None
 10535 ;; Auto vars:     Size  Location     Type
 10536 ;;		None
 10537 ;; Return value:  Size  Location     Type
 10538 ;;		None               void
 10539 ;; Registers used:
 10540 ;;		status,2
 10541 ;; Tracked objects:
 10542 ;;		On entry : 0/0
 10543 ;;		On exit  : 0/0
 10544 ;;		Unchanged: 0/0
 10545 ;; Data sizes:     COMMON   BANK0   BANK1   BANK3   BANK2
 10546 ;;      Params:         0       0       0       0       0
 10547 ;;      Locals:         0       0       0       0       0
 10548 ;;      Temps:          0       0       0       0       0
 10549 ;;      Totals:         0       0       0       0       0
 10550 ;;Total ram usage:        0 bytes
 10551 ;; Hardware stack levels used:    1
 10552 ;; Hardware stack levels required when called:    3
 10553 ;; This function calls:
 10554 ;;		Nothing
 10555 ;; This function is called by:
 10556 ;;		_PIEZO
 10557 ;;		_PIEZO_D
 10558 ;;		_PIEZO_S
 10559 ;; This function uses a non-reentrant model
 10560 ;;
 10561                           psect	text676,local,class=CODE,delta=2,merge=1
 10562                           global __ptext676
 10563  1E0B                     __ptext676:
 10564                           psect	text676
 10565                           	file	"PR28.c"
 10566                           	line	544
 10567                           	global	__size_of_RestartTimer1
 10568  0009                     	__size_of_RestartTimer1	equ	__end_of_RestartTimer1-_RestartTimer1
 10569                           	
 10570  1E0B                     _RestartTimer1:	
 10571                           	opt	stack 3
 10572                           ; Regs used in _RestartTimer1: [status,2]
 10573                           	line	545
 10574                           	
 10575  1E0B                     l3904:	
 10576                           ;PR28.c: 545: TMR1L = 0;
 10577  1E0B  1283               	bcf	status, 5	;RP0=0, select bank0
 10578  1E0C  1303               	bcf	status, 6	;RP1=0, select bank0
 10579  1E0D  018E               	clrf	(14)	;volatile
 10580                           	line	546
 10581                           ;PR28.c: 546: TMR1H = 0;
 10582  1E0E  018F               	clrf	(15)	;volatile
 10583                           	line	547
 10584                           ;PR28.c: 547: TMR2 = 0;
 10585  1E0F  0191               	clrf	(17)	;volatile
 10586                           	line	548
 10587                           	
 10588  1E10                     l3906:	
 10589                           ;PR28.c: 548: TMR2IF = 0;
 10590  1E10  108C               	bcf	(97/8),(97)&7	;volatile
 10591                           	line	549
 10592                           	
 10593  1E11                     l3908:	
 10594                           ;PR28.c: 549: TMR1ON = 1;
 10595  1E11  1410               	bsf	(128/8),(128)&7	;volatile
 10596                           	line	550
 10597                           	
 10598  1E12                     l3910:	
 10599                           ;PR28.c: 550: TMR2ON = 1;
 10600  1E12  1512               	bsf	(146/8),(146)&7	;volatile
 10601                           	line	551
 10602                           	
 10603  1E13                     l375:	
 10604  1E13  0008               	return
 10605                           	opt stack 0
 10606                           GLOBAL	__end_of_RestartTimer1
 10607  1E14                     	__end_of_RestartTimer1:
 10608                           	signat	_RestartTimer1,88
 10609                           	global	_led_display1
 10610                           
 10611 ;; *************** function _led_display1 *****************
 10612 ;; Defined at:
 10613 ;;		line 672 in file "PR28.c"
 10614 ;; Parameters:    Size  Location     Type
 10615 ;;  value1          1    wreg     unsigned char 
 10616 ;; Auto vars:     Size  Location     Type
 10617 ;;  value1          1    1[BANK0 ] unsigned char 
 10618 ;; Return value:  Size  Location     Type
 10619 ;;		None               void
 10620 ;; Registers used:
 10621 ;;		wreg, status,2, status,0
 10622 ;; Tracked objects:
 10623 ;;		On entry : 0/0
 10624 ;;		On exit  : 0/0
 10625 ;;		Unchanged: 0/0
 10626 ;; Data sizes:     COMMON   BANK0   BANK1   BANK3   BANK2
 10627 ;;      Params:         0       0       0       0       0
 10628 ;;      Locals:         0       1       0       0       0
 10629 ;;      Temps:          0       1       0       0       0
 10630 ;;      Totals:         0       2       0       0       0
 10631 ;;Total ram usage:        2 bytes
 10632 ;; Hardware stack levels used:    1
 10633 ;; Hardware stack levels required when called:    3
 10634 ;; This function calls:
 10635 ;;		Nothing
 10636 ;; This function is called by:
 10637 ;;		_DisplayLEDs
 10638 ;;		_draw
 10639 ;;		_led_off
 10640 ;; This function uses a non-reentrant model
 10641 ;;
 10642                           psect	text677,local,class=CODE,delta=2,merge=1
 10643                           global __ptext677
 10644  127D                     __ptext677:
 10645                           psect	text677
 10646                           	file	"PR28.c"
 10647                           	line	672
 10648                           	global	__size_of_led_display1
 10649  0086                     	__size_of_led_display1	equ	__end_of_led_display1-_led_display1
 10650                           	
 10651  127D                     _led_display1:	
 10652                           	opt	stack 2
 10653                           ; Regs used in _led_display1: [wreg+status,2+status,0]
 10654                           ;led_display1@value1 stored from wreg
 10655  127D  1283               	bcf	status, 5	;RP0=0, select bank0
 10656  127E  1303               	bcf	status, 6	;RP1=0, select bank0
 10657  127F  00D3               	movwf	(led_display1@value1)
 10658                           	line	673
 10659                           	
 10660  1280                     l3912:	
 10661                           ;PR28.c: 673: if((value1&0b00000001)==1) RC1=1;
 10662  1280  1C53               	btfss	(led_display1@value1),(0)&7
 10663  1281  2A83               	goto	u6301
 10664  1282  2A84               	goto	u6300
 10665  1283                     u6301:
 10666  1283  2A86               	goto	l508
 10667  1284                     u6300:
 10668                           	
 10669  1284                     l3914:	
 10670  1284  1487               	bsf	(57/8),(57)&7	;volatile
 10671  1285  2A87               	goto	l509
 10672                           	line	674
 10673                           	
 10674  1286                     l508:	
 10675                           ;PR28.c: 674: else RC1=0;
 10676  1286  1087               	bcf	(57/8),(57)&7	;volatile
 10677                           	
 10678  1287                     l509:	
 10679                           	line	675
 10680                           ;PR28.c: 675: RC3=1;
 10681  1287  1587               	bsf	(59/8),(59)&7	;volatile
 10682                           	line	676
 10683                           ;PR28.c: 676: RC3=0;
 10684  1288  1187               	bcf	(59/8),(59)&7	;volatile
 10685                           	line	678
 10686                           	
 10687  1289                     l3916:	
 10688                           ;PR28.c: 678: if(((value1&0b00000010)>>1)==1) RC1=1;
 10689  1289  0853               	movf	(led_display1@value1),w
 10690  128A  00D2               	movwf	(??_led_display1+0)+0
 10691  128B  3001               	movlw	01h
 10692  128C                     u6315:
 10693  128C  1003               	clrc
 10694  128D  0CD2               	rrf	(??_led_display1+0)+0,f
 10695  128E  3EFF               	addlw	-1
 10696  128F  1D03               	skipz
 10697  1290  2A8C               	goto	u6315
 10698  1291  1C52               	btfss	0+(??_led_display1+0)+0,(0)&7
 10699  1292  2A94               	goto	u6321
 10700  1293  2A95               	goto	u6320
 10701  1294                     u6321:
 10702  1294  2A97               	goto	l510
 10703  1295                     u6320:
 10704                           	
 10705  1295                     l3918:	
 10706  1295  1487               	bsf	(57/8),(57)&7	;volatile
 10707  1296  2A98               	goto	l511
 10708                           	line	679
 10709                           	
 10710  1297                     l510:	
 10711                           ;PR28.c: 679: else RC1=0;
 10712  1297  1087               	bcf	(57/8),(57)&7	;volatile
 10713                           	
 10714  1298                     l511:	
 10715                           	line	680
 10716                           ;PR28.c: 680: RC3=1;
 10717  1298  1587               	bsf	(59/8),(59)&7	;volatile
 10718                           	line	681
 10719                           ;PR28.c: 681: RC3=0;
 10720  1299  1187               	bcf	(59/8),(59)&7	;volatile
 10721                           	line	683
 10722                           	
 10723  129A                     l3920:	
 10724                           ;PR28.c: 683: if(((value1&0b00000100)>>2)==1) RC1=1;
 10725  129A  0853               	movf	(led_display1@value1),w
 10726  129B  00D2               	movwf	(??_led_display1+0)+0
 10727  129C  3002               	movlw	02h
 10728  129D                     u6335:
 10729  129D  1003               	clrc
 10730  129E  0CD2               	rrf	(??_led_display1+0)+0,f
 10731  129F  3EFF               	addlw	-1
 10732  12A0  1D03               	skipz
 10733  12A1  2A9D               	goto	u6335
 10734  12A2  1C52               	btfss	0+(??_led_display1+0)+0,(0)&7
 10735  12A3  2AA5               	goto	u6341
 10736  12A4  2AA6               	goto	u6340
 10737  12A5                     u6341:
 10738  12A5  2AA8               	goto	l512
 10739  12A6                     u6340:
 10740                           	
 10741  12A6                     l3922:	
 10742  12A6  1487               	bsf	(57/8),(57)&7	;volatile
 10743  12A7  2AA9               	goto	l513
 10744                           	line	684
 10745                           	
 10746  12A8                     l512:	
 10747                           ;PR28.c: 684: else RC1=0;
 10748  12A8  1087               	bcf	(57/8),(57)&7	;volatile
 10749                           	
 10750  12A9                     l513:	
 10751                           	line	685
 10752                           ;PR28.c: 685: RC3=1;
 10753  12A9  1587               	bsf	(59/8),(59)&7	;volatile
 10754                           	line	686
 10755                           ;PR28.c: 686: RC3=0;
 10756  12AA  1187               	bcf	(59/8),(59)&7	;volatile
 10757                           	line	688
 10758                           	
 10759  12AB                     l3924:	
 10760                           ;PR28.c: 688: if(((value1&0b00001000)>>3)==1) RC1=1;
 10761  12AB  0853               	movf	(led_display1@value1),w
 10762  12AC  00D2               	movwf	(??_led_display1+0)+0
 10763  12AD  3003               	movlw	03h
 10764  12AE                     u6355:
 10765  12AE  1003               	clrc
 10766  12AF  0CD2               	rrf	(??_led_display1+0)+0,f
 10767  12B0  3EFF               	addlw	-1
 10768  12B1  1D03               	skipz
 10769  12B2  2AAE               	goto	u6355
 10770  12B3  1C52               	btfss	0+(??_led_display1+0)+0,(0)&7
 10771  12B4  2AB6               	goto	u6361
 10772  12B5  2AB7               	goto	u6360
 10773  12B6                     u6361:
 10774  12B6  2AB9               	goto	l514
 10775  12B7                     u6360:
 10776                           	
 10777  12B7                     l3926:	
 10778  12B7  1487               	bsf	(57/8),(57)&7	;volatile
 10779  12B8  2ABA               	goto	l515
 10780                           	line	689
 10781                           	
 10782  12B9                     l514:	
 10783                           ;PR28.c: 689: else RC1=0;
 10784  12B9  1087               	bcf	(57/8),(57)&7	;volatile
 10785                           	
 10786  12BA                     l515:	
 10787                           	line	690
 10788                           ;PR28.c: 690: RC3=1;
 10789  12BA  1587               	bsf	(59/8),(59)&7	;volatile
 10790                           	line	691
 10791                           ;PR28.c: 691: RC3=0;
 10792  12BB  1187               	bcf	(59/8),(59)&7	;volatile
 10793                           	line	693
 10794                           	
 10795  12BC                     l3928:	
 10796                           ;PR28.c: 693: if(((value1&0b00010000)>>4)==1) RC1=1;
 10797  12BC  0853               	movf	(led_display1@value1),w
 10798  12BD  00D2               	movwf	(??_led_display1+0)+0
 10799  12BE  3004               	movlw	04h
 10800  12BF                     u6375:
 10801  12BF  1003               	clrc
 10802  12C0  0CD2               	rrf	(??_led_display1+0)+0,f
 10803  12C1  3EFF               	addlw	-1
 10804  12C2  1D03               	skipz
 10805  12C3  2ABF               	goto	u6375
 10806  12C4  1C52               	btfss	0+(??_led_display1+0)+0,(0)&7
 10807  12C5  2AC7               	goto	u6381
 10808  12C6  2AC8               	goto	u6380
 10809  12C7                     u6381:
 10810  12C7  2ACA               	goto	l516
 10811  12C8                     u6380:
 10812                           	
 10813  12C8                     l3930:	
 10814  12C8  1487               	bsf	(57/8),(57)&7	;volatile
 10815  12C9  2ACB               	goto	l517
 10816                           	line	694
 10817                           	
 10818  12CA                     l516:	
 10819                           ;PR28.c: 694: else RC1=0;
 10820  12CA  1087               	bcf	(57/8),(57)&7	;volatile
 10821                           	
 10822  12CB                     l517:	
 10823                           	line	695
 10824                           ;PR28.c: 695: RC3=1;
 10825  12CB  1587               	bsf	(59/8),(59)&7	;volatile
 10826                           	line	696
 10827                           ;PR28.c: 696: RC3=0;
 10828  12CC  1187               	bcf	(59/8),(59)&7	;volatile
 10829                           	line	698
 10830                           	
 10831  12CD                     l3932:	
 10832                           ;PR28.c: 698: if(((value1&0b00100000)>>5)==1) RC1=1;
 10833  12CD  0853               	movf	(led_display1@value1),w
 10834  12CE  00D2               	movwf	(??_led_display1+0)+0
 10835  12CF  3005               	movlw	05h
 10836  12D0                     u6395:
 10837  12D0  1003               	clrc
 10838  12D1  0CD2               	rrf	(??_led_display1+0)+0,f
 10839  12D2  3EFF               	addlw	-1
 10840  12D3  1D03               	skipz
 10841  12D4  2AD0               	goto	u6395
 10842  12D5  1C52               	btfss	0+(??_led_display1+0)+0,(0)&7
 10843  12D6  2AD8               	goto	u6401
 10844  12D7  2AD9               	goto	u6400
 10845  12D8                     u6401:
 10846  12D8  2ADB               	goto	l518
 10847  12D9                     u6400:
 10848                           	
 10849  12D9                     l3934:	
 10850  12D9  1487               	bsf	(57/8),(57)&7	;volatile
 10851  12DA  2ADC               	goto	l519
 10852                           	line	699
 10853                           	
 10854  12DB                     l518:	
 10855                           ;PR28.c: 699: else RC1=0;
 10856  12DB  1087               	bcf	(57/8),(57)&7	;volatile
 10857                           	
 10858  12DC                     l519:	
 10859                           	line	700
 10860                           ;PR28.c: 700: RC3=1;
 10861  12DC  1587               	bsf	(59/8),(59)&7	;volatile
 10862                           	line	701
 10863                           ;PR28.c: 701: RC3=0;
 10864  12DD  1187               	bcf	(59/8),(59)&7	;volatile
 10865                           	line	703
 10866                           	
 10867  12DE                     l3936:	
 10868                           ;PR28.c: 703: if(((value1&0b01000000)>>6)==1) RC1=1;
 10869  12DE  0853               	movf	(led_display1@value1),w
 10870  12DF  00D2               	movwf	(??_led_display1+0)+0
 10871  12E0  3006               	movlw	06h
 10872  12E1                     u6415:
 10873  12E1  1003               	clrc
 10874  12E2  0CD2               	rrf	(??_led_display1+0)+0,f
 10875  12E3  3EFF               	addlw	-1
 10876  12E4  1D03               	skipz
 10877  12E5  2AE1               	goto	u6415
 10878  12E6  1C52               	btfss	0+(??_led_display1+0)+0,(0)&7
 10879  12E7  2AE9               	goto	u6421
 10880  12E8  2AEA               	goto	u6420
 10881  12E9                     u6421:
 10882  12E9  2AEC               	goto	l520
 10883  12EA                     u6420:
 10884                           	
 10885  12EA                     l3938:	
 10886  12EA  1487               	bsf	(57/8),(57)&7	;volatile
 10887  12EB  2AED               	goto	l521
 10888                           	line	704
 10889                           	
 10890  12EC                     l520:	
 10891                           ;PR28.c: 704: else RC1=0;
 10892  12EC  1087               	bcf	(57/8),(57)&7	;volatile
 10893                           	
 10894  12ED                     l521:	
 10895                           	line	705
 10896                           ;PR28.c: 705: RC3=1;
 10897  12ED  1587               	bsf	(59/8),(59)&7	;volatile
 10898                           	line	706
 10899                           ;PR28.c: 706: RC3=0;
 10900  12EE  1187               	bcf	(59/8),(59)&7	;volatile
 10901                           	line	708
 10902                           	
 10903  12EF                     l3940:	
 10904                           ;PR28.c: 708: if(((value1&0b10000000)>>7)==1) RC1=1;
 10905  12EF  0853               	movf	(led_display1@value1),w
 10906  12F0  00D2               	movwf	(??_led_display1+0)+0
 10907  12F1  3007               	movlw	07h
 10908  12F2                     u6435:
 10909  12F2  1003               	clrc
 10910  12F3  0CD2               	rrf	(??_led_display1+0)+0,f
 10911  12F4  3EFF               	addlw	-1
 10912  12F5  1D03               	skipz
 10913  12F6  2AF2               	goto	u6435
 10914  12F7  1C52               	btfss	0+(??_led_display1+0)+0,(0)&7
 10915  12F8  2AFA               	goto	u6441
 10916  12F9  2AFB               	goto	u6440
 10917  12FA                     u6441:
 10918  12FA  2AFD               	goto	l522
 10919  12FB                     u6440:
 10920                           	
 10921  12FB                     l3942:	
 10922  12FB  1487               	bsf	(57/8),(57)&7	;volatile
 10923  12FC  2AFE               	goto	l523
 10924                           	line	709
 10925                           	
 10926  12FD                     l522:	
 10927                           ;PR28.c: 709: else RC1=0;
 10928  12FD  1087               	bcf	(57/8),(57)&7	;volatile
 10929                           	
 10930  12FE                     l523:	
 10931                           	line	710
 10932                           ;PR28.c: 710: RC3=1;
 10933  12FE  1587               	bsf	(59/8),(59)&7	;volatile
 10934                           	line	711
 10935                           ;PR28.c: 711: RC3=0;
 10936  12FF  1187               	bcf	(59/8),(59)&7	;volatile
 10937                           	line	713
 10938                           ;PR28.c: 713: RC4=1;
 10939  1300  1607               	bsf	(60/8),(60)&7	;volatile
 10940                           	line	714
 10941                           ;PR28.c: 714: RC4=0;
 10942  1301  1207               	bcf	(60/8),(60)&7	;volatile
 10943                           	line	715
 10944                           	
 10945  1302                     l524:	
 10946  1302  0008               	return
 10947                           	opt stack 0
 10948                           GLOBAL	__end_of_led_display1
 10949  1303                     	__end_of_led_display1:
 10950                           	signat	_led_display1,4216
 10951                           	global	_led_display2
 10952                           
 10953 ;; *************** function _led_display2 *****************
 10954 ;; Defined at:
 10955 ;;		line 722 in file "PR28.c"
 10956 ;; Parameters:    Size  Location     Type
 10957 ;;  value2          1    wreg     unsigned char 
 10958 ;; Auto vars:     Size  Location     Type
 10959 ;;  value2          1    1[BANK0 ] unsigned char 
 10960 ;; Return value:  Size  Location     Type
 10961 ;;		None               void
 10962 ;; Registers used:
 10963 ;;		wreg, status,2, status,0
 10964 ;; Tracked objects:
 10965 ;;		On entry : 0/0
 10966 ;;		On exit  : 0/0
 10967 ;;		Unchanged: 0/0
 10968 ;; Data sizes:     COMMON   BANK0   BANK1   BANK3   BANK2
 10969 ;;      Params:         0       0       0       0       0
 10970 ;;      Locals:         0       1       0       0       0
 10971 ;;      Temps:          0       1       0       0       0
 10972 ;;      Totals:         0       2       0       0       0
 10973 ;;Total ram usage:        2 bytes
 10974 ;; Hardware stack levels used:    1
 10975 ;; Hardware stack levels required when called:    3
 10976 ;; This function calls:
 10977 ;;		Nothing
 10978 ;; This function is called by:
 10979 ;;		_DisplayLEDs
 10980 ;;		_draw
 10981 ;;		_led_off
 10982 ;; This function uses a non-reentrant model
 10983 ;;
 10984                           psect	text678,local,class=CODE,delta=2,merge=1
 10985                           global __ptext678
 10986  11F7                     __ptext678:
 10987                           psect	text678
 10988                           	file	"PR28.c"
 10989                           	line	722
 10990                           	global	__size_of_led_display2
 10991  0086                     	__size_of_led_display2	equ	__end_of_led_display2-_led_display2
 10992                           	
 10993  11F7                     _led_display2:	
 10994                           	opt	stack 2
 10995                           ; Regs used in _led_display2: [wreg+status,2+status,0]
 10996                           ;led_display2@value2 stored from wreg
 10997  11F7  1283               	bcf	status, 5	;RP0=0, select bank0
 10998  11F8  1303               	bcf	status, 6	;RP1=0, select bank0
 10999  11F9  00D3               	movwf	(led_display2@value2)
 11000                           	line	723
 11001                           	
 11002  11FA                     l3944:	
 11003                           ;PR28.c: 723: if((value2&0b00000001)==1) RA5=1;
 11004  11FA  1C53               	btfss	(led_display2@value2),(0)&7
 11005  11FB  29FD               	goto	u6451
 11006  11FC  29FE               	goto	u6450
 11007  11FD                     u6451:
 11008  11FD  2A00               	goto	l527
 11009  11FE                     u6450:
 11010                           	
 11011  11FE                     l3946:	
 11012  11FE  1685               	bsf	(45/8),(45)&7	;volatile
 11013  11FF  2A01               	goto	l528
 11014                           	line	724
 11015                           	
 11016  1200                     l527:	
 11017                           ;PR28.c: 724: else RA5=0;
 11018  1200  1285               	bcf	(45/8),(45)&7	;volatile
 11019                           	
 11020  1201                     l528:	
 11021                           	line	725
 11022                           ;PR28.c: 725: RC0=1;
 11023  1201  1407               	bsf	(56/8),(56)&7	;volatile
 11024                           	line	726
 11025                           ;PR28.c: 726: RC0=0;
 11026  1202  1007               	bcf	(56/8),(56)&7	;volatile
 11027                           	line	728
 11028                           	
 11029  1203                     l3948:	
 11030                           ;PR28.c: 728: if(((value2&0b00000010)>>1)==1) RA5=1;
 11031  1203  0853               	movf	(led_display2@value2),w
 11032  1204  00D2               	movwf	(??_led_display2+0)+0
 11033  1205  3001               	movlw	01h
 11034  1206                     u6465:
 11035  1206  1003               	clrc
 11036  1207  0CD2               	rrf	(??_led_display2+0)+0,f
 11037  1208  3EFF               	addlw	-1
 11038  1209  1D03               	skipz
 11039  120A  2A06               	goto	u6465
 11040  120B  1C52               	btfss	0+(??_led_display2+0)+0,(0)&7
 11041  120C  2A0E               	goto	u6471
 11042  120D  2A0F               	goto	u6470
 11043  120E                     u6471:
 11044  120E  2A11               	goto	l529
 11045  120F                     u6470:
 11046                           	
 11047  120F                     l3950:	
 11048  120F  1685               	bsf	(45/8),(45)&7	;volatile
 11049  1210  2A12               	goto	l530
 11050                           	line	729
 11051                           	
 11052  1211                     l529:	
 11053                           ;PR28.c: 729: else RA5=0;
 11054  1211  1285               	bcf	(45/8),(45)&7	;volatile
 11055                           	
 11056  1212                     l530:	
 11057                           	line	730
 11058                           ;PR28.c: 730: RC0=1;
 11059  1212  1407               	bsf	(56/8),(56)&7	;volatile
 11060                           	line	731
 11061                           ;PR28.c: 731: RC0=0;
 11062  1213  1007               	bcf	(56/8),(56)&7	;volatile
 11063                           	line	733
 11064                           	
 11065  1214                     l3952:	
 11066                           ;PR28.c: 733: if(((value2&0b00000100)>>2)==1) RA5=1;
 11067  1214  0853               	movf	(led_display2@value2),w
 11068  1215  00D2               	movwf	(??_led_display2+0)+0
 11069  1216  3002               	movlw	02h
 11070  1217                     u6485:
 11071  1217  1003               	clrc
 11072  1218  0CD2               	rrf	(??_led_display2+0)+0,f
 11073  1219  3EFF               	addlw	-1
 11074  121A  1D03               	skipz
 11075  121B  2A17               	goto	u6485
 11076  121C  1C52               	btfss	0+(??_led_display2+0)+0,(0)&7
 11077  121D  2A1F               	goto	u6491
 11078  121E  2A20               	goto	u6490
 11079  121F                     u6491:
 11080  121F  2A22               	goto	l531
 11081  1220                     u6490:
 11082                           	
 11083  1220                     l3954:	
 11084  1220  1685               	bsf	(45/8),(45)&7	;volatile
 11085  1221  2A23               	goto	l532
 11086                           	line	734
 11087                           	
 11088  1222                     l531:	
 11089                           ;PR28.c: 734: else RA5=0;
 11090  1222  1285               	bcf	(45/8),(45)&7	;volatile
 11091                           	
 11092  1223                     l532:	
 11093                           	line	735
 11094                           ;PR28.c: 735: RC0=1;
 11095  1223  1407               	bsf	(56/8),(56)&7	;volatile
 11096                           	line	736
 11097                           ;PR28.c: 736: RC0=0;
 11098  1224  1007               	bcf	(56/8),(56)&7	;volatile
 11099                           	line	738
 11100                           	
 11101  1225                     l3956:	
 11102                           ;PR28.c: 738: if(((value2&0b00001000)>>3)==1) RA5=1;
 11103  1225  0853               	movf	(led_display2@value2),w
 11104  1226  00D2               	movwf	(??_led_display2+0)+0
 11105  1227  3003               	movlw	03h
 11106  1228                     u6505:
 11107  1228  1003               	clrc
 11108  1229  0CD2               	rrf	(??_led_display2+0)+0,f
 11109  122A  3EFF               	addlw	-1
 11110  122B  1D03               	skipz
 11111  122C  2A28               	goto	u6505
 11112  122D  1C52               	btfss	0+(??_led_display2+0)+0,(0)&7
 11113  122E  2A30               	goto	u6511
 11114  122F  2A31               	goto	u6510
 11115  1230                     u6511:
 11116  1230  2A33               	goto	l533
 11117  1231                     u6510:
 11118                           	
 11119  1231                     l3958:	
 11120  1231  1685               	bsf	(45/8),(45)&7	;volatile
 11121  1232  2A34               	goto	l534
 11122                           	line	739
 11123                           	
 11124  1233                     l533:	
 11125                           ;PR28.c: 739: else RA5=0;
 11126  1233  1285               	bcf	(45/8),(45)&7	;volatile
 11127                           	
 11128  1234                     l534:	
 11129                           	line	740
 11130                           ;PR28.c: 740: RC0=1;
 11131  1234  1407               	bsf	(56/8),(56)&7	;volatile
 11132                           	line	741
 11133                           ;PR28.c: 741: RC0=0;
 11134  1235  1007               	bcf	(56/8),(56)&7	;volatile
 11135                           	line	743
 11136                           	
 11137  1236                     l3960:	
 11138                           ;PR28.c: 743: if(((value2&0b00010000)>>4)==1) RA5=1;
 11139  1236  0853               	movf	(led_display2@value2),w
 11140  1237  00D2               	movwf	(??_led_display2+0)+0
 11141  1238  3004               	movlw	04h
 11142  1239                     u6525:
 11143  1239  1003               	clrc
 11144  123A  0CD2               	rrf	(??_led_display2+0)+0,f
 11145  123B  3EFF               	addlw	-1
 11146  123C  1D03               	skipz
 11147  123D  2A39               	goto	u6525
 11148  123E  1C52               	btfss	0+(??_led_display2+0)+0,(0)&7
 11149  123F  2A41               	goto	u6531
 11150  1240  2A42               	goto	u6530
 11151  1241                     u6531:
 11152  1241  2A44               	goto	l535
 11153  1242                     u6530:
 11154                           	
 11155  1242                     l3962:	
 11156  1242  1685               	bsf	(45/8),(45)&7	;volatile
 11157  1243  2A45               	goto	l536
 11158                           	line	744
 11159                           	
 11160  1244                     l535:	
 11161                           ;PR28.c: 744: else RA5=0;
 11162  1244  1285               	bcf	(45/8),(45)&7	;volatile
 11163                           	
 11164  1245                     l536:	
 11165                           	line	745
 11166                           ;PR28.c: 745: RC0=1;
 11167  1245  1407               	bsf	(56/8),(56)&7	;volatile
 11168                           	line	746
 11169                           ;PR28.c: 746: RC0=0;
 11170  1246  1007               	bcf	(56/8),(56)&7	;volatile
 11171                           	line	748
 11172                           	
 11173  1247                     l3964:	
 11174                           ;PR28.c: 748: if(((value2&0b00100000)>>5)==1) RA5=1;
 11175  1247  0853               	movf	(led_display2@value2),w
 11176  1248  00D2               	movwf	(??_led_display2+0)+0
 11177  1249  3005               	movlw	05h
 11178  124A                     u6545:
 11179  124A  1003               	clrc
 11180  124B  0CD2               	rrf	(??_led_display2+0)+0,f
 11181  124C  3EFF               	addlw	-1
 11182  124D  1D03               	skipz
 11183  124E  2A4A               	goto	u6545
 11184  124F  1C52               	btfss	0+(??_led_display2+0)+0,(0)&7
 11185  1250  2A52               	goto	u6551
 11186  1251  2A53               	goto	u6550
 11187  1252                     u6551:
 11188  1252  2A55               	goto	l537
 11189  1253                     u6550:
 11190                           	
 11191  1253                     l3966:	
 11192  1253  1685               	bsf	(45/8),(45)&7	;volatile
 11193  1254  2A56               	goto	l538
 11194                           	line	749
 11195                           	
 11196  1255                     l537:	
 11197                           ;PR28.c: 749: else RA5=0;
 11198  1255  1285               	bcf	(45/8),(45)&7	;volatile
 11199                           	
 11200  1256                     l538:	
 11201                           	line	750
 11202                           ;PR28.c: 750: RC0=1;
 11203  1256  1407               	bsf	(56/8),(56)&7	;volatile
 11204                           	line	751
 11205                           ;PR28.c: 751: RC0=0;
 11206  1257  1007               	bcf	(56/8),(56)&7	;volatile
 11207                           	line	753
 11208                           	
 11209  1258                     l3968:	
 11210                           ;PR28.c: 753: if(((value2&0b01000000)>>6)==1) RA5=1;
 11211  1258  0853               	movf	(led_display2@value2),w
 11212  1259  00D2               	movwf	(??_led_display2+0)+0
 11213  125A  3006               	movlw	06h
 11214  125B                     u6565:
 11215  125B  1003               	clrc
 11216  125C  0CD2               	rrf	(??_led_display2+0)+0,f
 11217  125D  3EFF               	addlw	-1
 11218  125E  1D03               	skipz
 11219  125F  2A5B               	goto	u6565
 11220  1260  1C52               	btfss	0+(??_led_display2+0)+0,(0)&7
 11221  1261  2A63               	goto	u6571
 11222  1262  2A64               	goto	u6570
 11223  1263                     u6571:
 11224  1263  2A66               	goto	l539
 11225  1264                     u6570:
 11226                           	
 11227  1264                     l3970:	
 11228  1264  1685               	bsf	(45/8),(45)&7	;volatile
 11229  1265  2A67               	goto	l540
 11230                           	line	754
 11231                           	
 11232  1266                     l539:	
 11233                           ;PR28.c: 754: else RA5=0;
 11234  1266  1285               	bcf	(45/8),(45)&7	;volatile
 11235                           	
 11236  1267                     l540:	
 11237                           	line	755
 11238                           ;PR28.c: 755: RC0=1;
 11239  1267  1407               	bsf	(56/8),(56)&7	;volatile
 11240                           	line	756
 11241                           ;PR28.c: 756: RC0=0;
 11242  1268  1007               	bcf	(56/8),(56)&7	;volatile
 11243                           	line	758
 11244                           	
 11245  1269                     l3972:	
 11246                           ;PR28.c: 758: if(((value2&0b10000000)>>7)==1) RA5=1;
 11247  1269  0853               	movf	(led_display2@value2),w
 11248  126A  00D2               	movwf	(??_led_display2+0)+0
 11249  126B  3007               	movlw	07h
 11250  126C                     u6585:
 11251  126C  1003               	clrc
 11252  126D  0CD2               	rrf	(??_led_display2+0)+0,f
 11253  126E  3EFF               	addlw	-1
 11254  126F  1D03               	skipz
 11255  1270  2A6C               	goto	u6585
 11256  1271  1C52               	btfss	0+(??_led_display2+0)+0,(0)&7
 11257  1272  2A74               	goto	u6591
 11258  1273  2A75               	goto	u6590
 11259  1274                     u6591:
 11260  1274  2A77               	goto	l541
 11261  1275                     u6590:
 11262                           	
 11263  1275                     l3974:	
 11264  1275  1685               	bsf	(45/8),(45)&7	;volatile
 11265  1276  2A78               	goto	l542
 11266                           	line	759
 11267                           	
 11268  1277                     l541:	
 11269                           ;PR28.c: 759: else RA5=0;
 11270  1277  1285               	bcf	(45/8),(45)&7	;volatile
 11271                           	
 11272  1278                     l542:	
 11273                           	line	760
 11274                           ;PR28.c: 760: RC0=1;
 11275  1278  1407               	bsf	(56/8),(56)&7	;volatile
 11276                           	line	761
 11277                           ;PR28.c: 761: RC0=0;
 11278  1279  1007               	bcf	(56/8),(56)&7	;volatile
 11279                           	line	763
 11280                           ;PR28.c: 763: RE2=1;
 11281  127A  1509               	bsf	(74/8),(74)&7	;volatile
 11282                           	line	764
 11283                           ;PR28.c: 764: RE2=0;
 11284  127B  1109               	bcf	(74/8),(74)&7	;volatile
 11285                           	line	765
 11286                           	
 11287  127C                     l543:	
 11288  127C  0008               	return
 11289                           	opt stack 0
 11290                           GLOBAL	__end_of_led_display2
 11291  127D                     	__end_of_led_display2:
 11292                           	signat	_led_display2,4216
 11293                           	global	_led_display3
 11294                           
 11295 ;; *************** function _led_display3 *****************
 11296 ;; Defined at:
 11297 ;;		line 772 in file "PR28.c"
 11298 ;; Parameters:    Size  Location     Type
 11299 ;;  value3          1    wreg     unsigned char 
 11300 ;; Auto vars:     Size  Location     Type
 11301 ;;  value3          1    1[BANK0 ] unsigned char 
 11302 ;; Return value:  Size  Location     Type
 11303 ;;		None               void
 11304 ;; Registers used:
 11305 ;;		wreg, status,2, status,0
 11306 ;; Tracked objects:
 11307 ;;		On entry : 0/0
 11308 ;;		On exit  : 0/0
 11309 ;;		Unchanged: 0/0
 11310 ;; Data sizes:     COMMON   BANK0   BANK1   BANK3   BANK2
 11311 ;;      Params:         0       0       0       0       0
 11312 ;;      Locals:         0       1       0       0       0
 11313 ;;      Temps:          0       1       0       0       0
 11314 ;;      Totals:         0       2       0       0       0
 11315 ;;Total ram usage:        2 bytes
 11316 ;; Hardware stack levels used:    1
 11317 ;; Hardware stack levels required when called:    3
 11318 ;; This function calls:
 11319 ;;		Nothing
 11320 ;; This function is called by:
 11321 ;;		_DisplayLEDs
 11322 ;;		_draw
 11323 ;;		_led_off
 11324 ;; This function uses a non-reentrant model
 11325 ;;
 11326                           psect	text679,local,class=CODE,delta=2,merge=1
 11327                           global __ptext679
 11328  1171                     __ptext679:
 11329                           psect	text679
 11330                           	file	"PR28.c"
 11331                           	line	772
 11332                           	global	__size_of_led_display3
 11333  0086                     	__size_of_led_display3	equ	__end_of_led_display3-_led_display3
 11334                           	
 11335  1171                     _led_display3:	
 11336                           	opt	stack 2
 11337                           ; Regs used in _led_display3: [wreg+status,2+status,0]
 11338                           ;led_display3@value3 stored from wreg
 11339  1171  1283               	bcf	status, 5	;RP0=0, select bank0
 11340  1172  1303               	bcf	status, 6	;RP1=0, select bank0
 11341  1173  00D3               	movwf	(led_display3@value3)
 11342                           	line	773
 11343                           	
 11344  1174                     l3976:	
 11345                           ;PR28.c: 773: if((value3&0b00000001)==1) RA1=1;
 11346  1174  1C53               	btfss	(led_display3@value3),(0)&7
 11347  1175  2977               	goto	u6601
 11348  1176  2978               	goto	u6600
 11349  1177                     u6601:
 11350  1177  297A               	goto	l546
 11351  1178                     u6600:
 11352                           	
 11353  1178                     l3978:	
 11354  1178  1485               	bsf	(41/8),(41)&7	;volatile
 11355  1179  297B               	goto	l547
 11356                           	line	774
 11357                           	
 11358  117A                     l546:	
 11359                           ;PR28.c: 774: else RA1=0;
 11360  117A  1085               	bcf	(41/8),(41)&7	;volatile
 11361                           	
 11362  117B                     l547:	
 11363                           	line	775
 11364                           ;PR28.c: 775: RA3=1;
 11365  117B  1585               	bsf	(43/8),(43)&7	;volatile
 11366                           	line	776
 11367                           ;PR28.c: 776: RA3=0;
 11368  117C  1185               	bcf	(43/8),(43)&7	;volatile
 11369                           	line	778
 11370                           	
 11371  117D                     l3980:	
 11372                           ;PR28.c: 778: if(((value3&0b00000010)>>1)==1) RA1=1;
 11373  117D  0853               	movf	(led_display3@value3),w
 11374  117E  00D2               	movwf	(??_led_display3+0)+0
 11375  117F  3001               	movlw	01h
 11376  1180                     u6615:
 11377  1180  1003               	clrc
 11378  1181  0CD2               	rrf	(??_led_display3+0)+0,f
 11379  1182  3EFF               	addlw	-1
 11380  1183  1D03               	skipz
 11381  1184  2980               	goto	u6615
 11382  1185  1C52               	btfss	0+(??_led_display3+0)+0,(0)&7
 11383  1186  2988               	goto	u6621
 11384  1187  2989               	goto	u6620
 11385  1188                     u6621:
 11386  1188  298B               	goto	l548
 11387  1189                     u6620:
 11388                           	
 11389  1189                     l3982:	
 11390  1189  1485               	bsf	(41/8),(41)&7	;volatile
 11391  118A  298C               	goto	l549
 11392                           	line	779
 11393                           	
 11394  118B                     l548:	
 11395                           ;PR28.c: 779: else RA1=0;
 11396  118B  1085               	bcf	(41/8),(41)&7	;volatile
 11397                           	
 11398  118C                     l549:	
 11399                           	line	780
 11400                           ;PR28.c: 780: RA3=1;
 11401  118C  1585               	bsf	(43/8),(43)&7	;volatile
 11402                           	line	781
 11403                           ;PR28.c: 781: RA3=0;
 11404  118D  1185               	bcf	(43/8),(43)&7	;volatile
 11405                           	line	783
 11406                           	
 11407  118E                     l3984:	
 11408                           ;PR28.c: 783: if(((value3&0b00000100)>>2)==1) RA1=1;
 11409  118E  0853               	movf	(led_display3@value3),w
 11410  118F  00D2               	movwf	(??_led_display3+0)+0
 11411  1190  3002               	movlw	02h
 11412  1191                     u6635:
 11413  1191  1003               	clrc
 11414  1192  0CD2               	rrf	(??_led_display3+0)+0,f
 11415  1193  3EFF               	addlw	-1
 11416  1194  1D03               	skipz
 11417  1195  2991               	goto	u6635
 11418  1196  1C52               	btfss	0+(??_led_display3+0)+0,(0)&7
 11419  1197  2999               	goto	u6641
 11420  1198  299A               	goto	u6640
 11421  1199                     u6641:
 11422  1199  299C               	goto	l550
 11423  119A                     u6640:
 11424                           	
 11425  119A                     l3986:	
 11426  119A  1485               	bsf	(41/8),(41)&7	;volatile
 11427  119B  299D               	goto	l551
 11428                           	line	784
 11429                           	
 11430  119C                     l550:	
 11431                           ;PR28.c: 784: else RA1=0;
 11432  119C  1085               	bcf	(41/8),(41)&7	;volatile
 11433                           	
 11434  119D                     l551:	
 11435                           	line	785
 11436                           ;PR28.c: 785: RA3=1;
 11437  119D  1585               	bsf	(43/8),(43)&7	;volatile
 11438                           	line	786
 11439                           ;PR28.c: 786: RA3=0;
 11440  119E  1185               	bcf	(43/8),(43)&7	;volatile
 11441                           	line	788
 11442                           	
 11443  119F                     l3988:	
 11444                           ;PR28.c: 788: if(((value3&0b00001000)>>3)==1) RA1=1;
 11445  119F  0853               	movf	(led_display3@value3),w
 11446  11A0  00D2               	movwf	(??_led_display3+0)+0
 11447  11A1  3003               	movlw	03h
 11448  11A2                     u6655:
 11449  11A2  1003               	clrc
 11450  11A3  0CD2               	rrf	(??_led_display3+0)+0,f
 11451  11A4  3EFF               	addlw	-1
 11452  11A5  1D03               	skipz
 11453  11A6  29A2               	goto	u6655
 11454  11A7  1C52               	btfss	0+(??_led_display3+0)+0,(0)&7
 11455  11A8  29AA               	goto	u6661
 11456  11A9  29AB               	goto	u6660
 11457  11AA                     u6661:
 11458  11AA  29AD               	goto	l552
 11459  11AB                     u6660:
 11460                           	
 11461  11AB                     l3990:	
 11462  11AB  1485               	bsf	(41/8),(41)&7	;volatile
 11463  11AC  29AE               	goto	l553
 11464                           	line	789
 11465                           	
 11466  11AD                     l552:	
 11467                           ;PR28.c: 789: else RA1=0;
 11468  11AD  1085               	bcf	(41/8),(41)&7	;volatile
 11469                           	
 11470  11AE                     l553:	
 11471                           	line	790
 11472                           ;PR28.c: 790: RA3=1;
 11473  11AE  1585               	bsf	(43/8),(43)&7	;volatile
 11474                           	line	791
 11475                           ;PR28.c: 791: RA3=0;
 11476  11AF  1185               	bcf	(43/8),(43)&7	;volatile
 11477                           	line	793
 11478                           	
 11479  11B0                     l3992:	
 11480                           ;PR28.c: 793: if(((value3&0b00010000)>>4)==1) RA1=1;
 11481  11B0  0853               	movf	(led_display3@value3),w
 11482  11B1  00D2               	movwf	(??_led_display3+0)+0
 11483  11B2  3004               	movlw	04h
 11484  11B3                     u6675:
 11485  11B3  1003               	clrc
 11486  11B4  0CD2               	rrf	(??_led_display3+0)+0,f
 11487  11B5  3EFF               	addlw	-1
 11488  11B6  1D03               	skipz
 11489  11B7  29B3               	goto	u6675
 11490  11B8  1C52               	btfss	0+(??_led_display3+0)+0,(0)&7
 11491  11B9  29BB               	goto	u6681
 11492  11BA  29BC               	goto	u6680
 11493  11BB                     u6681:
 11494  11BB  29BE               	goto	l554
 11495  11BC                     u6680:
 11496                           	
 11497  11BC                     l3994:	
 11498  11BC  1485               	bsf	(41/8),(41)&7	;volatile
 11499  11BD  29BF               	goto	l555
 11500                           	line	794
 11501                           	
 11502  11BE                     l554:	
 11503                           ;PR28.c: 794: else RA1=0;
 11504  11BE  1085               	bcf	(41/8),(41)&7	;volatile
 11505                           	
 11506  11BF                     l555:	
 11507                           	line	795
 11508                           ;PR28.c: 795: RA3=1;
 11509  11BF  1585               	bsf	(43/8),(43)&7	;volatile
 11510                           	line	796
 11511                           ;PR28.c: 796: RA3=0;
 11512  11C0  1185               	bcf	(43/8),(43)&7	;volatile
 11513                           	line	798
 11514                           	
 11515  11C1                     l3996:	
 11516                           ;PR28.c: 798: if(((value3&0b00100000)>>5)==1) RA1=1;
 11517  11C1  0853               	movf	(led_display3@value3),w
 11518  11C2  00D2               	movwf	(??_led_display3+0)+0
 11519  11C3  3005               	movlw	05h
 11520  11C4                     u6695:
 11521  11C4  1003               	clrc
 11522  11C5  0CD2               	rrf	(??_led_display3+0)+0,f
 11523  11C6  3EFF               	addlw	-1
 11524  11C7  1D03               	skipz
 11525  11C8  29C4               	goto	u6695
 11526  11C9  1C52               	btfss	0+(??_led_display3+0)+0,(0)&7
 11527  11CA  29CC               	goto	u6701
 11528  11CB  29CD               	goto	u6700
 11529  11CC                     u6701:
 11530  11CC  29CF               	goto	l556
 11531  11CD                     u6700:
 11532                           	
 11533  11CD                     l3998:	
 11534  11CD  1485               	bsf	(41/8),(41)&7	;volatile
 11535  11CE  29D0               	goto	l557
 11536                           	line	799
 11537                           	
 11538  11CF                     l556:	
 11539                           ;PR28.c: 799: else RA1=0;
 11540  11CF  1085               	bcf	(41/8),(41)&7	;volatile
 11541                           	
 11542  11D0                     l557:	
 11543                           	line	800
 11544                           ;PR28.c: 800: RA3=1;
 11545  11D0  1585               	bsf	(43/8),(43)&7	;volatile
 11546                           	line	801
 11547                           ;PR28.c: 801: RA3=0;
 11548  11D1  1185               	bcf	(43/8),(43)&7	;volatile
 11549                           	line	803
 11550                           	
 11551  11D2                     l4000:	
 11552                           ;PR28.c: 803: if(((value3&0b01000000)>>6)==1) RA1=1;
 11553  11D2  0853               	movf	(led_display3@value3),w
 11554  11D3  00D2               	movwf	(??_led_display3+0)+0
 11555  11D4  3006               	movlw	06h
 11556  11D5                     u6715:
 11557  11D5  1003               	clrc
 11558  11D6  0CD2               	rrf	(??_led_display3+0)+0,f
 11559  11D7  3EFF               	addlw	-1
 11560  11D8  1D03               	skipz
 11561  11D9  29D5               	goto	u6715
 11562  11DA  1C52               	btfss	0+(??_led_display3+0)+0,(0)&7
 11563  11DB  29DD               	goto	u6721
 11564  11DC  29DE               	goto	u6720
 11565  11DD                     u6721:
 11566  11DD  29E0               	goto	l558
 11567  11DE                     u6720:
 11568                           	
 11569  11DE                     l4002:	
 11570  11DE  1485               	bsf	(41/8),(41)&7	;volatile
 11571  11DF  29E1               	goto	l559
 11572                           	line	804
 11573                           	
 11574  11E0                     l558:	
 11575                           ;PR28.c: 804: else RA1=0;
 11576  11E0  1085               	bcf	(41/8),(41)&7	;volatile
 11577                           	
 11578  11E1                     l559:	
 11579                           	line	805
 11580                           ;PR28.c: 805: RA3=1;
 11581  11E1  1585               	bsf	(43/8),(43)&7	;volatile
 11582                           	line	806
 11583                           ;PR28.c: 806: RA3=0;
 11584  11E2  1185               	bcf	(43/8),(43)&7	;volatile
 11585                           	line	808
 11586                           	
 11587  11E3                     l4004:	
 11588                           ;PR28.c: 808: if(((value3&0b10000000)>>7)==1) RA1=1;
 11589  11E3  0853               	movf	(led_display3@value3),w
 11590  11E4  00D2               	movwf	(??_led_display3+0)+0
 11591  11E5  3007               	movlw	07h
 11592  11E6                     u6735:
 11593  11E6  1003               	clrc
 11594  11E7  0CD2               	rrf	(??_led_display3+0)+0,f
 11595  11E8  3EFF               	addlw	-1
 11596  11E9  1D03               	skipz
 11597  11EA  29E6               	goto	u6735
 11598  11EB  1C52               	btfss	0+(??_led_display3+0)+0,(0)&7
 11599  11EC  29EE               	goto	u6741
 11600  11ED  29EF               	goto	u6740
 11601  11EE                     u6741:
 11602  11EE  29F1               	goto	l560
 11603  11EF                     u6740:
 11604                           	
 11605  11EF                     l4006:	
 11606  11EF  1485               	bsf	(41/8),(41)&7	;volatile
 11607  11F0  29F2               	goto	l561
 11608                           	line	809
 11609                           	
 11610  11F1                     l560:	
 11611                           ;PR28.c: 809: else RA1=0;
 11612  11F1  1085               	bcf	(41/8),(41)&7	;volatile
 11613                           	
 11614  11F2                     l561:	
 11615                           	line	810
 11616                           ;PR28.c: 810: RA3=1;
 11617  11F2  1585               	bsf	(43/8),(43)&7	;volatile
 11618                           	line	811
 11619                           ;PR28.c: 811: RA3=0;
 11620  11F3  1185               	bcf	(43/8),(43)&7	;volatile
 11621                           	line	813
 11622                           ;PR28.c: 813: RA2=1;
 11623  11F4  1505               	bsf	(42/8),(42)&7	;volatile
 11624                           	line	814
 11625                           ;PR28.c: 814: RA2=0;
 11626  11F5  1105               	bcf	(42/8),(42)&7	;volatile
 11627                           	line	815
 11628                           	
 11629  11F6                     l562:	
 11630  11F6  0008               	return
 11631                           	opt stack 0
 11632                           GLOBAL	__end_of_led_display3
 11633  11F7                     	__end_of_led_display3:
 11634                           	signat	_led_display3,4216
 11635                           	global	_send_char
 11636                           
 11637 ;; *************** function _send_char *****************
 11638 ;; Defined at:
 11639 ;;		line 843 in file "PR28.c"
 11640 ;; Parameters:    Size  Location     Type
 11641 ;;  data            1    wreg     unsigned char 
 11642 ;; Auto vars:     Size  Location     Type
 11643 ;;  data            1    8[BANK0 ] unsigned char 
 11644 ;; Return value:  Size  Location     Type
 11645 ;;		None               void
 11646 ;; Registers used:
 11647 ;;		wreg, status,2, status,0, pclath, cstack
 11648 ;; Tracked objects:
 11649 ;;		On entry : 0/0
 11650 ;;		On exit  : 0/0
 11651 ;;		Unchanged: 0/0
 11652 ;; Data sizes:     COMMON   BANK0   BANK1   BANK3   BANK2
 11653 ;;      Params:         0       0       0       0       0
 11654 ;;      Locals:         0       1       0       0       0
 11655 ;;      Temps:          0       0       0       0       0
 11656 ;;      Totals:         0       1       0       0       0
 11657 ;;Total ram usage:        1 bytes
 11658 ;; Hardware stack levels used:    1
 11659 ;; Hardware stack levels required when called:    5
 11660 ;; This function calls:
 11661 ;;		_delay
 11662 ;;		_e_pulse
 11663 ;; This function is called by:
 11664 ;;		_send_string
 11665 ;; This function uses a non-reentrant model
 11666 ;;
 11667                           psect	text680,local,class=CODE,delta=2,merge=1
 11668                           global __ptext680
 11669  1E77                     __ptext680:
 11670                           psect	text680
 11671                           	file	"PR28.c"
 11672                           	line	843
 11673                           	global	__size_of_send_char
 11674  0019                     	__size_of_send_char	equ	__end_of_send_char-_send_char
 11675                           	
 11676  1E77                     _send_char:	
 11677                           	opt	stack 1
 11678                           ; Regs used in _send_char: [wreg+status,2+status,0+pclath+cstack]
 11679                           ;send_char@data stored from wreg
 11680  1E77  1283               	bcf	status, 5	;RP0=0, select bank0
 11681  1E78  1303               	bcf	status, 6	;RP1=0, select bank0
 11682  1E79  00DA               	movwf	(send_char@data)
 11683                           	line	844
 11684                           	
 11685  1E7A                     l4014:	
 11686                           ;PR28.c: 844: RE0=1;
 11687  1E7A  1409               	bsf	(72/8),(72)&7	;volatile
 11688                           	line	845
 11689                           	
 11690  1E7B                     l4016:	
 11691                           ;PR28.c: 845: PORTB=data;
 11692  1E7B  085A               	movf	(send_char@data),w
 11693  1E7C  0086               	movwf	(6)	;volatile
 11694                           	line	846
 11695                           	
 11696  1E7D                     l4018:	
 11697                           ;PR28.c: 846: delay(50);
 11698  1E7D  3000               	movlw	0
 11699  1E7E  00D5               	movwf	(?_delay+3)
 11700  1E7F  3000               	movlw	0
 11701  1E80  00D4               	movwf	(?_delay+2)
 11702  1E81  3000               	movlw	0
 11703  1E82  00D3               	movwf	(?_delay+1)
 11704  1E83  3032               	movlw	032h
 11705  1E84  00D2               	movwf	(?_delay)
 11706                           
 11707  1E85  160A  158A  2764   	fcall	_delay
              160A  158A         
 11708                           	line	847
 11709                           	
 11710  1E8A                     l4020:	
 11711                           ;PR28.c: 847: e_pulse();
 11712  1E8A  160A  158A  2719   	fcall	_e_pulse
              160A  158A         
 11713                           	line	848
 11714                           	
 11715  1E8F                     l573:	
 11716  1E8F  0008               	return
 11717                           	opt stack 0
 11718                           GLOBAL	__end_of_send_char
 11719  1E90                     	__end_of_send_char:
 11720                           	signat	_send_char,4216
 11721                           	global	_e_pulse
 11722                           
 11723 ;; *************** function _e_pulse *****************
 11724 ;; Defined at:
 11725 ;;		line 855 in file "PR28.c"
 11726 ;; Parameters:    Size  Location     Type
 11727 ;;		None
 11728 ;; Auto vars:     Size  Location     Type
 11729 ;;		None
 11730 ;; Return value:  Size  Location     Type
 11731 ;;		None               void
 11732 ;; Registers used:
 11733 ;;		wreg, status,2, status,0, pclath, cstack
 11734 ;; Tracked objects:
 11735 ;;		On entry : 0/0
 11736 ;;		On exit  : 0/0
 11737 ;;		Unchanged: 0/0
 11738 ;; Data sizes:     COMMON   BANK0   BANK1   BANK3   BANK2
 11739 ;;      Params:         0       0       0       0       0
 11740 ;;      Locals:         0       0       0       0       0
 11741 ;;      Temps:          0       0       0       0       0
 11742 ;;      Totals:         0       0       0       0       0
 11743 ;;Total ram usage:        0 bytes
 11744 ;; Hardware stack levels used:    1
 11745 ;; Hardware stack levels required when called:    4
 11746 ;; This function calls:
 11747 ;;		_delay
 11748 ;; This function is called by:
 11749 ;;		_send_config
 11750 ;;		_send_char
 11751 ;; This function uses a non-reentrant model
 11752 ;;
 11753                           psect	text681,local,class=CODE,delta=2,merge=1
 11754                           global __ptext681
 11755  1F19                     __ptext681:
 11756                           psect	text681
 11757                           	file	"PR28.c"
 11758                           	line	855
 11759                           	global	__size_of_e_pulse
 11760  0021                     	__size_of_e_pulse	equ	__end_of_e_pulse-_e_pulse
 11761                           	
 11762  1F19                     _e_pulse:	
 11763                           	opt	stack 1
 11764                           ; Regs used in _e_pulse: [wreg+status,2+status,0+pclath+cstack]
 11765                           	line	856
 11766                           	
 11767  1F19                     l4008:	
 11768                           ;PR28.c: 856: RE1=1;
 11769  1F19  1283               	bcf	status, 5	;RP0=0, select bank0
 11770  1F1A  1303               	bcf	status, 6	;RP1=0, select bank0
 11771  1F1B  1489               	bsf	(73/8),(73)&7	;volatile
 11772                           	line	857
 11773                           	
 11774  1F1C                     l4010:	
 11775                           ;PR28.c: 857: delay(50);
 11776  1F1C  3000               	movlw	0
 11777  1F1D  00D5               	movwf	(?_delay+3)
 11778  1F1E  3000               	movlw	0
 11779  1F1F  00D4               	movwf	(?_delay+2)
 11780  1F20  3000               	movlw	0
 11781  1F21  00D3               	movwf	(?_delay+1)
 11782  1F22  3032               	movlw	032h
 11783  1F23  00D2               	movwf	(?_delay)
 11784                           
 11785  1F24  160A  158A  2764   	fcall	_delay
              160A  158A         
 11786                           	line	858
 11787                           	
 11788  1F29                     l4012:	
 11789                           ;PR28.c: 858: RE1=0;
 11790  1F29  1283               	bcf	status, 5	;RP0=0, select bank0
 11791  1F2A  1303               	bcf	status, 6	;RP1=0, select bank0
 11792  1F2B  1089               	bcf	(73/8),(73)&7	;volatile
 11793                           	line	859
 11794                           ;PR28.c: 859: delay(50);
 11795  1F2C  3000               	movlw	0
 11796  1F2D  00D5               	movwf	(?_delay+3)
 11797  1F2E  3000               	movlw	0
 11798  1F2F  00D4               	movwf	(?_delay+2)
 11799  1F30  3000               	movlw	0
 11800  1F31  00D3               	movwf	(?_delay+1)
 11801  1F32  3032               	movlw	032h
 11802  1F33  00D2               	movwf	(?_delay)
 11803                           
 11804  1F34  160A  158A  2764   	fcall	_delay
              160A  158A         
 11805                           	line	860
 11806                           	
 11807  1F39                     l576:	
 11808  1F39  0008               	return
 11809                           	opt stack 0
 11810                           GLOBAL	__end_of_e_pulse
 11811  1F3A                     	__end_of_e_pulse:
 11812                           	signat	_e_pulse,88
 11813                           	global	_delay
 11814                           
 11815 ;; *************** function _delay *****************
 11816 ;; Defined at:
 11817 ;;		line 822 in file "PR28.c"
 11818 ;; Parameters:    Size  Location     Type
 11819 ;;  data            4    0[BANK0 ] unsigned long 
 11820 ;; Auto vars:     Size  Location     Type
 11821 ;;		None
 11822 ;; Return value:  Size  Location     Type
 11823 ;;		None               void
 11824 ;; Registers used:
 11825 ;;		wreg
 11826 ;; Tracked objects:
 11827 ;;		On entry : 0/0
 11828 ;;		On exit  : 0/0
 11829 ;;		Unchanged: 0/0
 11830 ;; Data sizes:     COMMON   BANK0   BANK1   BANK3   BANK2
 11831 ;;      Params:         0       4       0       0       0
 11832 ;;      Locals:         0       0       0       0       0
 11833 ;;      Temps:          0       4       0       0       0
 11834 ;;      Totals:         0       8       0       0       0
 11835 ;;Total ram usage:        8 bytes
 11836 ;; Hardware stack levels used:    1
 11837 ;; Hardware stack levels required when called:    3
 11838 ;; This function calls:
 11839 ;;		Nothing
 11840 ;; This function is called by:
 11841 ;;		_main
 11842 ;;		_send_config
 11843 ;;		_send_char
 11844 ;;		_e_pulse
 11845 ;;		_lcd_shift
 11846 ;;		_lcd_clr
 11847 ;;		_draw
 11848 ;;		_PIEZO
 11849 ;;		_PIEZO_D
 11850 ;;		_PIEZO_S
 11851 ;; This function uses a non-reentrant model
 11852 ;;
 11853                           psect	text682,local,class=CODE,delta=2,merge=1
 11854                           global __ptext682
 11855  1F64                     __ptext682:
 11856                           psect	text682
 11857                           	file	"PR28.c"
 11858                           	line	822
 11859                           	global	__size_of_delay
 11860  0032                     	__size_of_delay	equ	__end_of_delay-_delay
 11861                           	
 11862  1F64                     _delay:	
 11863                           	opt	stack 3
 11864                           ; Regs used in _delay: [wreg]
 11865                           	line	823
 11866                           	
 11867  1F64                     l2730:	
 11868                           ;PR28.c: 823: for( ;data>0;data-=1);
 11869  1F64  1283               	bcf	status, 5	;RP0=0, select bank0
 11870  1F65  1303               	bcf	status, 6	;RP1=0, select bank0
 11871  1F66  0855               	movf	(delay@data+3),w
 11872  1F67  0454               	iorwf	(delay@data+2),w
 11873  1F68  0453               	iorwf	(delay@data+1),w
 11874  1F69  0452               	iorwf	(delay@data),w
 11875  1F6A  1D03               	skipz
 11876  1F6B  2F6D               	goto	u3521
 11877  1F6C  2F6E               	goto	u3520
 11878  1F6D                     u3521:
 11879  1F6D  2F70               	goto	l2734
 11880  1F6E                     u3520:
 11881  1F6E  2F95               	goto	l567
 11882                           	
 11883  1F6F                     l2732:	
 11884  1F6F  2F95               	goto	l567
 11885                           	
 11886  1F70                     l565:	
 11887                           	
 11888  1F70                     l2734:	
 11889  1F70  3001               	movlw	01h
 11890  1F71  00D6               	movwf	((??_delay+0)+0)
 11891  1F72  3000               	movlw	0
 11892  1F73  00D7               	movwf	((??_delay+0)+0+1)
 11893  1F74  3000               	movlw	0
 11894  1F75  00D8               	movwf	((??_delay+0)+0+2)
 11895  1F76  3000               	movlw	0
 11896  1F77  00D9               	movwf	((??_delay+0)+0+3)
 11897  1F78  0856               	movf	0+(??_delay+0)+0,w
 11898  1F79  02D2               	subwf	(delay@data),f
 11899  1F7A  0857               	movf	1+(??_delay+0)+0,w
 11900  1F7B  1C03               	skipc
 11901  1F7C  0F57               	incfsz	1+(??_delay+0)+0,w
 11902  1F7D  2F7F               	goto	u3535
 11903  1F7E  2F80               	goto	u3536
 11904  1F7F                     u3535:
 11905  1F7F  02D3               	subwf	(delay@data+1),f
 11906  1F80                     u3536:
 11907  1F80  0858               	movf	2+(??_delay+0)+0,w
 11908  1F81  1C03               	skipc
 11909  1F82  0F58               	incfsz	2+(??_delay+0)+0,w
 11910  1F83  2F85               	goto	u3537
 11911  1F84  2F86               	goto	u3538
 11912  1F85                     u3537:
 11913  1F85  02D4               	subwf	(delay@data+2),f
 11914  1F86                     u3538:
 11915  1F86  0859               	movf	3+(??_delay+0)+0,w
 11916  1F87  1C03               	skipc
 11917  1F88  0F59               	incfsz	3+(??_delay+0)+0,w
 11918  1F89  2F8B               	goto	u3539
 11919  1F8A  2F8C               	goto	u3530
 11920  1F8B                     u3539:
 11921  1F8B  02D5               	subwf	(delay@data+3),f
 11922  1F8C                     u3530:
 11923                           
 11924  1F8C  0855               	movf	(delay@data+3),w
 11925  1F8D  0454               	iorwf	(delay@data+2),w
 11926  1F8E  0453               	iorwf	(delay@data+1),w
 11927  1F8F  0452               	iorwf	(delay@data),w
 11928  1F90  1D03               	skipz
 11929  1F91  2F93               	goto	u3541
 11930  1F92  2F94               	goto	u3540
 11931  1F93                     u3541:
 11932  1F93  2F70               	goto	l2734
 11933  1F94                     u3540:
 11934  1F94  2F95               	goto	l567
 11935                           	
 11936  1F95                     l566:	
 11937                           	line	824
 11938                           	
 11939  1F95                     l567:	
 11940  1F95  0008               	return
 11941                           	opt stack 0
 11942                           GLOBAL	__end_of_delay
 11943  1F96                     	__end_of_delay:
 11944                           	signat	_delay,4216
 11945                           	global	___bmul
 11946                           
 11947 ;; *************** function ___bmul *****************
 11948 ;; Defined at:
 11949 ;;		line 3 in file "bmul.c"
 11950 ;; Parameters:    Size  Location     Type
 11951 ;;  multiplier      1    wreg     unsigned char 
 11952 ;;  multiplicand    1    0[BANK0 ] unsigned char 
 11953 ;; Auto vars:     Size  Location     Type
 11954 ;;  multiplier      1    3[BANK0 ] unsigned char 
 11955 ;;  product         1    2[BANK0 ] unsigned char 
 11956 ;; Return value:  Size  Location     Type
 11957 ;;                  1    wreg      unsigned char 
 11958 ;; Registers used:
 11959 ;;		wreg, status,2, status,0
 11960 ;; Tracked objects:
 11961 ;;		On entry : 0/0
 11962 ;;		On exit  : 0/0
 11963 ;;		Unchanged: 0/0
 11964 ;; Data sizes:     COMMON   BANK0   BANK1   BANK3   BANK2
 11965 ;;      Params:         0       1       0       0       0
 11966 ;;      Locals:         0       2       0       0       0
 11967 ;;      Temps:          0       1       0       0       0
 11968 ;;      Totals:         0       4       0       0       0
 11969 ;;Total ram usage:        4 bytes
 11970 ;; Hardware stack levels used:    1
 11971 ;; Hardware stack levels required when called:    3
 11972 ;; This function calls:
 11973 ;;		Nothing
 11974 ;; This function is called by:
 11975 ;;		_CapInit
 11976 ;;		_winlose
 11977 ;; This function uses a non-reentrant model
 11978 ;;
 11979                           psect	text683,local,class=CODE,delta=2,merge=1
 11980                           global __ptext683
 11981  1EA9                     __ptext683:
 11982                           psect	text683
 11983                           	file	"C:\Program Files (x86)\Microchip\xc8\v1.00\sources\bmul.c"
 11984                           	line	3
 11985                           	global	__size_of___bmul
 11986  001A                     	__size_of___bmul	equ	__end_of___bmul-___bmul
 11987                           	
 11988  1EA9                     ___bmul:	
 11989                           	opt	stack 3
 11990                           ; Regs used in ___bmul: [wreg+status,2+status,0]
 11991                           ;___bmul@multiplier stored from wreg
 11992  1EA9  1283               	bcf	status, 5	;RP0=0, select bank0
 11993  1EAA  1303               	bcf	status, 6	;RP1=0, select bank0
 11994  1EAB  00D5               	movwf	(___bmul@multiplier)
 11995                           	line	4
 11996                           	
 11997  1EAC                     l4022:	
 11998  1EAC  01D4               	clrf	(___bmul@product)
 11999                           	line	6
 12000                           	
 12001  1EAD                     l630:	
 12002                           	line	7
 12003  1EAD  1C55               	btfss	(___bmul@multiplier),(0)&7
 12004  1EAE  2EB0               	goto	u6751
 12005  1EAF  2EB1               	goto	u6750
 12006  1EB0                     u6751:
 12007  1EB0  2EB6               	goto	l4026
 12008  1EB1                     u6750:
 12009                           	line	8
 12010                           	
 12011  1EB1                     l4024:	
 12012  1EB1  0852               	movf	(___bmul@multiplicand),w
 12013  1EB2  00D3               	movwf	(??___bmul+0)+0
 12014  1EB3  0853               	movf	(??___bmul+0)+0,w
 12015  1EB4  07D4               	addwf	(___bmul@product),f
 12016  1EB5  2EB6               	goto	l4026
 12017                           	
 12018  1EB6                     l631:	
 12019                           	line	9
 12020                           	
 12021  1EB6                     l4026:	
 12022  1EB6  1003               	clrc
 12023  1EB7  0DD2               	rlf	(___bmul@multiplicand),f
 12024                           
 12025                           	line	10
 12026                           	
 12027  1EB8                     l4028:	
 12028  1EB8  1003               	clrc
 12029  1EB9  0CD5               	rrf	(___bmul@multiplier),f
 12030                           
 12031                           	line	11
 12032                           	
 12033  1EBA                     l4030:	
 12034  1EBA  08D5               	movf	(___bmul@multiplier),f
 12035  1EBB  1D03               	skipz
 12036  1EBC  2EBE               	goto	u6761
 12037  1EBD  2EBF               	goto	u6760
 12038  1EBE                     u6761:
 12039  1EBE  2EAD               	goto	l630
 12040  1EBF                     u6760:
 12041  1EBF  2EC0               	goto	l4032
 12042                           	
 12043  1EC0                     l632:	
 12044                           	line	12
 12045                           	
 12046  1EC0                     l4032:	
 12047  1EC0  0854               	movf	(___bmul@product),w
 12048  1EC1  2EC2               	goto	l633
 12049                           	
 12050  1EC2                     l4034:	
 12051                           	line	13
 12052                           	
 12053  1EC2                     l633:	
 12054  1EC2  0008               	return
 12055                           	opt stack 0
 12056                           GLOBAL	__end_of___bmul
 12057  1EC3                     	__end_of___bmul:
 12058                           	signat	___bmul,8313
 12059                           	global	_isr
 12060                           
 12061 ;; *************** function _isr *****************
 12062 ;; Defined at:
 12063 ;;		line 271 in file "PR28.c"
 12064 ;; Parameters:    Size  Location     Type
 12065 ;;		None
 12066 ;; Auto vars:     Size  Location     Type
 12067 ;;		None
 12068 ;; Return value:  Size  Location     Type
 12069 ;;		None               void
 12070 ;; Registers used:
 12071 ;;		wreg, fsr0l, fsr0h, status,2, status,0, btemp+1, pclath, cstack
 12072 ;; Tracked objects:
 12073 ;;		On entry : 0/0
 12074 ;;		On exit  : 0/0
 12075 ;;		Unchanged: 0/0
 12076 ;; Data sizes:     COMMON   BANK0   BANK1   BANK3   BANK2
 12077 ;;      Params:         0       0       0       0       0
 12078 ;;      Locals:         0       0       0       0       0
 12079 ;;      Temps:          4       0       0       0       0
 12080 ;;      Totals:         4       0       0       0       0
 12081 ;;Total ram usage:        4 bytes
 12082 ;; Hardware stack levels used:    1
 12083 ;; Hardware stack levels required when called:    2
 12084 ;; This function calls:
 12085 ;;		_GetReading
 12086 ;; This function is called by:
 12087 ;;		Interrupt level 1
 12088 ;; This function uses a non-reentrant model
 12089 ;;
 12090                           psect	text684,local,class=CODE,delta=2,merge=1
 12091                           global __ptext684
 12092  1EDD                     __ptext684:
 12093                           psect	text684
 12094                           	file	"PR28.c"
 12095                           	line	271
 12096                           	global	__size_of_isr
 12097  001C                     	__size_of_isr	equ	__end_of_isr-_isr
 12098                           	
 12099  1EDD                     _isr:	
 12100                           	opt	stack 0
 12101                           ; Regs used in _isr: [wreg-fsr0h+status,2+status,0+btemp+1+pclath+cstack]
 12102                           psect	intentry,class=CODE,delta=2
 12103                           global __pintentry
 12104  0004                     __pintentry:
 12105                           global interrupt_function
 12106  0004                     interrupt_function:
 12107                           	global saved_w
 12108  007E                     	saved_w	set	btemp+0
 12109  0004  00FE               	movwf	saved_w
 12110  0005  0E03               	swapf	status,w
 12111  0006  00F8               	movwf	(??_isr+0)
 12112  0007  0804               	movf	fsr0,w
 12113  0008  00F9               	movwf	(??_isr+1)
 12114  0009  080A               	movf	pclath,w
 12115  000A  00FA               	movwf	(??_isr+2)
 12116  000B  1283               	bcf	status, 5	;RP0=0, select bank0
 12117  000C  1303               	bcf	status, 6	;RP1=0, select bank0
 12118  000D  087F               	movf	btemp+1,w
 12119  000E  00FB               	movwf	(??_isr+3)
 12120  000F  160A  158A  2EDD   	ljmp	_isr
 12121                           psect	text684
 12122                           	line	273
 12123                           	
 12124  1EDD                     i1l4090:	
 12125                           ;PR28.c: 273: while (TMR1GIF )
 12126  1EDD  2EE7               	goto	i1l4094
 12127                           	
 12128  1EDE                     i1l213:	
 12129                           	line	276
 12130                           ;PR28.c: 274: {
 12131                           ;PR28.c: 276: TMR2ON =0;
 12132  1EDE  1112               	bcf	(146/8),(146)&7	;volatile
 12133                           	line	277
 12134                           ;PR28.c: 277: TMR1ON = 0;
 12135  1EDF  1010               	bcf	(128/8),(128)&7	;volatile
 12136                           	line	278
 12137                           ;PR28.c: 278: TMR1GIF = 0;
 12138  1EE0  138C               	bcf	(103/8),(103)&7	;volatile
 12139                           	line	280
 12140                           	
 12141  1EE1                     i1l4092:	
 12142                           ;PR28.c: 280: GetReading();
 12143  1EE1  160A  118A  26D5   	fcall	_GetReading
              160A  158A         
 12144  1EE6  2EE7               	goto	i1l4094
 12145                           	line	281
 12146                           	
 12147  1EE7                     i1l212:	
 12148                           	line	273
 12149                           	
 12150  1EE7                     i1l4094:	
 12151  1EE7  1283               	bcf	status, 5	;RP0=0, select bank0
 12152  1EE8  1303               	bcf	status, 6	;RP1=0, select bank0
 12153  1EE9  1B8C               	btfsc	(103/8),(103)&7	;volatile
 12154  1EEA  2EEC               	goto	u682_21
 12155  1EEB  2EED               	goto	u682_20
 12156  1EEC                     u682_21:
 12157  1EEC  2EDE               	goto	i1l213
 12158  1EED                     u682_20:
 12159  1EED  2EEE               	goto	i1l215
 12160                           	
 12161  1EEE                     i1l214:	
 12162                           	line	282
 12163                           	
 12164  1EEE                     i1l215:	
 12165  1EEE  087B               	movf	(??_isr+3),w
 12166  1EEF  00FF               	movwf	btemp+1
 12167  1EF0  087A               	movf	(??_isr+2),w
 12168  1EF1  008A               	movwf	pclath
 12169  1EF2  0879               	movf	(??_isr+1),w
 12170  1EF3  0084               	movwf	fsr0
 12171  1EF4  0E78               	swapf	(??_isr+0)^0FFFFFF80h,w
 12172  1EF5  0083               	movwf	status
 12173  1EF6  0EFE               	swapf	saved_w,f
 12174  1EF7  0E7E               	swapf	saved_w,w
 12175  1EF8  0009               	retfie
 12176                           	opt stack 0
 12177                           GLOBAL	__end_of_isr
 12178  1EF9                     	__end_of_isr:
 12179                           	signat	_isr,88
 12180                           	global	_GetReading
 12181                           
 12182 ;; *************** function _GetReading *****************
 12183 ;; Defined at:
 12184 ;;		line 488 in file "PR28.c"
 12185 ;; Parameters:    Size  Location     Type
 12186 ;;		None
 12187 ;; Auto vars:     Size  Location     Type
 12188 ;;		None
 12189 ;; Return value:  Size  Location     Type
 12190 ;;		None               void
 12191 ;; Registers used:
 12192 ;;		wreg, fsr0l, fsr0h, status,2, status,0, btemp+1, pclath, cstack
 12193 ;; Tracked objects:
 12194 ;;		On entry : 0/0
 12195 ;;		On exit  : 0/0
 12196 ;;		Unchanged: 0/0
 12197 ;; Data sizes:     COMMON   BANK0   BANK1   BANK3   BANK2
 12198 ;;      Params:         0       0       0       0       0
 12199 ;;      Locals:         0       0       0       0       0
 12200 ;;      Temps:          7       0       0       0       0
 12201 ;;      Totals:         7       0       0       0       0
 12202 ;;Total ram usage:        7 bytes
 12203 ;; Hardware stack levels used:    1
 12204 ;; Hardware stack levels required when called:    1
 12205 ;; This function calls:
 12206 ;;		_SetNextChannel
 12207 ;;		i1_RestartTimer1
 12208 ;; This function is called by:
 12209 ;;		_isr
 12210 ;; This function uses a non-reentrant model
 12211 ;;
 12212                           psect	text685,local,class=CODE,delta=2,merge=1
 12213                           global __ptext685
 12214  16D5                     __ptext685:
 12215                           psect	text685
 12216                           	file	"PR28.c"
 12217                           	line	488
 12218                           	global	__size_of_GetReading
 12219  012B                     	__size_of_GetReading	equ	__end_of_GetReading-_GetReading
 12220                           	
 12221  16D5                     _GetReading:	
 12222                           	opt	stack 0
 12223                           ; Regs used in _GetReading: [wreg-fsr0h+status,2+status,0+btemp+1+pclath+cstack]
 12224                           	line	489
 12225                           	
 12226  16D5                     i1l4044:	
 12227                           ;PR28.c: 489: bigval = TMR1L + (unsigned int)(TMR1H << 8);
 12228  16D5  1283               	bcf	status, 5	;RP0=0, select bank0
 12229  16D6  1303               	bcf	status, 6	;RP1=0, select bank0
 12230  16D7  080F               	movf	(15),w	;volatile
 12231  16D8  00F1               	movwf	(??_GetReading+0)+0+0
 12232  16D9  01F2               	clrf	(??_GetReading+0)+0+1
 12233  16DA  0871               	movf	(??_GetReading+0)+0,w
 12234  16DB  00F2               	movwf	(??_GetReading+0)+1
 12235  16DC  01F1               	clrf	(??_GetReading+0)+0
 12236  16DD  080E               	movf	(14),w	;volatile
 12237  16DE  0771               	addwf	0+(??_GetReading+0)+0,w
 12238  16DF  00FC               	movwf	(_bigval)
 12239  16E0  0872               	movf	1+(??_GetReading+0)+0,w
 12240  16E1  1803               	skipnc
 12241  16E2  0A72               	incf	1+(??_GetReading+0)+0,w
 12242  16E3  00FD               	movwf	((_bigval))+1
 12243                           	line	490
 12244                           ;PR28.c: 490: bigval = bigval * 16;
 12245  16E4  087D               	movf	(_bigval+1),w
 12246  16E5  00F2               	movwf	(??_GetReading+0)+0+1
 12247  16E6  087C               	movf	(_bigval),w
 12248  16E7  00F1               	movwf	(??_GetReading+0)+0
 12249  16E8  3004               	movlw	04h
 12250  16E9  00FF               	movwf	btemp+1
 12251  16EA                     u677_25:
 12252  16EA  1003               	clrc
 12253  16EB  0DF1               	rlf	(??_GetReading+0)+0,f
 12254  16EC  0DF2               	rlf	(??_GetReading+0)+1,f
 12255  16ED  0BFF               	decfsz	btemp+1,f
 12256  16EE  2EEA               	goto	u677_25
 12257  16EF  0871               	movf	0+(??_GetReading+0)+0,w
 12258  16F0  00FC               	movwf	(_bigval)
 12259  16F1  0872               	movf	1+(??_GetReading+0)+0,w
 12260  16F2  00FD               	movwf	(_bigval+1)
 12261                           	line	491
 12262                           	
 12263  16F3                     i1l4046:	
 12264                           ;PR28.c: 491: reading[index] = bigval;
 12265  16F3  0850               	movf	(_index),w
 12266  16F4  00F1               	movwf	(??_GetReading+0)+0
 12267  16F5  0771               	addwf	(??_GetReading+0)+0,w
 12268  16F6  3EA0               	addlw	_reading&0ffh
 12269  16F7  0084               	movwf	fsr0
 12270  16F8  087C               	movf	(_bigval),w
 12271  16F9  1383               	bcf	status, 7	;select IRP bank1
 12272  16FA  0080               	movwf	indf
 12273  16FB  0A84               	incf	fsr0,f
 12274  16FC  087D               	movf	(_bigval+1),w
 12275  16FD  0080               	movwf	indf
 12276                           	line	492
 12277                           	
 12278  16FE                     i1l4048:	
 12279                           ;PR28.c: 492: smallavg = average[index] / 16;
 12280  16FE  0850               	movf	(_index),w
 12281  16FF  00F1               	movwf	(??_GetReading+0)+0
 12282  1700  0771               	addwf	(??_GetReading+0)+0,w
 12283  1701  3E20               	addlw	_average&0ffh
 12284  1702  0084               	movwf	fsr0
 12285  1703  0800               	movf	indf,w
 12286  1704  00F2               	movwf	(??_GetReading+1)+0+0
 12287  1705  0A84               	incf	fsr0,f
 12288  1706  0800               	movf	indf,w
 12289  1707  00F3               	movwf	(??_GetReading+1)+0+1
 12290  1708  3004               	movlw	04h
 12291  1709                     u678_25:
 12292  1709  1003               	clrc
 12293  170A  0CF3               	rrf	(??_GetReading+1)+1,f
 12294  170B  0CF2               	rrf	(??_GetReading+1)+0,f
 12295  170C  3EFF               	addlw	-1
 12296  170D  1D03               	skipz
 12297  170E  2F09               	goto	u678_25
 12298  170F  0872               	movf	0+(??_GetReading+1)+0,w
 12299  1710  00C7               	movwf	(_smallavg)
 12300  1711  0873               	movf	1+(??_GetReading+1)+0,w
 12301  1712  00C8               	movwf	(_smallavg+1)
 12302                           	line	493
 12303                           	
 12304  1713                     i1l4050:	
 12305                           ;PR28.c: 493: threshold4 = average[index] >> 2;
 12306  1713  0850               	movf	(_index),w
 12307  1714  00F1               	movwf	(??_GetReading+0)+0
 12308  1715  0771               	addwf	(??_GetReading+0)+0,w
 12309  1716  3E20               	addlw	_average&0ffh
 12310  1717  0084               	movwf	fsr0
 12311  1718  0800               	movf	indf,w
 12312  1719  00F2               	movwf	(??_GetReading+1)+0+0
 12313  171A  0A84               	incf	fsr0,f
 12314  171B  0800               	movf	indf,w
 12315  171C  00F3               	movwf	(??_GetReading+1)+0+1
 12316  171D  3002               	movlw	02h
 12317  171E                     u679_25:
 12318  171E  1003               	clrc
 12319  171F  0CF3               	rrf	(??_GetReading+1)+1,f
 12320  1720  0CF2               	rrf	(??_GetReading+1)+0,f
 12321  1721  3EFF               	addlw	-1
 12322  1722  1D03               	skipz
 12323  1723  2F1E               	goto	u679_25
 12324  1724  0872               	movf	0+(??_GetReading+1)+0,w
 12325  1725  00CB               	movwf	(_threshold4)
 12326  1726  0873               	movf	1+(??_GetReading+1)+0,w
 12327  1727  00CC               	movwf	(_threshold4+1)
 12328                           	line	494
 12329                           	
 12330  1728                     i1l4052:	
 12331                           ;PR28.c: 494: threshold = threshold4;
 12332  1728  084C               	movf	(_threshold4+1),w
 12333  1729  01CA               	clrf	(_threshold+1)
 12334  172A  07CA               	addwf	(_threshold+1)
 12335  172B  084B               	movf	(_threshold4),w
 12336  172C  01C9               	clrf	(_threshold)
 12337  172D  07C9               	addwf	(_threshold)
 12338                           
 12339                           	line	495
 12340                           	
 12341  172E                     i1l4054:	
 12342                           ;PR28.c: 495: if (bigval < average[index] - threshold)
 12343  172E  0850               	movf	(_index),w
 12344  172F  00F1               	movwf	(??_GetReading+0)+0
 12345  1730  0771               	addwf	(??_GetReading+0)+0,w
 12346  1731  3E20               	addlw	_average&0ffh
 12347  1732  0084               	movwf	fsr0
 12348  1733  0800               	movf	indf,w
 12349  1734  00F2               	movwf	(??_GetReading+1)+0+0
 12350  1735  0A84               	incf	fsr0,f
 12351  1736  0800               	movf	indf,w
 12352  1737  00F3               	movwf	(??_GetReading+1)+0+1
 12353  1738  0949               	comf	(_threshold),w
 12354  1739  00F4               	movwf	(??_GetReading+3)+0
 12355  173A  094A               	comf	(_threshold+1),w
 12356  173B  00F5               	movwf	((??_GetReading+3)+0+1)
 12357  173C  0AF4               	incf	(??_GetReading+3)+0,f
 12358  173D  1903               	skipnz
 12359  173E  0AF5               	incf	((??_GetReading+3)+0+1),f
 12360  173F  0872               	movf	0+(??_GetReading+1)+0,w
 12361  1740  0774               	addwf	0+(??_GetReading+3)+0,w
 12362  1741  00F6               	movwf	(??_GetReading+5)+0
 12363  1742  0873               	movf	1+(??_GetReading+1)+0,w
 12364  1743  1803               	skipnc
 12365  1744  0A73               	incf	1+(??_GetReading+1)+0,w
 12366  1745  0775               	addwf	1+(??_GetReading+3)+0,w
 12367  1746  00F7               	movwf	1+(??_GetReading+5)+0
 12368  1747  0877               	movf	1+(??_GetReading+5)+0,w
 12369  1748  027D               	subwf	(_bigval+1),w
 12370  1749  1D03               	skipz
 12371  174A  2F4D               	goto	u680_25
 12372  174B  0876               	movf	0+(??_GetReading+5)+0,w
 12373  174C  027C               	subwf	(_bigval),w
 12374  174D                     u680_25:
 12375  174D  1803               	skipnc
 12376  174E  2F50               	goto	u680_21
 12377  174F  2F51               	goto	u680_20
 12378  1750                     u680_21:
 12379  1750  2FAC               	goto	i1l4082
 12380  1751                     u680_20:
 12381  1751  2F79               	goto	i1l4078
 12382                           	line	497
 12383                           	
 12384  1752                     i1l4056:	
 12385                           ;PR28.c: 496: {
 12386                           ;PR28.c: 497: switch (index)
 12387  1752  2F79               	goto	i1l4078
 12388                           	line	499
 12389                           ;PR28.c: 498: {
 12390                           ;PR28.c: 499: case 0: Buttons.BTN0 = 1; break;
 12391                           	
 12392  1753                     i1l348:	
 12393                           	
 12394  1753                     i1l4058:	
 12395  1753  01B2               	clrf	(_Buttons)
 12396  1754  1403               	bsf	status,0
 12397  1755  0DB2               	rlf	(_Buttons),f
 12398  1756  2FF5               	goto	i1l4086
 12399                           	line	500
 12400                           ;PR28.c: 500: case 1: Buttons.BTN1 = 1; break;
 12401                           	
 12402  1757                     i1l350:	
 12403                           	
 12404  1757                     i1l4060:	
 12405  1757  01B3               	clrf	0+(_Buttons)+01h
 12406  1758  1403               	bsf	status,0
 12407  1759  0DB3               	rlf	0+(_Buttons)+01h,f
 12408  175A  2FF5               	goto	i1l4086
 12409                           	line	501
 12410                           ;PR28.c: 501: case 2: Buttons.BTN2 = 1; break;
 12411                           	
 12412  175B                     i1l351:	
 12413                           	
 12414  175B                     i1l4062:	
 12415  175B  01B4               	clrf	0+(_Buttons)+02h
 12416  175C  1403               	bsf	status,0
 12417  175D  0DB4               	rlf	0+(_Buttons)+02h,f
 12418  175E  2FF5               	goto	i1l4086
 12419                           	line	502
 12420                           ;PR28.c: 502: case 3: Buttons.BTN3 = 1; break;
 12421                           	
 12422  175F                     i1l352:	
 12423                           	
 12424  175F                     i1l4064:	
 12425  175F  01B5               	clrf	0+(_Buttons)+03h
 12426  1760  1403               	bsf	status,0
 12427  1761  0DB5               	rlf	0+(_Buttons)+03h,f
 12428  1762  2FF5               	goto	i1l4086
 12429                           	line	503
 12430                           ;PR28.c: 503: case 4: Buttons.BTN4 = 1; break;
 12431                           	
 12432  1763                     i1l353:	
 12433                           	
 12434  1763                     i1l4066:	
 12435  1763  01B6               	clrf	0+(_Buttons)+04h
 12436  1764  1403               	bsf	status,0
 12437  1765  0DB6               	rlf	0+(_Buttons)+04h,f
 12438  1766  2FF5               	goto	i1l4086
 12439                           	line	504
 12440                           ;PR28.c: 504: case 5: Buttons.BTN5 = 1; break;
 12441                           	
 12442  1767                     i1l354:	
 12443                           	
 12444  1767                     i1l4068:	
 12445  1767  01B7               	clrf	0+(_Buttons)+05h
 12446  1768  1403               	bsf	status,0
 12447  1769  0DB7               	rlf	0+(_Buttons)+05h,f
 12448  176A  2FF5               	goto	i1l4086
 12449                           	line	505
 12450                           ;PR28.c: 505: case 6: Buttons.BTN6 = 1; break;
 12451                           	
 12452  176B                     i1l355:	
 12453                           	
 12454  176B                     i1l4070:	
 12455  176B  01B8               	clrf	0+(_Buttons)+06h
 12456  176C  1403               	bsf	status,0
 12457  176D  0DB8               	rlf	0+(_Buttons)+06h,f
 12458  176E  2FF5               	goto	i1l4086
 12459                           	line	506
 12460                           ;PR28.c: 506: case 7: Buttons.BTN7 = 1; break;
 12461                           	
 12462  176F                     i1l356:	
 12463                           	
 12464  176F                     i1l4072:	
 12465  176F  01B9               	clrf	0+(_Buttons)+07h
 12466  1770  1403               	bsf	status,0
 12467  1771  0DB9               	rlf	0+(_Buttons)+07h,f
 12468  1772  2FF5               	goto	i1l4086
 12469                           	line	507
 12470                           ;PR28.c: 507: case 8: Buttons.BTN8 = 1; break;
 12471                           	
 12472  1773                     i1l357:	
 12473                           	
 12474  1773                     i1l4074:	
 12475  1773  01BA               	clrf	0+(_Buttons)+08h
 12476  1774  1403               	bsf	status,0
 12477  1775  0DBA               	rlf	0+(_Buttons)+08h,f
 12478  1776  2FF5               	goto	i1l4086
 12479                           	line	509
 12480                           ;PR28.c: 509: default: break;
 12481                           	
 12482  1777                     i1l358:	
 12483  1777  2FF5               	goto	i1l4086
 12484                           	line	510
 12485                           	
 12486  1778                     i1l4076:	
 12487                           ;PR28.c: 510: }
 12488  1778  2FF5               	goto	i1l4086
 12489                           	line	497
 12490                           	
 12491  1779                     i1l347:	
 12492                           	
 12493  1779                     i1l4078:	
 12494  1779  0850               	movf	(_index),w
 12495                           	; Switch size 1, requested type "space"
 12496                           ; Number of cases is 9, Range of values is 0 to 8
 12497                           ; switch strategies available:
 12498                           ; Name         Instructions Cycles
 12499                           ; simple_byte           28    15 (average)
 12500                           ; direct_byte           35     8 (fixed)
 12501                           ; jumptable            260     6 (fixed)
 12502                           ; rangetable            13     6 (fixed)
 12503                           ; spacedrange           24     9 (fixed)
 12504                           ; locatedrange           9     3 (fixed)
 12505                           ;	Chosen strategy is simple_byte
 12506                           
 12507                           	opt asmopt_off
 12508  177A  3A00               	xorlw	0^0	; case 0
 12509  177B  1903               	skipnz
 12510  177C  2F53               	goto	i1l4058
 12511  177D  3A01               	xorlw	1^0	; case 1
 12512  177E  1903               	skipnz
 12513  177F  2F57               	goto	i1l4060
 12514  1780  3A03               	xorlw	2^1	; case 2
 12515  1781  1903               	skipnz
 12516  1782  2F5B               	goto	i1l4062
 12517  1783  3A01               	xorlw	3^2	; case 3
 12518  1784  1903               	skipnz
 12519  1785  2F5F               	goto	i1l4064
 12520  1786  3A07               	xorlw	4^3	; case 4
 12521  1787  1903               	skipnz
 12522  1788  2F63               	goto	i1l4066
 12523  1789  3A01               	xorlw	5^4	; case 5
 12524  178A  1903               	skipnz
 12525  178B  2F67               	goto	i1l4068
 12526  178C  3A03               	xorlw	6^5	; case 6
 12527  178D  1903               	skipnz
 12528  178E  2F6B               	goto	i1l4070
 12529  178F  3A01               	xorlw	7^6	; case 7
 12530  1790  1903               	skipnz
 12531  1791  2F6F               	goto	i1l4072
 12532  1792  3A0F               	xorlw	8^7	; case 8
 12533  1793  1903               	skipnz
 12534  1794  2F73               	goto	i1l4074
 12535  1795  2FF5               	goto	i1l4086
 12536                           	opt asmopt_on
 12537                           
 12538                           	line	510
 12539                           	
 12540  1796                     i1l349:	
 12541                           	line	511
 12542                           ;PR28.c: 511: }
 12543  1796  2FF5               	goto	i1l4086
 12544                           	line	512
 12545                           	
 12546  1797                     i1l346:	
 12547                           	line	515
 12548                           ;PR28.c: 512: else
 12549                           ;PR28.c: 513: {
 12550                           ;PR28.c: 515: switch (index)
 12551  1797  2FAC               	goto	i1l4082
 12552                           	line	517
 12553                           ;PR28.c: 516: {
 12554                           ;PR28.c: 517: case 0: Buttons.BTN0 = 0; break;
 12555                           	
 12556  1798                     i1l361:	
 12557  1798  01B2               	clrf	(_Buttons)
 12558  1799  2FC9               	goto	i1l4084
 12559                           	line	518
 12560                           ;PR28.c: 518: case 1: Buttons.BTN1 = 0; break;
 12561                           	
 12562  179A                     i1l363:	
 12563  179A  01B3               	clrf	0+(_Buttons)+01h
 12564  179B  2FC9               	goto	i1l4084
 12565                           	line	519
 12566                           ;PR28.c: 519: case 2: Buttons.BTN2 = 0; break;
 12567                           	
 12568  179C                     i1l364:	
 12569  179C  01B4               	clrf	0+(_Buttons)+02h
 12570  179D  2FC9               	goto	i1l4084
 12571                           	line	520
 12572                           ;PR28.c: 520: case 3: Buttons.BTN3 = 0; break;
 12573                           	
 12574  179E                     i1l365:	
 12575  179E  01B5               	clrf	0+(_Buttons)+03h
 12576  179F  2FC9               	goto	i1l4084
 12577                           	line	521
 12578                           ;PR28.c: 521: case 4: Buttons.BTN4 = 0; break;
 12579                           	
 12580  17A0                     i1l366:	
 12581  17A0  01B6               	clrf	0+(_Buttons)+04h
 12582  17A1  2FC9               	goto	i1l4084
 12583                           	line	522
 12584                           ;PR28.c: 522: case 5: Buttons.BTN5 = 0; break;
 12585                           	
 12586  17A2                     i1l367:	
 12587  17A2  01B7               	clrf	0+(_Buttons)+05h
 12588  17A3  2FC9               	goto	i1l4084
 12589                           	line	523
 12590                           ;PR28.c: 523: case 6: Buttons.BTN6 = 0; break;
 12591                           	
 12592  17A4                     i1l368:	
 12593  17A4  01B8               	clrf	0+(_Buttons)+06h
 12594  17A5  2FC9               	goto	i1l4084
 12595                           	line	524
 12596                           ;PR28.c: 524: case 7: Buttons.BTN7 = 0; break;
 12597                           	
 12598  17A6                     i1l369:	
 12599  17A6  01B9               	clrf	0+(_Buttons)+07h
 12600  17A7  2FC9               	goto	i1l4084
 12601                           	line	525
 12602                           ;PR28.c: 525: case 8: Buttons.BTN8 = 0; break;
 12603                           	
 12604  17A8                     i1l370:	
 12605  17A8  01BA               	clrf	0+(_Buttons)+08h
 12606  17A9  2FC9               	goto	i1l4084
 12607                           	line	527
 12608                           ;PR28.c: 527: default: break;
 12609                           	
 12610  17AA                     i1l371:	
 12611  17AA  2FC9               	goto	i1l4084
 12612                           	line	528
 12613                           	
 12614  17AB                     i1l4080:	
 12615                           ;PR28.c: 528: }
 12616  17AB  2FC9               	goto	i1l4084
 12617                           	line	515
 12618                           	
 12619  17AC                     i1l360:	
 12620                           	
 12621  17AC                     i1l4082:	
 12622  17AC  0850               	movf	(_index),w
 12623                           	; Switch size 1, requested type "space"
 12624                           ; Number of cases is 9, Range of values is 0 to 8
 12625                           ; switch strategies available:
 12626                           ; Name         Instructions Cycles
 12627                           ; simple_byte           28    15 (average)
 12628                           ; direct_byte           35     8 (fixed)
 12629                           ; jumptable            260     6 (fixed)
 12630                           ; rangetable            13     6 (fixed)
 12631                           ; spacedrange           24     9 (fixed)
 12632                           ; locatedrange           9     3 (fixed)
 12633                           ;	Chosen strategy is simple_byte
 12634                           
 12635                           	opt asmopt_off
 12636  17AD  3A00               	xorlw	0^0	; case 0
 12637  17AE  1903               	skipnz
 12638  17AF  2F98               	goto	i1l361
 12639  17B0  3A01               	xorlw	1^0	; case 1
 12640  17B1  1903               	skipnz
 12641  17B2  2F9A               	goto	i1l363
 12642  17B3  3A03               	xorlw	2^1	; case 2
 12643  17B4  1903               	skipnz
 12644  17B5  2F9C               	goto	i1l364
 12645  17B6  3A01               	xorlw	3^2	; case 3
 12646  17B7  1903               	skipnz
 12647  17B8  2F9E               	goto	i1l365
 12648  17B9  3A07               	xorlw	4^3	; case 4
 12649  17BA  1903               	skipnz
 12650  17BB  2FA0               	goto	i1l366
 12651  17BC  3A01               	xorlw	5^4	; case 5
 12652  17BD  1903               	skipnz
 12653  17BE  2FA2               	goto	i1l367
 12654  17BF  3A03               	xorlw	6^5	; case 6
 12655  17C0  1903               	skipnz
 12656  17C1  2FA4               	goto	i1l368
 12657  17C2  3A01               	xorlw	7^6	; case 7
 12658  17C3  1903               	skipnz
 12659  17C4  2FA6               	goto	i1l369
 12660  17C5  3A0F               	xorlw	8^7	; case 8
 12661  17C6  1903               	skipnz
 12662  17C7  2FA8               	goto	i1l370
 12663  17C8  2FC9               	goto	i1l4084
 12664                           	opt asmopt_on
 12665                           
 12666                           	line	528
 12667                           	
 12668  17C9                     i1l362:	
 12669                           	line	531
 12670                           	
 12671  17C9                     i1l4084:	
 12672                           ;PR28.c: 531: average[index] += bigval/16 - smallavg;
 12673  17C9  0947               	comf	(_smallavg),w
 12674  17CA  00F1               	movwf	(??_GetReading+0)+0
 12675  17CB  0948               	comf	(_smallavg+1),w
 12676  17CC  00F2               	movwf	((??_GetReading+0)+0+1)
 12677  17CD  0AF1               	incf	(??_GetReading+0)+0,f
 12678  17CE  1903               	skipnz
 12679  17CF  0AF2               	incf	((??_GetReading+0)+0+1),f
 12680  17D0  087D               	movf	(_bigval+1),w
 12681  17D1  00F4               	movwf	(??_GetReading+2)+0+1
 12682  17D2  087C               	movf	(_bigval),w
 12683  17D3  00F3               	movwf	(??_GetReading+2)+0
 12684  17D4  3004               	movlw	04h
 12685  17D5                     u681_25:
 12686  17D5  1003               	clrc
 12687  17D6  0CF4               	rrf	(??_GetReading+2)+1,f
 12688  17D7  0CF3               	rrf	(??_GetReading+2)+0,f
 12689  17D8  3EFF               	addlw	-1
 12690  17D9  1D03               	skipz
 12691  17DA  2FD5               	goto	u681_25
 12692  17DB  0871               	movf	0+(??_GetReading+0)+0,w
 12693  17DC  0773               	addwf	0+(??_GetReading+2)+0,w
 12694  17DD  00F5               	movwf	(??_GetReading+4)+0
 12695  17DE  0872               	movf	1+(??_GetReading+0)+0,w
 12696  17DF  1803               	skipnc
 12697  17E0  0A72               	incf	1+(??_GetReading+0)+0,w
 12698  17E1  0774               	addwf	1+(??_GetReading+2)+0,w
 12699  17E2  00F6               	movwf	1+(??_GetReading+4)+0
 12700  17E3  0850               	movf	(_index),w
 12701  17E4  00F7               	movwf	(??_GetReading+6)+0
 12702  17E5  0777               	addwf	(??_GetReading+6)+0,w
 12703  17E6  3E20               	addlw	_average&0ffh
 12704  17E7  0084               	movwf	fsr0
 12705  17E8  0875               	movf	0+(??_GetReading+4)+0,w
 12706  17E9  1383               	bcf	status, 7	;select IRP bank0
 12707  17EA  0780               	addwf	indf,f
 12708  17EB  0F84               	incfsz	fsr0,f
 12709  17EC  0800               	movf	indf,w
 12710  17ED  1803               	skipnc
 12711  17EE  0A00               	incf	indf,w
 12712  17EF  00FF               	movwf	btemp+1
 12713  17F0  0876               	movf	1+(??_GetReading+4)+0,w
 12714  17F1  077F               	addwf	btemp+1,w
 12715  17F2  0080               	movwf	indf
 12716  17F3  0384               	decf	fsr0,f
 12717  17F4  2FF5               	goto	i1l4086
 12718                           	line	532
 12719                           	
 12720  17F5                     i1l359:	
 12721                           	line	533
 12722                           	
 12723  17F5                     i1l4086:	
 12724                           ;PR28.c: 532: }
 12725                           ;PR28.c: 533: SetNextChannel();
 12726  17F5  160A  118A  20FF   	fcall	_SetNextChannel
              160A  118A         
 12727                           	line	534
 12728                           	
 12729  17FA                     i1l4088:	
 12730                           ;PR28.c: 534: RestartTimer1();
 12731  17FA  160A  158A  2602   	fcall	i1_RestartTimer1
              160A  118A         
 12732                           	line	535
 12733                           	
 12734  17FF                     i1l372:	
 12735  17FF  0008               	return
 12736                           	opt stack 0
 12737                           GLOBAL	__end_of_GetReading
 12738  1800                     	__end_of_GetReading:
 12739                           	signat	_GetReading,88
 12740                           	global	_SetNextChannel
 12741                           
 12742 ;; *************** function _SetNextChannel *****************
 12743 ;; Defined at:
 12744 ;;		line 560 in file "PR28.c"
 12745 ;; Parameters:    Size  Location     Type
 12746 ;;		None
 12747 ;; Auto vars:     Size  Location     Type
 12748 ;;		None
 12749 ;; Return value:  Size  Location     Type
 12750 ;;		None               void
 12751 ;; Registers used:
 12752 ;;		wreg, status,2, status,0
 12753 ;; Tracked objects:
 12754 ;;		On entry : 0/0
 12755 ;;		On exit  : 0/0
 12756 ;;		Unchanged: 0/0
 12757 ;; Data sizes:     COMMON   BANK0   BANK1   BANK3   BANK2
 12758 ;;      Params:         0       0       0       0       0
 12759 ;;      Locals:         0       0       0       0       0
 12760 ;;      Temps:          1       0       0       0       0
 12761 ;;      Totals:         1       0       0       0       0
 12762 ;;Total ram usage:        1 bytes
 12763 ;; Hardware stack levels used:    1
 12764 ;; This function calls:
 12765 ;;		Nothing
 12766 ;; This function is called by:
 12767 ;;		_GetReading
 12768 ;; This function uses a non-reentrant model
 12769 ;;
 12770                           psect	text686,local,class=CODE,delta=2,merge=1
 12771                           global __ptext686
 12772  10FF                     __ptext686:
 12773                           psect	text686
 12774                           	file	"PR28.c"
 12775                           	line	560
 12776                           	global	__size_of_SetNextChannel
 12777  0072                     	__size_of_SetNextChannel	equ	__end_of_SetNextChannel-_SetNextChannel
 12778                           	
 12779  10FF                     _SetNextChannel:	
 12780                           	opt	stack 0
 12781                           ; Regs used in _SetNextChannel: [wreg+status,2+status,0]
 12782                           	line	561
 12783                           	
 12784  10FF                     i1l3880:	
 12785                           ;PR28.c: 561: if (++index>= 9)
 12786  10FF  3001               	movlw	(01h)
 12787  1100  00F0               	movwf	(??_SetNextChannel+0)+0
 12788  1101  0870               	movf	(??_SetNextChannel+0)+0,w
 12789  1102  1283               	bcf	status, 5	;RP0=0, select bank0
 12790  1103  1303               	bcf	status, 6	;RP1=0, select bank0
 12791  1104  07D0               	addwf	(_index),f
 12792  1105  3009               	movlw	(09h)
 12793  1106  0250               	subwf	((_index)),w
 12794  1107  1C03               	skipc
 12795  1108  290A               	goto	u620_21
 12796  1109  290B               	goto	u620_20
 12797  110A                     u620_21:
 12798  110A  290E               	goto	i1l3884
 12799  110B                     u620_20:
 12800                           	line	562
 12801                           	
 12802  110B                     i1l3882:	
 12803                           ;PR28.c: 562: index = 0;
 12804  110B  01D0               	clrf	(_index)
 12805  110C  290E               	goto	i1l3884
 12806                           	line	563
 12807                           	
 12808  110D                     i1l378:	
 12809  110D  290E               	goto	i1l3884
 12810                           ;PR28.c: 563: else;
 12811                           	
 12812  110E                     i1l379:	
 12813                           	line	564
 12814                           	
 12815  110E                     i1l3884:	
 12816                           ;PR28.c: 564: if(index==0)
 12817  110E  08D0               	movf	(_index),f
 12818  110F  1D03               	skipz
 12819  1110  2912               	goto	u621_21
 12820  1111  2913               	goto	u621_20
 12821  1112                     u621_21:
 12822  1112  2917               	goto	i1l380
 12823  1113                     u621_20:
 12824                           	line	565
 12825                           	
 12826  1113                     i1l3886:	
 12827                           ;PR28.c: 565: CPSCON1 = 0b00001000;
 12828  1113  3008               	movlw	(08h)
 12829  1114  1283               	bcf	status, 5	;RP0=0, select bank2
 12830  1115  1703               	bsf	status, 6	;RP1=1, select bank2
 12831  1116  0089               	movwf	(265)^0100h	;volatile
 12832                           	
 12833  1117                     i1l380:	
 12834                           	line	566
 12835                           ;PR28.c: 566: if(index==1)
 12836  1117  1303               	bcf	status, 6	;RP1=0, select bank0
 12837  1118  0850               	movf	(_index),w
 12838  1119  3A01               	xorlw	01h
 12839  111A  1D03               	skipz
 12840  111B  291D               	goto	u622_21
 12841  111C  291E               	goto	u622_20
 12842  111D                     u622_21:
 12843  111D  2922               	goto	i1l381
 12844  111E                     u622_20:
 12845                           	line	567
 12846                           	
 12847  111E                     i1l3888:	
 12848                           ;PR28.c: 567: CPSCON1 = 0b00001001;
 12849  111E  3009               	movlw	(09h)
 12850  111F  1283               	bcf	status, 5	;RP0=0, select bank2
 12851  1120  1703               	bsf	status, 6	;RP1=1, select bank2
 12852  1121  0089               	movwf	(265)^0100h	;volatile
 12853                           	
 12854  1122                     i1l381:	
 12855                           	line	568
 12856                           ;PR28.c: 568: if(index==2)
 12857  1122  1303               	bcf	status, 6	;RP1=0, select bank0
 12858  1123  0850               	movf	(_index),w
 12859  1124  3A02               	xorlw	02h
 12860  1125  1D03               	skipz
 12861  1126  2928               	goto	u623_21
 12862  1127  2929               	goto	u623_20
 12863  1128                     u623_21:
 12864  1128  292D               	goto	i1l382
 12865  1129                     u623_20:
 12866                           	line	569
 12867                           	
 12868  1129                     i1l3890:	
 12869                           ;PR28.c: 569: CPSCON1 = 0b00001010;
 12870  1129  300A               	movlw	(0Ah)
 12871  112A  1283               	bcf	status, 5	;RP0=0, select bank2
 12872  112B  1703               	bsf	status, 6	;RP1=1, select bank2
 12873  112C  0089               	movwf	(265)^0100h	;volatile
 12874                           	
 12875  112D                     i1l382:	
 12876                           	line	570
 12877                           ;PR28.c: 570: if(index == 3)
 12878  112D  1303               	bcf	status, 6	;RP1=0, select bank0
 12879  112E  0850               	movf	(_index),w
 12880  112F  3A03               	xorlw	03h
 12881  1130  1D03               	skipz
 12882  1131  2933               	goto	u624_21
 12883  1132  2934               	goto	u624_20
 12884  1133                     u624_21:
 12885  1133  2938               	goto	i1l383
 12886  1134                     u624_20:
 12887                           	line	571
 12888                           	
 12889  1134                     i1l3892:	
 12890                           ;PR28.c: 571: CPSCON1 = 0b00001011;
 12891  1134  300B               	movlw	(0Bh)
 12892  1135  1283               	bcf	status, 5	;RP0=0, select bank2
 12893  1136  1703               	bsf	status, 6	;RP1=1, select bank2
 12894  1137  0089               	movwf	(265)^0100h	;volatile
 12895                           	
 12896  1138                     i1l383:	
 12897                           	line	572
 12898                           ;PR28.c: 572: if(index== 4)
 12899  1138  1303               	bcf	status, 6	;RP1=0, select bank0
 12900  1139  0850               	movf	(_index),w
 12901  113A  3A04               	xorlw	04h
 12902  113B  1D03               	skipz
 12903  113C  293E               	goto	u625_21
 12904  113D  293F               	goto	u625_20
 12905  113E                     u625_21:
 12906  113E  2943               	goto	i1l384
 12907  113F                     u625_20:
 12908                           	line	573
 12909                           	
 12910  113F                     i1l3894:	
 12911                           ;PR28.c: 573: CPSCON1 = 0b00001100;
 12912  113F  300C               	movlw	(0Ch)
 12913  1140  1283               	bcf	status, 5	;RP0=0, select bank2
 12914  1141  1703               	bsf	status, 6	;RP1=1, select bank2
 12915  1142  0089               	movwf	(265)^0100h	;volatile
 12916                           	
 12917  1143                     i1l384:	
 12918                           	line	574
 12919                           ;PR28.c: 574: if(index == 5)
 12920  1143  1303               	bcf	status, 6	;RP1=0, select bank0
 12921  1144  0850               	movf	(_index),w
 12922  1145  3A05               	xorlw	05h
 12923  1146  1D03               	skipz
 12924  1147  2949               	goto	u626_21
 12925  1148  294A               	goto	u626_20
 12926  1149                     u626_21:
 12927  1149  294E               	goto	i1l385
 12928  114A                     u626_20:
 12929                           	line	575
 12930                           	
 12931  114A                     i1l3896:	
 12932                           ;PR28.c: 575: CPSCON1 = 0b00001101;
 12933  114A  300D               	movlw	(0Dh)
 12934  114B  1283               	bcf	status, 5	;RP0=0, select bank2
 12935  114C  1703               	bsf	status, 6	;RP1=1, select bank2
 12936  114D  0089               	movwf	(265)^0100h	;volatile
 12937                           	
 12938  114E                     i1l385:	
 12939                           	line	576
 12940                           ;PR28.c: 576: if(index ==6)
 12941  114E  1303               	bcf	status, 6	;RP1=0, select bank0
 12942  114F  0850               	movf	(_index),w
 12943  1150  3A06               	xorlw	06h
 12944  1151  1D03               	skipz
 12945  1152  2954               	goto	u627_21
 12946  1153  2955               	goto	u627_20
 12947  1154                     u627_21:
 12948  1154  2959               	goto	i1l386
 12949  1155                     u627_20:
 12950                           	line	577
 12951                           	
 12952  1155                     i1l3898:	
 12953                           ;PR28.c: 577: CPSCON1 = 0b00001110;
 12954  1155  300E               	movlw	(0Eh)
 12955  1156  1283               	bcf	status, 5	;RP0=0, select bank2
 12956  1157  1703               	bsf	status, 6	;RP1=1, select bank2
 12957  1158  0089               	movwf	(265)^0100h	;volatile
 12958                           	
 12959  1159                     i1l386:	
 12960                           	line	578
 12961                           ;PR28.c: 578: if (index ==7)
 12962  1159  1303               	bcf	status, 6	;RP1=0, select bank0
 12963  115A  0850               	movf	(_index),w
 12964  115B  3A07               	xorlw	07h
 12965  115C  1D03               	skipz
 12966  115D  295F               	goto	u628_21
 12967  115E  2960               	goto	u628_20
 12968  115F                     u628_21:
 12969  115F  2964               	goto	i1l387
 12970  1160                     u628_20:
 12971                           	line	579
 12972                           	
 12973  1160                     i1l3900:	
 12974                           ;PR28.c: 579: CPSCON1 = 0b00001111;
 12975  1160  300F               	movlw	(0Fh)
 12976  1161  1283               	bcf	status, 5	;RP0=0, select bank2
 12977  1162  1703               	bsf	status, 6	;RP1=1, select bank2
 12978  1163  0089               	movwf	(265)^0100h	;volatile
 12979                           	
 12980  1164                     i1l387:	
 12981                           	line	580
 12982                           ;PR28.c: 580: if (index == 8)
 12983  1164  1303               	bcf	status, 6	;RP1=0, select bank0
 12984  1165  0850               	movf	(_index),w
 12985  1166  3A08               	xorlw	08h
 12986  1167  1D03               	skipz
 12987  1168  296A               	goto	u629_21
 12988  1169  296B               	goto	u629_20
 12989  116A                     u629_21:
 12990  116A  2970               	goto	i1l389
 12991  116B                     u629_20:
 12992                           	line	581
 12993                           	
 12994  116B                     i1l3902:	
 12995                           ;PR28.c: 581: CPSCON1 = 0b00000110;
 12996  116B  3006               	movlw	(06h)
 12997  116C  1283               	bcf	status, 5	;RP0=0, select bank2
 12998  116D  1703               	bsf	status, 6	;RP1=1, select bank2
 12999  116E  0089               	movwf	(265)^0100h	;volatile
 13000  116F  2970               	goto	i1l389
 13001                           	
 13002  1170                     i1l388:	
 13003                           	line	582
 13004                           	
 13005  1170                     i1l389:	
 13006  1170  0008               	return
 13007                           	opt stack 0
 13008                           GLOBAL	__end_of_SetNextChannel
 13009  1171                     	__end_of_SetNextChannel:
 13010                           	signat	_SetNextChannel,88
 13011                           	global	i1_RestartTimer1
 13012                           
 13013 ;; *************** function i1_RestartTimer1 *****************
 13014 ;; Defined at:
 13015 ;;		line 544 in file "PR28.c"
 13016 ;; Parameters:    Size  Location     Type
 13017 ;;		None
 13018 ;; Auto vars:     Size  Location     Type
 13019 ;;		None
 13020 ;; Return value:  Size  Location     Type
 13021 ;;		None               void
 13022 ;; Registers used:
 13023 ;;		status,2
 13024 ;; Tracked objects:
 13025 ;;		On entry : 0/0
 13026 ;;		On exit  : 0/0
 13027 ;;		Unchanged: 0/0
 13028 ;; Data sizes:     COMMON   BANK0   BANK1   BANK3   BANK2
 13029 ;;      Params:         0       0       0       0       0
 13030 ;;      Locals:         0       0       0       0       0
 13031 ;;      Temps:          0       0       0       0       0
 13032 ;;      Totals:         0       0       0       0       0
 13033 ;;Total ram usage:        0 bytes
 13034 ;; Hardware stack levels used:    1
 13035 ;; This function calls:
 13036 ;;		Nothing
 13037 ;; This function is called by:
 13038 ;;		_GetReading
 13039 ;; This function uses a non-reentrant model
 13040 ;;
 13041                           psect	text687,local,class=CODE,delta=2,merge=1
 13042                           global __ptext687
 13043  1E02                     __ptext687:
 13044                           psect	text687
 13045                           	file	"PR28.c"
 13046                           	line	544
 13047                           	global	__size_ofi1_RestartTimer1
 13048  0009                     	__size_ofi1_RestartTimer1	equ	__end_ofi1_RestartTimer1-i1_RestartTimer1
 13049                           	
 13050  1E02                     i1_RestartTimer1:	
 13051                           	opt	stack 0
 13052                           ; Regs used in i1_RestartTimer1: [status,2]
 13053                           	line	545
 13054                           	
 13055  1E02                     i1l4036:	
 13056                           ;PR28.c: 545: TMR1L = 0;
 13057  1E02  1283               	bcf	status, 5	;RP0=0, select bank0
 13058  1E03  1303               	bcf	status, 6	;RP1=0, select bank0
 13059  1E04  018E               	clrf	(14)	;volatile
 13060                           	line	546
 13061                           ;PR28.c: 546: TMR1H = 0;
 13062  1E05  018F               	clrf	(15)	;volatile
 13063                           	line	547
 13064                           ;PR28.c: 547: TMR2 = 0;
 13065  1E06  0191               	clrf	(17)	;volatile
 13066                           	line	548
 13067                           	
 13068  1E07                     i1l4038:	
 13069                           ;PR28.c: 548: TMR2IF = 0;
 13070  1E07  108C               	bcf	(97/8),(97)&7	;volatile
 13071                           	line	549
 13072                           	
 13073  1E08                     i1l4040:	
 13074                           ;PR28.c: 549: TMR1ON = 1;
 13075  1E08  1410               	bsf	(128/8),(128)&7	;volatile
 13076                           	line	550
 13077                           	
 13078  1E09                     i1l4042:	
 13079                           ;PR28.c: 550: TMR2ON = 1;
 13080  1E09  1512               	bsf	(146/8),(146)&7	;volatile
 13081                           	line	551
 13082                           	
 13083  1E0A                     i1l375:	
 13084  1E0A  0008               	return
 13085                           	opt stack 0
 13086                           GLOBAL	__end_ofi1_RestartTimer1
 13087  1E0B                     	__end_ofi1_RestartTimer1:
 13088                           	signat	i1_RestartTimer1,88
 13089                           psect	text688,local,class=CODE,delta=2,merge=1
 13090                           global __ptext688
 13091  0000                     __ptext688:
 13092                           	global	btemp
 13093  007E                     	btemp set 07Eh
 13094                           
 13095                           	DABS	1,126,2	;btemp
 13096                           	global	wtemp0
 13097  007E                     	wtemp0 set btemp
 13098  14F8                     


Data Sizes:
    Strings     211
    Constant    0
    Data        0
    BSS         70
    Persistent  0
    Stack       0

Auto Spaces:
    Space          Size  Autos    Used
    COMMON           14     12      14
    BANK0            80     21      71
    BANK1            80      0      18
    BANK3            96      0       0
    BANK2            96      0       0

Pointer List with Targets:

    send_string@s	PTR const unsigned char  size(1) Largest target is 32
		 -> STR_14(CODE[11]), STR_13(CODE[17]), STR_12(CODE[17]), STR_11(CODE[17]), 
		 -> STR_10(CODE[17]), STR_9(CODE[17]), STR_8(CODE[16]), STR_7(CODE[16]), 
		 -> STR_6(CODE[6]), STR_5(CODE[16]), STR_4(CODE[17]), STR_3(CODE[15]), 
		 -> STR_2(CODE[32]), STR_1(CODE[31]), 


Critical Paths under _main in COMMON

    None.

Critical Paths under _isr in COMMON

    _isr->_GetReading
    _GetReading->_SetNextChannel

Critical Paths under _main in BANK0

    _main->_Init
    _Init->_winlose
    _lcd_clr->_send_config
    _lcd_goto->_send_config
    _send_string->_send_char
    _lcd_shift->_send_config
    _send_config->_delay
    _PIEZO_S->_delay
    _winlose->___bmul
    _PIEZO->_delay
    _PIEZO_D->_delay
    _draw->_delay
    _led_off->_led_display1
    _led_off->_led_display2
    _led_off->_led_display3
    _CapInit->___bmul
    _checkstatus->_DisplayLEDs
    _DisplayLEDs->_led_display1
    _DisplayLEDs->_led_display2
    _DisplayLEDs->_led_display3
    _send_char->_delay
    _e_pulse->_delay

Critical Paths under _isr in BANK0

    None.

Critical Paths under _main in BANK1

    None.

Critical Paths under _isr in BANK1

    None.

Critical Paths under _main in BANK3

    None.

Critical Paths under _isr in BANK3

    None.

Critical Paths under _main in BANK2

    None.

Critical Paths under _isr in BANK2

    None.

Call Graph Tables:

 ---------------------------------------------------------------------------------
 (Depth) Function   	        Calls       Base Space   Used Autos Params    Refs
 ---------------------------------------------------------------------------------
 (0) _main                                                 3     3      0   15021
                                             18 BANK0      3     3      0
                               _Init
                        _send_config
                            _lcd_clr
                           _lcd_goto
                        _send_string
                              _delay
                          _lcd_shift
                            _PIEZO_S
                          _checkflag
                            _winlose
                              _PIEZO
                            _PIEZO_D
                               _draw
 ---------------------------------------------------------------------------------
 (1) _Init                                                 1     1      0    1320
                                             17 BANK0      1     1      0
                            _led_off
                            _CapInit
                            _winlose
 ---------------------------------------------------------------------------------
 (1) _lcd_clr                                              0     0      0     157
                        _send_config
                              _delay
 ---------------------------------------------------------------------------------
 (1) _lcd_goto                                             2     2      0     201
                                              9 BANK0      2     2      0
                        _send_config
 ---------------------------------------------------------------------------------
 (1) _send_string                                          2     2      0     179
                                              9 BANK0      2     2      0
                          _send_char
 ---------------------------------------------------------------------------------
 (1) _lcd_shift                                            0     0      0     157
                        _send_config
                              _delay
 ---------------------------------------------------------------------------------
 (2) _send_config                                          1     1      0     112
                                              8 BANK0      1     1      0
                              _delay
                            _e_pulse
 ---------------------------------------------------------------------------------
 (1) _PIEZO_S                                              0     0      0      45
                              _delay
                      _RestartTimer1
 ---------------------------------------------------------------------------------
 (1) _checkflag                                            0     0      0   11004
                           _player_1
                           _player_2
 ---------------------------------------------------------------------------------
 (1) _winlose                                             17    17      0     564
                                              4 BANK0     13    13      0
                             ___bmul
 ---------------------------------------------------------------------------------
 (1) _PIEZO                                                0     0      0      45
                              _delay
                      _RestartTimer1
 ---------------------------------------------------------------------------------
 (1) _PIEZO_D                                              0     0      0      45
                              _delay
                      _RestartTimer1
 ---------------------------------------------------------------------------------
 (1) _draw                                                 1     1      0    1101
                                              8 BANK0      1     1      0
                       _led_display1
                       _led_display2
                       _led_display3
                              _delay
                            _led_off
 ---------------------------------------------------------------------------------
 (2) _led_off                                              0     0      0     528
                       _led_display1
                       _led_display2
                       _led_display3
 ---------------------------------------------------------------------------------
 (2) _CapInit                                              9     9      0     228
                                              4 BANK0      9     9      0
                             ___bmul
 ---------------------------------------------------------------------------------
 (2) _player_1                                             0     0      0    5502
                        _checkstatus
 ---------------------------------------------------------------------------------
 (2) _player_2                                             0     0      0    5502
                        _checkstatus
 ---------------------------------------------------------------------------------
 (3) _checkstatus                                          0     0      0    5502
                              _store
                        _DisplayLEDs
 ---------------------------------------------------------------------------------
 (4) _store                                                1     1      0       0
                                              0 BANK0      1     1      0
 ---------------------------------------------------------------------------------
 (4) _DisplayLEDs                                          3     3      0    5502
                                              2 BANK0      3     3      0
                       _led_display1
                       _led_display2
                       _led_display3
 ---------------------------------------------------------------------------------
 (2) _RestartTimer1                                        0     0      0       0
 ---------------------------------------------------------------------------------
 (3) _led_display1                                         2     2      0     176
                                              0 BANK0      2     2      0
 ---------------------------------------------------------------------------------
 (3) _led_display2                                         2     2      0     176
                                              0 BANK0      2     2      0
 ---------------------------------------------------------------------------------
 (3) _led_display3                                         2     2      0     176
                                              0 BANK0      2     2      0
 ---------------------------------------------------------------------------------
 (2) _send_char                                            1     1      0     112
                                              8 BANK0      1     1      0
                              _delay
                            _e_pulse
 ---------------------------------------------------------------------------------
 (3) _e_pulse                                              0     0      0      45
                              _delay
 ---------------------------------------------------------------------------------
 (2) _delay                                                8     4      4      45
                                              0 BANK0      8     4      4
 ---------------------------------------------------------------------------------
 (2) ___bmul                                               4     3      1      92
                                              0 BANK0      4     3      1
 ---------------------------------------------------------------------------------
 Estimated maximum stack depth 4
 ---------------------------------------------------------------------------------
 (Depth) Function   	        Calls       Base Space   Used Autos Params    Refs
 ---------------------------------------------------------------------------------
 (6) _isr                                                  4     4      0       0
                                              8 COMMON     4     4      0
                         _GetReading
 ---------------------------------------------------------------------------------
 (7) _GetReading                                           7     7      0       0
                                              1 COMMON     7     7      0
                     _SetNextChannel
                    i1_RestartTimer1
 ---------------------------------------------------------------------------------
 (8) _SetNextChannel                                       1     1      0       0
                                              0 COMMON     1     1      0
 ---------------------------------------------------------------------------------
 (8) i1_RestartTimer1                                      0     0      0       0
 ---------------------------------------------------------------------------------
 Estimated maximum stack depth 8
 ---------------------------------------------------------------------------------

 Call Graph Graphs:

 _main (ROOT)
   _Init
     _led_off
       _led_display1
       _led_display2
       _led_display3
     _CapInit
       ___bmul
     _winlose
       ___bmul
   _send_config
     _delay
     _e_pulse
       _delay
   _lcd_clr
     _send_config
       _delay
       _e_pulse
         _delay
     _delay
   _lcd_goto
     _send_config
       _delay
       _e_pulse
         _delay
   _send_string
     _send_char
       _delay
       _e_pulse
         _delay
   _delay
   _lcd_shift
     _send_config
       _delay
       _e_pulse
         _delay
     _delay
   _PIEZO_S
     _delay
     _RestartTimer1
   _checkflag
     _player_1
       _checkstatus
         _store
         _DisplayLEDs
           _led_display1
           _led_display2
           _led_display3
     _player_2
       _checkstatus
         _store
         _DisplayLEDs
           _led_display1
           _led_display2
           _led_display3
   _winlose
     ___bmul
   _PIEZO
     _delay
     _RestartTimer1
   _PIEZO_D
     _delay
     _RestartTimer1
   _draw
     _led_display1
     _led_display2
     _led_display3
     _delay
     _led_off
       _led_display1
       _led_display2
       _led_display3

 _isr (ROOT)
   _GetReading
     _SetNextChannel
     i1_RestartTimer1

 Address spaces:
Name               Size   Autos  Total    Cost      Usage
BITCOMMON            E      0       0       0        0.0%
NULL                 0      0       0       0        0.0%
CODE                 0      0       0       0        0.0%
COMMON               E      C       E       1      100.0%
BITSFR0              0      0       0       1        0.0%
SFR0                 0      0       0       1        0.0%
BITSFR1              0      0       0       2        0.0%
SFR1                 0      0       0       2        0.0%
STACK                0      0       B       2        0.0%
ABS                  0      0      67       3        0.0%
BITBANK0            50      0       0       4        0.0%
BITSFR3              0      0       0       4        0.0%
SFR3                 0      0       0       4        0.0%
BANK0               50     15      47       5       88.8%
BITSFR2              0      0       0       5        0.0%
SFR2                 0      0       0       5        0.0%
DATA                 0      0      72       6        0.0%
BITBANK1            50      0       0       7        0.0%
BANK1               50      0      12       8       22.5%
BITBANK3            60      0       0       9        0.0%
BANK3               60      0       0      10        0.0%
BITBANK2            60      0       0      11        0.0%
BANK2               60      0       0      12        0.0%


HI-TECH Software PICC Macro Assembler V1.00 build 12136 
Symbol Table                                                                                   Wed Jun 27 12:58:57 2012

                       pc 0002            ___bmul@product 0054                        fsr 0004  
           ?_led_display1 0070             ?_led_display2 0070             ?_led_display3 0070  
                     l200 083D                       l203 0758                       l204 0778  
                     l220 1EDC                       l301 0C56                       l205 0789  
                     l221 1ECA                       l310 0C8E                       l302 0C5D  
                     l206 07E2                       l222 1ED0                       l311 0C95  
                     l303 0C61                       l207 079C                       l223 1EDC  
                     l400 1564                       l240 131E                       l320 0CCD  
                     l312 0C99                       l304 0C7A                       l232 1E2A  
                     l208 07CC                       l401 071B                       l241 1328  
                     l321 0CD1                       l313 0CB2                       l305 0C77  
                     l233 1E24                       l209 07FE                       l410 007D  
                     l402 1587                       l250 1376                       l242 1332  
                     l330 0D09                       l322 0CEA                       l314 0CAF  
                     l306 0C79                       l234 1E33                       l226 1E1B  
                     l218 1ED2                       l403 071A                       l411 0716  
                     l251 1380                       l243 133C                       l331 0D22  
                     l323 0CE7                       l307 0CB3                       l315 0CB1  
                     l235 1E33                       l227 1E15                       l219 1EC4  
                     l500 06A1                       l420 012C                       l412 00A0  
                     l404 0015                       l252 138A                       l244 1346  
                     l340 0D5A                       l332 0D1F                       l316 0CEB  
                     l324 0CE9                       l308 0C9A                       l228 1E22  
                     l180 0A14                       l405 0719                       l413 0715  
                     l421 0711                       l501 06E9                       l253 1394  
                     l245 1350                       l341 0D57                       l325 0D23  
                     l333 0D21                       l317 0CD2                       l229 1E22  
                     l181 0ACC                       l510 1297                       l502 06C4  
                     l430 01DB                       l422 014F                       l414 00C3  
                     l406 0037                       l254 139E                       l238 1366  
                     l246 135A                       l334 0D5B                       l342 0D59  
                     l326 0D0A                       l262 0B9B                       l270 0B99  
                     l190 0B2F                       l182 0A92                       l511 1298  
                     l407 0718                       l415 0714                       l423 0710  
                     l431 070C                       l503 06E8                       l255 13A8  
                     l247 1365                       l239 1314                       l335 0D42  
                     l343 0D5B                       l319 0CC6                       l271 0BD3  
                     l263 0B82                       l191 0B52                       l183 0AAB  
                     l520 12EC                       l512 12A8                       l504 06E7  
                     l440 0289                       l432 01FE                       l424 0172  
                     l416 00E6                       l408 005A                       l248 13C9  
                     l256 13B2                       l328 0CFE                       l280 0C0B  
                     l272 0BBA                       l192 0B53                       l184 0ABC  
                     l521 12ED                       l513 12A9                       l409 0717  
                     l417 0713                       l425 070F                       l433 070B  
                     l441 0707                       l505 074C                       l249 13C8  
                     l257 13BC                       l337 0D36                       l329 0D05  
                     l281 0BF2                       l265 0B76                       l601 1F18  
                     l193 0B5D                       l185 0AD5                       l530 1212  
                     l522 12FD                       l514 12B9                       l450 0338  
                     l442 02AC                       l434 0220                       l426 0195  
                     l418 0109                       l258 13C7                       l338 0D3D  
                     l290 0C2A                       l274 0BAE                       l266 0B7D  
                     l610 149F                       l194 0B5D                       l186 0AFE  
                     l531 1222                       l523 12FE                       l515 12BA  
                     l419 0712                       l427 070E                       l435 070A  
                     l443 0706                       l451 0702                       l259 13C9  
                     l339 0D41                       l283 0BE6                       l275 0BB5  
                     l267 0B81                       l195 0B5D                       l187 0B29  
                     l179 09F9                       l540 1267                       l532 1223  
                     l524 1302                       l516 12CA                       l508 1286  
                     l460 03E7                       l452 035B                       l444 02CF  
                     l436 0243                       l428 01B8                       l292 0C1E  
                     l284 0BED                       l276 0BB9                       l268 0B9A  
                     l604 16D4                       l620 091C                       l196 0B5E  
                     l188 0B54                       l541 1277                       l533 1233  
                     l517 12CB                       l509 1287                       l429 070D  
                     l437 0709                       l445 0705                       l453 0701  
                     l461 06FD                       l293 0C25                       l285 0BF1  
                     l277 0BD2                       l269 0B97                       l621 097F  
                     l613 0853                       l197 0B5E                       l189 0B2A  
                     l630 1EAD                       l550 119C                       l542 1278  
                     l534 1234                       l518 12DB                       l470 0495  
                     l462 0409                       l454 037E                       l446 02F2  
                     l438 0266                       l294 0C29                       l286 0C0A  
                     l278 0BCF                       l622 092F                       l614 0909  
                     l631 1EB6                       l551 119D                       l543 127C  
                     l535 1244                       l527 1200                       l519 12DC  
                     l375 1E13                       l439 0708                       l447 0704  
                     l455 0700                       l463 06FC                       l471 06F8  
                     l295 0C42                       l287 0C07                       l279 0BD1  
                     l607 0FFF                       l623 0969                       l615 08B3  
                     l632 1EC0                       l560 11F1                       l552 11AD  
                     l536 1245                       l528 1201                       l480 0544  
                     l472 04B8                       l464 042C                       l456 03A1  
                     l448 0315                       l392 14BB                       l296 0C3F  
                     l288 0C09                       l624 0954                       l616 0996  
                     l633 1EC2                       l561 11F2                       l553 11AE  
                     l537 1255                       l529 1211                       l393 074C  
                     l449 0703                       l457 06FF                       l465 06FB  
                     l473 06F7                       l481 06F3                       l289 0C43  
                     l297 0C41                       l625 0955                       l617 08D7  
                     l562 11F6                       l554 11BE                       l546 117A  
                     l538 1256                       l490 05F2                       l482 0567  
                     l474 04DB                       l466 044F                       l458 03C4  
                     l394 14FB                       l298 0C7B                       l626 098F  
                     l618 08E6                       l570 1EA8                       l555 11BF  
                     l547 117B                       l539 1266                       l395 071E  
                     l459 06FE                       l467 06FA                       l475 06F6  
                     l483 06F2                       l491 06EE                       l299 0C62  
                     l627 0996                       l619 08F5                       l556 11CF  
                     l548 118B                       l492 0615                       l484 058A  
                     l476 04FE                       l468 0472                       l396 151E  
                     l580 10FE                       l565 1F70                       l573 1E8F  
                     l557 11D0                       l549 118C                       l397 071D  
                     l469 06F9                       l477 06F5                       l485 06F1  
                     l493 06ED                       l581 10FE                       l566 1F95  
                     l558 11E0                       l494 0638                       l486 05AD  
                     l478 0521                       l398 1541                       l590 1F51  
                     l567 1F95                       l559 11E1                       l399 071C  
                     l479 06F4                       l487 06F0                       l495 06EC  
                     l591 1F3E                       l576 1F39                       l496 065B  
                     l488 05D0                       l584 1E49                       l489 06EF  
                     l497 06EB                       l593 1F62                       l498 067E  
                     l594 1F63                       l499 06EA                       l595 1F63  
                     l579 10EF                       l587 1E5F                       l598 1FFF  
                     _GIE 005F                       _RA0 0028                       _RA1 0029  
                     _RA2 002A                       _RA3 002B                       _RC0 0038  
                     _RC1 0039                       _RA5 002D                       _RA6 002E  
                     _RC3 003B                       _RA7 002F                       _RE0 0048  
                     _RC4 003C                       _RE1 0049                       _RC5 003D  
                     _RE2 004A                       _RC6 003E                       _RC7 003F  
                     _PR2 0092                       _isr 1EDD                       fsr0 0004  
                     indf 0000           send_config@data 005A          ?i1_RestartTimer1 0070  
                    l3000 0E00                      l3010 0E3F                      l3002 0E15  
                    l3100 0FE8                      l3020 0E76                      l3012 0E4C  
                    l3004 0E22                      l3110 1F96                      l3102 0FF3  
                    l3030 0EA4                      l3022 0E7A                      l3014 0E50  
                    l3006 0E26                      l4000 11D2                      l3200 0B82  
                    l3120 1FD4                      l3112 1FAD                      l3104 0FF6  
                    l3040 0ED2                      l3032 0EA8                      l3024 0E7E  
                    l3016 0E54                      l3008 0E2A                      l4010 1F1C  
                    l4002 11DE                      l3210 0BA1                      l3202 0B87  
                    l3130 1F02                      l3122 1FDC                      l3114 1FB1  
                    l3106 0FF9                      l3050 0F11                      l3042 0EE7  
                    l3034 0EBD                      l3026 0E93                      l3018 0E69  
                    l4012 1F29                      l4020 1E8A                      l4004 11E3  
                    l3300 0C9A                      l3220 0BBA                      l3212 0BA7  
                    l3204 0B8C                      l3140 076D                      l3132 074D  
                    l3124 1FEB                      l3116 1FC6                      l3108 0FFE  
                    l3060 0F48                      l3052 0F1E                      l3044 0EF4  
                    l3036 0ECA                      l3028 0EA0                      l4030 1EBA  
                    l4022 1EAC                      l4014 1E7A                      l4006 11EF  
                    l3310 0CB9                      l3302 0C9F                      l3230 0BD9  
                    l3222 0BBF                      l3214 0BAE                      l3206 0B93  
                    l3150 0789                      l3142 0771                      l3134 0750  
                    l3126 1FF0                      l3118 1FCC                      l3070 0F76  
                    l3062 0F4C                      l3054 0F22                      l3046 0EF8  
                    l3038 0ECE                      l4032 1EC0                      l4024 1EB1  
                    l4008 1F19                      l4016 1E7B                      l3400 1390  
                    l3320 0CD2                      l3312 0CBF                      l3304 0CA4  
                    l3240 0BF2                      l3232 0BDF                      l3224 0BC4  
                    l3216 0BB3                      l3208 0B9B                      l3160 07BE  
                    l3152 078D                      l3136 0757                      l3144 0778  
                    l3128 1EF9                      l3080 0FA4                      l3072 0F7A  
                    l3064 0F50                      l3056 0F26                      l3048 0EFC  
                    l2600 0997                      l4034 1EC2                      l4026 1EB6  
                    l4018 1E7D                      l3410 13C2                      l3402 139A  
                    l3330 0CF1                      l3322 0CD7                      l3314 0CC6  
                    l3306 0CAB                      l3250 0C11                      l3242 0BF7  
                    l3234 0BE6                      l3226 0BCB                      l3218 0BB5  
                    l3170 07ED                      l3154 079B                      l3162 07CC  
                    l3146 077A                      l3138 0758                      l3090 0FDB  
                    l3082 0FB9                      l3074 0F8F                      l3066 0F65  
                    l3058 0F3B                      l2610 09F9                      l2602 09D7  
                    l4028 1EB8                      l3500 0098                      l3420 14BB  
                    l3412 14A0                      l3404 13A4                      l3340 0D0A  
                    l3332 0CF7                      l3324 0CDC                      l3316 0CCB  
                    l3308 0CB3                      l3260 0C2A                      l3252 0C17  
                    l3244 0BFC                      l3236 0BEB                      l3228 0BD3  
                    l3180 1E1B                      l3172 07F8                      l3164 07D4  
                    l3156 079C                      l3148 0788                      l3092 0FDE  
                    l3084 0FC6                      l3076 0F9C                      l3068 0F72  
                    l2700 083C                      l2620 0A28                      l2612 09FE  
                    l2604 09E6                      l3510 00C3                      l3502 00A0  
                    l3430 14FB                      l3422 14D3                      l3414 14A8  
                    l3406 13AE                      l3350 0D29                      l3342 0D0F  
                    l3334 0CFE                      l3326 0CE3                      l3318 0CCD  
                    l3270 0C49                      l3262 0C2F                      l3254 0C1E  
                    l3246 0C03                      l3238 0BED                      l3190 0B69  
                    l3182 1E23                      l3174 07FB                      l3158 07B8  
                    l3166 07E2                      l3094 0FE0                      l3086 0FCA  
                    l3078 0FA0                      l2702 1E93                      l2710 1E4A  
                    l2630 0A6C                      l2622 0A2E                      l2614 0A06  
                    l2606 09EA                      l3600 024C                      l3520 00EF  
                    l3512 00CC                      l3504 00A9                      l3440 1527  
                    l3432 1504                      l3424 14DF                      l3416 14AA  
                    l3408 13B8                      l3360 0D42                      l3352 0D2F  
                    l3344 0D14                      l3336 0D03                      l3328 0CEB  
                    l3280 0C62                      l3272 0C4F                      l3264 0C34  
                    l3256 0C23                      l3248 0C0B                      l3192 0B6F  
                    l3184 1E24                      l3176 1E14                      l3168 07EA  
                    l3096 0FE4                      l3088 0FCE                      l2800 1ED1  
                    l2704 1E94                      l2720 1F3D                      l2712 10E1  
                    l2640 0A92                      l2632 0A7B                      l2624 0A34  
                    l2608 09F8                      l2616 0A14                      l2730 1F64  
                    l3610 0278                      l3602 0255                      l3530 011B  
                    l3522 00F8                      l3514 00D5                      l3506 00B2  
                    l3450 1553                      l3442 1530                      l3434 150D  
                    l3426 14E8                      l3418 14BA                      l3370 130A  
                    l3362 0D47                      l3354 0D36                      l3346 0D1B  
                    l3338 0D05                      l3290 0C81                      l3282 0C67  
                    l3274 0C56                      l3266 0C3B                      l3258 0C25  
                    l3194 0B76                      l3186 1E2A                      l3178 1E15  
                    l3098 0FE7                      l2810 0853                      l2802 1ED2  
                    l2706 1E96                      l2722 1F3E                      l2714 10E7  
                    l2650 0ADB                      l2642 0A99                      l2634 0A84  
                    l2626 0A3A                      l2618 0A23                      l2732 1F6F  
                    l3700 0402                      l3620 02A4                      l3612 0281  
                    l3604 025E                      l3540 0147                      l3532 0124  
                    l3524 0101                      l3516 00DE                      l3508 00BB  
                    l3460 157F                      l3452 155C                      l3444 1539  
                    l3436 1516                      l3428 14F1                      l3380 1338  
                    l3372 1310                      l3364 0D4C                      l3356 0D3B  
                    l3348 0D23                      l3292 0C87                      l3284 0C6C  
                    l3276 0C5B                      l3268 0C43                      l3196 0B7B  
                    l3188 0B61                      l2900 15FC                      l2820 08C3  
                    l2812 087C                      l2804 083E                      l2740 13CF  
                    l2708 1EA3                      l2724 1F4A                      l2716 10EF  
                    l2660 0803                      l2652 0AFE                      l2644 0AAB  
                    l2636 0A8B                      l2628 0A40                      l2734 1F70  
                    l3710 042C                      l3702 0409                      l3630 02CF  
                    l3622 02AC                      l3614 0289                      l3606 0266  
                    l3550 0172                      l3542 014F                      l3534 012C  
                    l3526 0109                      l3518 00E6                      l3470 0015  
                    l3462 1587                      l3454 1564                      l3446 1541  
                    l3438 151E                      l3382 1342                      l3374 131A  
                    l3390 1366                      l3366 0D53                      l3358 0D3D  
                    l3294 0C8E                      l3286 0C73                      l3278 0C5D  
                    l3198 0B7D                      l2910 1633                      l2902 1611  
                    l2830 08E3                      l2822 08D1                      l2814 08A3  
                    l2806 0844                      l2750 1405                      l2742 13DB  
                    l2726 1F51                      l2718 10F6                      l2670 080F  
                    l2662 0807                      l2654 0B06                      l2646 0ACC  
                    l2638 0A8C                      l3800 05B6                      l3720 0458  
                    l3712 0435                      l3704 0412                      l3640 02FB  
                    l3632 02D8                      l3624 02B5                      l3616 0292  
                    l3608 026F                      l3560 019E                      l3552 017B  
                    l3544 0158                      l3536 0135                      l3528 0112  
                    l3480 0040                      l3472 001E                      l3464 1592  
                    l3456 156D                      l3448 154A                      l3392 136C  
                    l3384 134C                      l3376 1324                      l3368 1303  
                    l3296 0C93                      l3288 0C7B                      l2920 164F  
                    l2912 1636                      l2904 161E                      l2840 08F4  
                    l2832 08E5                      l2824 08D6                      l2816 08B2  
                    l2808 0852                      l2760 143C                      l2752 1412  
                    l2744 13E8                      l2736 1E34                      l2728 1F55  
                    l2680 081B                      l2672 0810                      l2664 0808  
                    l2656 0B2A                      l2648 0AD5                      l3810 05E2  
                    l3802 05BF                      l3730 0484                      l3722 0461  
                    l3714 043E                      l3706 041B                      l3650 0327  
                    l3642 0304                      l3634 02E1                      l3626 02BE  
                    l3618 029B                      l3570 01CA                      l3562 01A7  
                    l3554 0184                      l3546 0161                      l3538 013E  
                    l3490 006C                      l3482 0049                      l3474 0027  
                    l3466 159B                      l3458 1576                      l3394 1372  
                    l3386 1356                      l3378 132E                      l3298 0C95  
                    l2930 1675                      l2922 165C                      l2914 163A  
                    l2906 1622                      l2850 091B                      l2842 08F5  
                    l2834 08E6                      l2826 08D7                      l2818 08B3  
                    l2770 146A                      l2762 1440                      l2754 1416  
                    l2746 13EC                      l2738 13CA                      l2690 0826  
                    l2682 081D                      l2674 0815                      l2666 080B  
                    l2658 0B54                      l3820 060D                      l3812 05EB  
                    l3804 05C8                      l3740 04B0                      l3732 048D  
                    l3724 046A                      l3716 0447                      l3708 0424  
                    l3660 0353                      l3652 0330                      l3644 030D  
                    l3636 02EA                      l3628 02C7                      l3580 01F6  
                    l3572 01D3                      l3564 01B0                      l3556 018D  
                    l3548 016A                      l3492 0075                      l3484 0052  
                    l3476 0030                      l3468 15A4                      l3396 137C  
                    l3388 1360                      l2940 169B                      l2932 1679  
                    l2924 1660                      l2916 1647                      l2908 1626  
                    l2860 094D                      l2852 091C                      l2844 08FB  
                    l2836 08EC                      l2828 08DD                      l2780 1484  
                    l2772 146E                      l2764 1444                      l2756 141A  
                    l2748 13F0                      l2692 0827                      l2684 0820  
                    l2676 0819                      l2668 080C                      l3910 1E12  
                    l3830 0638                      l3822 0615                      l3814 05F2  
                    l3806 05D0                      l3750 04DB                      l3742 04B8  
                    l3734 0495                      l3726 0472                      l3718 044F  
                    l3670 037E                      l3662 035B                      l3654 0338  
                    l3646 0315                      l3638 02F2                      l3590 0220  
                    l3582 01FE                      l3574 01DB                      l3566 01B8  
                    l3558 0195                      l3494 007D                      l3486 005A  
                    l3478 0037                      l3398 1386                      l2950 16BC  
                    l2942 169F                      l2934 1686                      l2926 1664  
                    l2918 164B                      l2862 0955                      l2854 0920  
                    l2870 097F                      l2838 08F2                      l2846 0909  
                    l2790 1499                      l2782 1487                      l2774 147B  
                    l2766 1459                      l2758 142F                      l2694 082B  
                    l2686 0821                      l2678 081A                      l3920 129A  
                    l3912 1280                      l3904 1E0B                      l3840 0664  
                    l3832 0641                      l3824 061E                      l3816 05FB  
                    l3808 05D9                      l3760 0507                      l3752 04E4  
                    l3744 04C1                      l3736 049E                      l3728 047B  
                    l3680 03AA                      l3672 0387                      l3664 0364  
                    l3656 0341                      l3648 031E                      l3592 0229  
                    l3584 0207                      l3576 01E4                      l3568 01C1  
                    l3496 0086                      l3488 0063                      l2960 16CB  
                    l2952 16BD                      l2944 16A3                      l2936 168A  
                    l2928 1671                      l2880 0995                      l2872 0987  
                    l2864 095B                      l2856 092E                      l2848 090D  
                    l2792 149E                      l2784 1488                      l2776 147E  
                    l2768 1466                      l2696 082D                      l2688 0822  
                    l3930 12C8                      l3922 12A6                      l3914 1284  
                    l3906 1E10                      l3850 0690                      l3842 066D  
                    l3834 064A                      l3826 0627                      l3818 0604  
                    l3770 0533                      l3762 0510                      l3754 04ED  
                    l3746 04CA                      l3738 04A7                      l3690 03D6  
                    l3682 03B3                      l3674 0390                      l3666 036D  
                    l3658 034A                      l3594 0232                      l3586 0210  
                    l3578 01ED                      l3498 008F                      l2970 0D6D  
                    l2962 16CE                      l2954 16C0                      l2946 16B3  
                    l2938 168E                      l2890 15CE                      l2882 15AC  
                    l2874 098D                      l2866 0969                      l2858 092F  
                    l2794 1EC3                      l2786 1493                      l2778 1480  
                    l2698 0832                      l3940 12EF                      l3932 12CD  
                    l3924 12AB                      l3916 1289                      l3908 1E11  
                    l3860 06BC                      l3852 0699                      l3844 0676  
                    l3836 0653                      l3828 0630                      l3780 055F  
                    l3772 053C                      l3764 0519                      l3756 04F6  
                    l3748 04D3                      l3692 03DF                      l3684 03BC  
                    l3676 0399                      l3668 0376                      l3596 023B  
                    l3588 0219                      l2980 0DA4                      l2972 0D7A  
                    l2964 16D3                      l2956 16C4                      l2948 16B5  
                    l2892 15D2                      l2884 15B1                      l2876 098E  
                    l2868 0971                      l2796 1EC4                      l2788 1496  
                    l3950 120F                      l3942 12FB                      l3934 12D9  
                    l3926 12B7                      l3918 1295                      l3862 06C4  
                    l3854 06A1                      l3846 067E                      l3838 065B  
                    l3790 058A                      l3782 0567                      l3774 0544  
                    l3766 0521                      l3758 04FE                      l3694 03E7  
                    l3686 03C4                      l3678 03A1                      l3598 0243  
                    l3870 071E                      l2990 0DD2                      l2982 0DA8  
                    l2974 0D7E                      l2966 0D5C                      l2958 16C8  
                    l2894 15E7                      l2886 15BD                      l2878 098F  
                    l2798 1ECA                      l3960 1236                      l3952 1214  
                    l3944 11FA                      l3936 12DE                      l3928 12BC  
                    l3872 0724                      l3864 06CD                      l3856 06AA  
                    l3848 0687                      l3792 0593                      l3784 0570  
                    l3776 054D                      l3768 052A                      l3696 03F0  
                    l3688 03CD                      l2992 0DD6                      l2984 0DAC  
                    l2976 0D82                      l2968 0D61                      l2896 15F4  
                    l2888 15CA                      l3970 1264                      l3962 1242  
                    l3954 1220                      l3946 11FE                      l3938 12EA  
                    l3874 072C                      l3866 06D6                      l3858 06B3  
                    l3794 059C                      l3786 0579                      l3778 0556  
                    l3698 03F9                      l2994 0DEB                      l2986 0DC1  
                    l2978 0D97                      l2898 15F8                      l3980 117D  
                    l3972 1269                      l3964 1247                      l3956 1225  
                    l3948 1203                      l3876 0734                      l3868 06DF  
                    l3796 05A5                      l3788 0582                      l2996 0DF8  
                    l2988 0DCE                      l3990 11AB                      l3982 1189  
                    l3974 1275                      l3966 1253                      l3958 1231  
                    l3878 073C                      l3798 05AD                      l2998 0DFC  
                    l3992 11B0                      l3984 118E                      l3976 1174  
                    l3968 1258                      l3994 11BC                      l3986 119A  
                    l3978 1178                      l3996 11C1                      l3988 119F  
                    ?_isr 0070                      l3998 11CD                      STR_1 1026  
                    STR_2 1006                      STR_3 10B9                      STR_4 1078  
                    STR_5 10A9                      STR_6 10D3                      STR_7 1089  
                    STR_8 1099                      STR_9 1045                      u4000 0C11  
                    u4001 0C10                      u4010 0C17                      u4011 0C16  
                    u4100 0C81                      u4020 0C1D                      u4101 0C80  
                    u4021 0C1C                      u4110 0C87                      u4030 0C23  
                    u4111 0C86                      u4031 0C22                      u5000 0184  
                    u4200 0CF1                      u4120 0C8D                      u4040 0C3B  
                    u5001 0183                      u4201 0CF0                      u4121 0C8C  
                    u4041 0C3A                      u5010 018D                      u4210 0CF7  
                    u4130 0C93                      u4050 0C49                      u5011 018C  
                    u4211 0CF6                      u4131 0C92                      u4051 0C48  
                    u5100 01F6                      u5020 019E                      u4300 130A  
                    u4220 0CFD                      u4140 0CAB                      u4060 0C4F  
                    u3500 1F55                      u3420 09F7                      u5101 01F5  
                    u5021 019D                      u4301 1309                      u4221 0CFC  
                    u4141 0CAA                      u4061 0C4E                      u3421 09F6  
                    u5110 0207                      u5030 01A7                      u4310 1310  
                    u4230 0D03                      u4150 0CB9                      u4070 0C55  
                    u3510 1F61                      u3430 0A13                      u5111 0206  
                    u5031 01A6                      u4311 130F                      u4231 0D02  
                    u4151 0CB8                      u4071 0C54                      u3511 1F60  
                    u3431 0A12                      u3520 1F6E                      u6000 060D  
                    u5200 026F                      u5120 0210                      u5040 01B0  
                    u4400 136C                      u4320 131A                      u4240 0D1B  
                    u4160 0CBF                      u4080 0C5B                      u3600 08DD  
                    u3440 0A99                      u3521 1F6D                      u6001 060C  
                    u5201 026E                      u5121 020F                      u5041 01AF  
                    u4401 136B                      u4321 1319                      u4241 0D1A  
                    u4161 0CBE                      u4081 0C5A                      u3601 08DC  
                    u3441 0A98                      u3425 09F3                      u3530 1F8C  
                    u6010 061E                      u5210 0278                      u5130 0219  
                    u5050 01C1                      u4410 1372                      u4330 1324  
                    u4250 0D29                      u4170 0CC5                      u4090 0C73  
                    u3610 08E3                      u3450 0AD4                      u6011 061D  
                    u5211 0277                      u5131 0218                      u5051 01C0  
                    u4411 1371                      u4331 1323                      u4251 0D28  
                    u4171 0CC4                      u4091 0C72                      u3611 08E2  
                    u3451 0AD3                      u3435 0A0F                      u3540 1F94  
                    u6100 0687                      u6020 0627                      u5300 02E1  
                    u5220 0281                      u5140 0229                      u5060 01CA  
                    u4500 14B7                      u4420 137C                      u4340 132E  
                    u4260 0D2F                      u4180 0CCB                      u3700 0987  
                    u3620 08EC                      u3460 0ADB                      u3541 1F93  
                    u6101 0686                      u6021 0626                      u5301 02E0  
                    u5221 0280                      u5141 0228                      u5061 01C9  
                    u4501 14B6                      u4421 137B                      u4341 132D  
                    u4261 0D2E                      u4181 0CCA                      u3701 0986  
                    u3621 08EB                      u3461 0ADA                      u6110 0690  
                    u6030 0630                      u5310 02EA                      u5230 0292  
                    u5150 0232                      u5070 01D3                      u4510 14DF  
                    u4430 1386                      u4350 1338                      u4270 0D35  
                    u4190 0CE3                      u3710 1FA0                      u3630 08F2  
                    u3550 0851                      u3470 0B06                      u3535 1F7F  
                    u6111 068F                      u6031 062F                      u5311 02E9  
                    u5231 0291                      u5151 0231                      u5071 01D2  
                    u4511 14DE                      u4431 1385                      u4351 1337  
                    u4271 0D34                      u4191 0CE2                      u3711 1F9C  
                    u3631 08F1                      u3551 0850                      u3471 0B05  
                    u3536 1F80                      u6120 0699                      u6040 0641  
                    u5400 0353                      u5320 02FB                      u5240 029B  
                    u5160 023B                      u5080 01E4                      u4600 154A  
                    u4520 14E8                      u4440 1390                      u4360 1342  
                    u4280 0D3B                      u3800 079A                      u3720 1FAA  
                    u3640 0908                      u3560 087C                      u3480 0B5C  
                    u3537 1F85                      u6121 0698                      u6041 0640  
                    u5401 0352                      u5321 02FA                      u5241 029A  
                    u5161 023A                      u5081 01E3                      u4601 1549  
                    u4521 14E7                      u4505 14B3                      u4441 138F  
                    u4361 1341                      u4281 0D3A                      u3801 0799  
                    u3721 1FA6                      u3641 0907                      u3561 087B  
                    u3481 0B5B                      u3538 1F86                      u6130 06AA  
                    u6050 064A                      u5410 0364                      u5330 0304  
                    u5250 02A4                      u5170 024C                      u5090 01ED  
                    u4610 1553                      u4530 14F1                      u4450 139A  
                    u4370 134C                      u4290 0D53                      u3810 07CB  
                    u3650 091A                      u3570 08A3                      u3490 10E7  
                    u3539 1F8B                      u6131 06A9                      u6051 0649  
                    u5411 0363                      u5331 0303                      u5251 02A3  
                    u5171 024B                      u5091 01EC                      u4611 1552  
                    u4531 14F0                      u4451 1399                      u4371 134B  
                    u4291 0D52                      u3811 07CA                      u3651 0919  
                    u3571 08A2                      u3555 084D                      u3491 10E6  
                    _PEIE 005E                      u6300 1284                      u6140 06B3  
                    u6060 0653                      u5500 03CD                      u5420 036D  
                    u5340 030D                      u5260 02B5                      u5180 0255  
                    u4700 0027                      u4620 155C                      u4540 1504  
                    u4460 13A4                      u4380 1356                      u3900 0BA1  
                    u3820 07E1                      u3740 1FB9                      u3724 1FA3  
                    u3660 092D                      u3580 08C3                      u6301 1283  
                    u6141 06B2                      u6061 0652                      u5501 03CC  
                    u5421 036C                      u5341 030C                      u5261 02B4  
                    u5181 0254                      u4701 0026                      u4621 155B  
                    u4541 1503                      u4461 13A3                      u4381 1355  
                    u3901 0BA0                      u3821 07E0                      u3805 0796  
                    u3741 1FB5                      u3661 092C                      u3645 0904  
                    u3581 08C2                      u6150 06BC                      u6070 0664  
                    u5510 03D6                      u5430 0376                      u5350 031E  
                    u5270 02BE                      u5190 025E                      u4710 0030  
                    u4630 156D                      u4550 150D                      u4470 13AE  
                    u4390 1360                      u3910 0BA7                      u3830 1E21  
                    u3750 1FC3                      u3734 1FAD                      u3670 094D  
                    u3590 08D1                      u6151 06BB                      u6071 0663  
                    u5511 03D5                      u5431 0375                      u5351 031D  
                    u5271 02BD                      u5191 025D                      u4711 002F  
                    u4631 156C                      u4551 150C                      u4471 13AD  
                    u4391 135F                      u3911 0BA6                      u3815 07C7  
                    u3751 1FBF                      u3671 094C                      u3655 0916  
                    u3591 08D0                      u6400 12D9                      u6320 1295  
                    u6160 06CD                      u6080 066D                      u5600 043E  
                    u5520 03DF                      u5440 0387                      u5360 0327  
                    u5280 02C7                      u4800 0098                      u4720 0040  
                    u4640 1576                      u4560 1516                      u4480 13B8  
                    u3920 0BAD                      u3840 1E32                      u3680 0968  
                    u6401 12D8                      u6321 1294                      u6161 06CC  
                    u6081 066C                      u5601 043D                      u5521 03DE  
                    u5441 0386                      u5361 0326                      u5281 02C6  
                    u4801 0097                      u4721 003F                      u4641 1575  
                    u4561 1515                      u4481 13B7                      u3921 0BAC  
                    u3841 1E31                      u3825 07DD                      u3681 0967  
                    u3665 0929                      u6170 06D6                      u6090 0676  
                    u5610 0447                      u5530 03F0                      u5450 0390  
                    u5370 0330                      u5290 02D8                      u4810 00A9  
                    u4730 0049                      u4650 157F                      u4570 1527  
                    u4490 13C2                      u3930 0BB3                      u3850 0B69  
                    u3770 0756                      u3754 1FBC                      u3690 097E  
                    u6315 128C                      u6171 06D5                      u6091 0675  
                    u5611 0446                      u5531 03EF                      u5451 038F  
                    u5371 032F                      u5291 02D7                      u4811 00A8  
                    u4731 0048                      u4651 157E                      u4571 1526  
                    u4491 13C1                      u3931 0BB2                      u3851 0B68  
                    u3771 0755                      u3691 097D                      u6420 12EA  
                    u6340 12A6                      u6180 06DF                      u5700 04B0  
                    u5620 0458                      u5540 03F9                      u5460 0399  
                    u5380 0341                      u4900 0112                      u4820 00B2  
                    u4740 0052                      u4660 1592                      u4580 1530  
                    u3940 0BCB                      u3860 0B6F                      u3780 0777  
                    u3764 1FC6                      u6421 12E9                      u6341 12A5  
                    u6181 06DE                      u5701 04AF                      u5621 0457  
                    u5541 03F8                      u5461 0398                      u5381 0340  
                    u4901 0111                      u4821 00B1                      u4741 0051  
                    u4661 158F                      u4581 152F                      u3941 0BCA  
                    u3861 0B6E                      u3781 0776                      u3685 0964  
                    u6510 1231                      u6190 074B                      u5710 04C1  
                    u5630 0461                      u5550 0402                      u5470 03AA  
                    u5390 034A                      u4910 011B                      u4830 00BB  
                    u4750 0063                      u4670 159B                      u4590 1539  
                    u3950 0BD9                      u3870 0B75                      u3790 0787  
                    u6511 1230                      u6415 12E1                      u6335 129D  
                    u6191 0748                      u5711 04C0                      u5631 0460  
                    u5551 0401                      u5471 03A9                      u5391 0349  
                    u4911 011A                      u4831 00BA                      u4751 0062  
                    u4671 159A                      u4591 1538                      u3951 0BD8  
                    u3871 0B74                      u3791 0786                      u3695 097A  
                    u6600 1178                      u6440 12FB                      u6360 12B7  
                    u5800 052A                      u5720 04CA                      u5640 046A  
                    u5560 0412                      u5480 03B3                      u4920 0124  
                    u4840 00CC                      u4760 006C                      u4680 15A4  
                    u3960 0BDF                      u3880 0B7B                      u6601 1177  
                    u6505 1228                      u6441 12FA                      u6361 12B6  
                    u5801 0529                      u5721 04C9                      u5641 0469  
                    u5561 0411                      u5481 03B2                      u4921 0123  
                    u4841 00CB                      u4761 006B                      u4681 15A3  
                    u3961 0BDE                      u3881 0B7A           __end_of_PIEZO_D 1000  
                    u6530 1242                      u6450 11FE                      u5810 0533  
                    u5730 04D3                      u5650 047B                      u5570 041B  
                    u5490 03BC                      u4930 0135                      u4850 00D5  
                    u4770 0075                      u4690 001E                      u3970 0BE5  
                    u3890 0B93                      u6531 1241                      u6451 11FD  
                    u6435 12F2                      u6355 12AE                      u6195 0745  
                    u5811 0532                      u5731 04D2                      u5651 047A  
                    u5571 041A                      u5491 03BB                      u4931 0134  
                    u4851 00D4                      u4771 0074                      u4691 001D  
                    u3971 0BE4                      u3891 0B92                      u3795 0783  
                    u6700 11CD                      u6620 1189                      u6380 12C8  
                    u5900 059C                      u5820 053C                      u5740 04E4  
                    u5660 0484                      u5580 0424                      u4940 013E  
                    u4860 00DE                      u4780 0086                      u3980 0BEB  
                    u6701 11CC                      u6621 1188                      u6525 1239  
                    u6381 12C7                      u5901 059B                      u5821 053B  
                    u5741 04E3                      u5661 0483                      u5581 0423  
                    u4941 013D                      u4861 00DD                      u4781 0085  
                    u3981 0BEA                      u6550 1253                      u6470 120F  
                    u5910 05A5                      u5830 054D                      u5750 04ED  
                    u5670 048D                      u5590 0435                      u4950 0147  
                    u4870 00EF                      u4790 008F                      u3990 0C03  
                    u6615 1180                      u6551 1252                      u6471 120E  
                    u6375 12BF                      u5911 05A4                      u5831 054C  
                    u5751 04EC                      u5671 048C                      u5591 0434  
                    u4951 0146                      u4871 00EE                      u4791 008E  
                    u3991 0C02                      u6720 11DE                      u6640 119A  
                    u5920 05B6                      u5840 0556                      u5760 04F6  
                    u5680 049E                      u4960 0158                      u4880 00F8  
                    u6721 11DD                      u6641 1199                      u6545 124A  
                    u6465 1206                      u5921 05B5                      u5841 0555  
                    u5761 04F5                      u5681 049D                      u4961 0157  
                    u4881 00F7                      u6570 1264                      u6490 1220  
                    u5930 05BF                      u5850 055F                      u5770 0507  
                    u5690 04A7                      u4970 0161                      u4890 0101  
                    u6715 11D5                      u6635 1191                      u6571 1263  
                    u6491 121F                      u6395 12D0                      u5931 05BE  
                    u5851 055E                      u5771 0506                      u5691 04A6  
                    u4971 0160                      u4891 0100                      u6740 11EF  
                    u6660 11AB                      u5940 05C8                      u5860 0570  
                    u5780 0510                      u4980 016A                      u6741 11EE  
                    u6661 11AA                      u6565 125B                      u6485 1217  
                    u5941 05C7                      u5861 056F                      u5781 050F  
                    u4981 0169                      u6750 1EB1                      u6590 1275  
                    u5950 05D9                      u5870 0579                      u5790 0519  
                    u4990 017B                      u6751 1EB0                      u6735 11E6  
                    u6655 11A2                      u6591 1274                      u5951 05D8  
                    u5871 0578                      u5791 0518                      u4991 017A  
                    u6760 1EBF                      u6680 11BC                      u5960 05E2  
                    u5880 0582           __end_of_PIEZO_S 14A0                      u6761 1EBE  
                    u6681 11BB                      u6585 126C                      u5961 05E1  
                    u5881 0581                      u5970 05EB                      u5890 0593  
                    u6675 11B3                      u5971 05EA                      u5891 0592  
                    u5980 05FB                      u5981 05FA                      u5990 0604  
                    u6695 11C4                      u5991 0603                      _TMR2 0011  
                    _Init 0803                      _data 004E                      _flag 004F  
                    _draw 1F96                      _main 0997                      btemp 007E  
         __end_of_CapInit 07FF              lcd_goto@data 005C                      start 0012  
       ___bmul@multiplier 0055                _GetReading 16D5                     ??_isr 0078  
     __end_of_DisplayLEDs 074D            ??_led_display1 0052            ??_led_display2 0052  
          ??_led_display3 0052                     ?_Init 0070                     ?_draw 0070  
                   ?_main 0070                     STR_10 1056                     STR_11 1045  
                   STR_12 1067                     STR_13 1045                     STR_14 10C8  
                   _T1CON 0010                     _T2CON 0012                     i1l212 1EE7  
                   i1l213 1EDE                     i1l214 1EEE                     i1l215 1EEE  
                   i1l350 1757                     i1l351 175B                     i1l360 17AC  
                   i1l352 175F                     i1l361 1798                     i1l353 1763  
                   i1l362 17C9                     i1l370 17A8                     i1l346 1797  
                   i1l354 1767                     i1l371 17AA                     i1l363 179A  
                   i1l347 1779                     i1l355 176B                     i1l380 1117  
                   i1l372 17FF                     i1l364 179C                     i1l356 176F  
                   i1l348 1753                     i1l381 1122                     i1l365 179E  
                   i1l349 1796                     i1l357 1773                     i1l382 112D  
                   i1l366 17A0                     i1l358 1777                     i1l375 1E0A  
                   i1l383 1138                     i1l359 17F5                     i1l367 17A2  
                   i1l384 1143                     i1l368 17A4                     i1l385 114E  
                   i1l369 17A6                     i1l386 1159                     i1l378 110D  
                   i1l387 1164                     i1l379 110E                     i1l388 1170  
                   i1l389 1170                     _PIEZO 15AC                     _TMR1H 000F  
                   _TMR1L 000E                     _PORTB 0006                     _PORTE 0009  
                   _TRISA 0085                     _TRISB 0086                     _TRISC 0087  
                   _TRISD 0088                     _TRISE 0089                     _Flags 004D  
         __end_of_e_pulse 1F3A           __end_of_lcd_clr 1E60           __end_of_led_off 1F19  
                   _delay 1F64                     _index 0050                     main@i 0065  
                   _store 1303                     pclath 000A      __size_of_checkstatus 01FB  
                   status 0003                     wtemp0 007E           __end_of_winlose 0997  
            __end_of_Init 083E              __end_of_draw 2000              __end_of_main 0B61  
                  ??_Init 0063                    ??_draw 005A                    ??_main 0064  
                  ?_PIEZO 0070                 ??_PIEZO_D 005A                 ??_PIEZO_S 005A  
   __end_of_RestartTimer1 1E14                    ?_delay 0052              ?_send_config 0070  
                  _CCPR1L 0015                    _ANSELA 0185                    _ANSELB 0186  
                  _ANSELD 0188                    _ANSELE 0189                 ??_CapInit 0056  
                  ?_store 0070                    _T1GCON 008F                    i1l4040 1E08  
                  i1l4042 1E09                    i1l4050 1713                    i1l4036 1E02  
                  i1l4060 1757                    i1l4052 1728                    i1l4044 16D5  
                  i1l4038 1E07                    i1l4070 176B                    i1l4062 175B  
                  i1l4054 172E                    i1l4046 16F3                    i1l4080 17AB  
                  i1l4072 176F                    i1l4064 175F                    i1l4056 1752  
                  i1l4048 16FE                    i1l4074 1773                    i1l4066 1763  
                  i1l4058 1753                    i1l4082 17AC                    i1l4090 1EDD  
                  i1l4084 17C9                    i1l4076 1778                    i1l4068 1767  
                  i1l4092 1EE1                    i1l4086 17F5                    i1l4078 1779  
                  i1l4094 1EE7                    i1l4088 17FA                    i1l3900 1160  
                  i1l3902 116B                    i1l3880 10FF                    i1l3890 1129  
                  i1l3882 110B                    i1l3892 1134                    i1l3884 110E  
                  i1l3894 113F                    i1l3886 1113                    i1l3896 114A  
                  i1l3888 111E                    i1l3898 1155              ?_send_string 0070  
                  u620_20 110B                    u620_21 110A                    u621_20 1113  
                  u621_21 1112                    u622_20 111E                    u622_21 111D  
                  u623_20 1129                    u623_21 1128                    u624_20 1134  
                  u624_21 1133                    u625_20 113F                    u625_21 113E  
                  u626_20 114A                    _OSCCON 0090                    u626_21 1149  
                  u627_20 1155                    u627_21 1154                    u628_20 1160  
                  u628_21 115F                    u629_20 116B                    u629_21 116A  
                  u680_20 1751                    u680_21 1750                    u680_25 174D  
                  u681_25 17D5                    u682_20 1EED                    u682_21 1EEC  
                  u677_25 16EA                    _TMR2IE 0461                    _TMR2IF 0061  
                  u678_25 1709                    u679_25 171E                    _TMR1ON 0080  
                  _TMR2ON 0092               _DisplayLEDs 14A0          __end_of_lcd_goto 10FF  
                  ___bmul 1EA9               ?_GetReading 0070                    _bigval 007C  
                  _matrix 003B                 ??_e_pulse 005A                    _result 0051  
               ??_lcd_clr 005B                    clrloop 1DFB                 ??_led_off 0054  
        ??_SetNextChannel 0070          __end_of_player_1 1E23          __end_of_player_2 1E34  
                  saved_w 007E                 ??_winlose 0056      __end_of_led_display1 1303  
    __end_of_led_display2 127D      __end_of_led_display3 11F7             __end_of_PIEZO 16D5  
     ___bmul@multiplicand 0052            __pcstackCOMMON 0070             __end_of_delay 1F96  
      __size_of_checkflag 001A             __end_of_store 13CA              winlose@i_277 0061  
            winlose@i_278 005D              winlose@j_279 005F                   ??_PIEZO 005A  
      __size_of_lcd_shift 0016                   ??_delay 0056                   ??_store 0052  
              __pbssBANK0 0020                __pbssBANK1 00A0       __size_of_GetReading 012B  
              __pmaintext 0997                   ?___bmul 0052                __pintentry 0004  
      __size_of_send_char 0019                   _CCP1CON 0017                   _CPSCON0 0108  
                 _CPSCON1 0109                   _PIEZO_D 0D5C                   _PIEZO_S 13CA  
                 _TMR1GIE 0467                   _TMR1GIF 0067                 ?_lcd_goto 0070  
                 _CapInit 074D         __end_of_checkflag 1EDD      __size_of_send_config 0019  
    __size_of_send_string 002A  __size_ofi1_RestartTimer1 0009                   _Buttons 0032  
               ?_player_1 0070                 ?_player_2 0070         __end_of_lcd_shift 1E4A  
         __size_of___bmul 001A                   _e_pulse 1F19                   _lcd_clr 1E4A  
                 _average 0020                   _led_off 1EF9              __size_of_isr 001C  
                 _reading 00A0                   _result1 0044     __size_of_led_display1 0086  
   __size_of_led_display2 0086     __size_of_led_display3 0086             ??_checkstatus 0057  
                 _winlose 083E                ??_lcd_goto 005B      end_of_initialization 1E73  
       __end_of_send_char 1E90                ??_player_1 0057                ??_player_2 0057  
            ?_DisplayLEDs 0070              ??_GetReading 0071             send_char@data 005A  
            _led_display1 127D              _led_display2 11F7              _led_display3 1171  
              _threshold4 004B        __end_of_GetReading 1800       __end_of_checkstatus 0D5C  
  __size_of_RestartTimer1 0009         ??i1_RestartTimer1 0070            __end_of___bmul 1EC3  
     start_initialization 1E60               __end_of_isr 1EF9             winlose@flag_w 005C  
                ??___bmul 0053             winlose@status 005A               __pbssCOMMON 007C  
           __pcstackBANK0 0052                  ?_PIEZO_D 0070                  ?_PIEZO_S 0070  
           _RestartTimer1 1E0B               _checkstatus 0B61                  ?_CapInit 0070  
 __size_of_SetNextChannel 0072         __size_of_lcd_goto 0021                 _checkflag 1EC3  
       __size_of_player_1 000F         __size_of_player_2 0011      __size_of_DisplayLEDs F2AD  
               __ptext660 1F3A                 __ptext661 1E34                 __ptext670 074D  
               __ptext662 1E90                 __ptext671 1E14                 __ptext663 13CA  
               __ptext680 1E77                 __ptext672 1E23                 __ptext664 1EC3  
               __ptext681 1F19                 __ptext673 0B61                 __ptext665 083E  
               __ptext657 0803                 __ptext682 1F64                 __ptext674 1303  
               __ptext666 15AC                 __ptext658 1E4A                 __ptext683 1EA9  
               __ptext675 14A0                 __ptext667 0D5C                 __ptext659 10DE  
               __ptext684 1EDD                 __ptext676 1E0B                 __ptext668 1F96  
               __ptext685 16D5                 __ptext677 127D                 __ptext669 1EF9  
               __ptext686 10FF                 __ptext678 11F7                 __ptext687 1E02  
               __ptext679 1171                 __ptext688 0000                  ?_e_pulse 0070  
               __pstrings 1000                 _lcd_shift 1E34                  ?_lcd_clr 0070  
                ?_led_off 0070            __size_of_PIEZO 0129            ?_RestartTimer1 0070  
                CapInit@i 005B                  CapInit@j 005D             ??_send_config 005A  
          __size_of_delay 0032                  ?_winlose 0070            __size_of_store 00C7  
               delay@data 0052             ??_send_string 005B         interrupt_function 0004  
              ?_checkflag 0070                 _send_char 1E77                 _threshold 0049  
              ?_lcd_shift 0070               __stringbase 1005          __size_of_PIEZO_D 02A4  
        __size_of_PIEZO_S 00D6          __size_of_CapInit 00B2           i1_RestartTimer1 1E02  
     __end_of_send_config 1EA9                ?_send_char 0070              send_string@s 005C  
     __end_of_send_string 1F64          __size_of_e_pulse 0021          __size_of_lcd_clr 0016  
        __size_of_led_off 0020           ??_RestartTimer1 0052                  _lcd_goto 10DE  
          _SetNextChannel 10FF          __size_of_winlose 0159             __size_of_Init 003B  
           __size_of_draw 006A             __size_of_main 01CA               ??_checkflag 0057  
                clear_ram 1DFA                  _player_1 1E14                  _player_2 1E23  
                _smallavg 0047               ??_lcd_shift 005B    __end_of_SetNextChannel 1171  
 __end_ofi1_RestartTimer1 1E0B               _send_config 1E90              ?_checkstatus 0070  
                intlevel1 0000               _send_string 1F3A              DisplayLEDs@k 0055  
             ??_send_char 005A                 stringcode 1000                  stringdir 1000  
                stringtab 1000           ?_SetNextChannel 0070        led_display1@value1 0053  
      led_display2@value2 0053        led_display3@value3 0053             ??_DisplayLEDs 0054  
