HI-TECH Software XC8 Compiler V1.00 ()

Linker command line:

--edf=C:\Program Files (x86)\Microchip\xc8\v1.00\dat\en_msgs.txt -cs \
  -h+dist/default/production\PR_28__TicTacToe_mTouch.X.production.sym -z \
  -Q16F727 -ol.obj \
  -Mdist/default/production/PR_28__TicTacToe_mTouch.X.production.map -E1 \
  -ver=XC8 -ACONST=00h-0FFhx32 -ACODE=00h-07FFhx4 -ASTRCODE=00h-01FFFh \
  -AENTRY=00h-0FFhx32 -ASTRING=00h-0FFhx32 -ACOMMON=070h-07Fh \
  -ABANK0=020h-06Fh -ABANK1=0A0h-0EFh -ABANK2=0110h-016Fh \
  -ABANK3=0190h-01EFh -ARAM=020h-06Fh,0A0h-0EFh,0110h-016Fh,0190h-01EFh \
  -AABS1=020h-07Fh,0A0h-0EFh,0110h-016Fh,0190h-01EFh -ASFR0=00h-01Fh \
  -ASFR1=080h-09Fh -ASFR2=0100h-010Fh -ASFR3=0180h-018Fh \
  -preset_vec=00h,intentry=04h,init,end_init -ppowerup=CODE -pfunctab=CODE \
  -ACONFIG=02007h-02008h -pconfig=CONFIG -DCONFIG=2 -AIDLOC=02000h-02003h \
  -pidloc=IDLOC -DIDLOC=2 -DCODE=2 -DSTRCODE=2 -DSTRING=2 -DCONST=2 \
  -DENTRY=2 -k C:\Users\HATAKE~1\AppData\Local\Temp\s1hjs.obj \
  dist/default/production\PR_28__TicTacToe_mTouch.X.production.obj 

Object code version is 3.10

Machine type is 16F727



                Name                               Link     Load   Length Selector   Space Scale
C:\Users\HATAKE~1\AppData\Local\Temp\s1hjs.obj
                end_init                             12       12        3        8       0
                reset_vec                             0        0        3        0       0
dist/default/production\PR_28__TicTacToe_mTouch.X.production.obj
                intentry                              4        4        E        8       0
                config                             2007     2007        1     400E       0
                text675_split_1                      15       15      738        8       0
                text687                            1E02     1E02        9     3C04       0
                text686                            10FF     10FF       72     21FE       0
                text685                            16D5     16D5      12B     2DAA       0
                text684                            1EDD     1EDD       1C     3DBA       0
                text683                            1EA9     1EA9       1A     3D52       0
                text682                            1F64     1F64       32     3EC8       0
                text681                            1F19     1F19       21     3E32       0
                text680                            1E77     1E77       19     3CEE       0
                text679                            1171     1171       86     22E2       0
                text678                            11F7     11F7       86     23EE       0
                text677                            127D     127D       86     24FA       0
                text676                            1E0B     1E0B        9     3C16       0
                text675                            14A0     14A0      10C     2940       0
                text674                            1303     1303       C7     2606       0
                text673                             B61      B61      1FB     16C2       0
                text672                            1E23     1E23       11     3C46       0
                text671                            1E14     1E14        F     3C28       0
                text670                             74D      74D       B2        8       0
                text669                            1EF9     1EF9       20     3DF2       0
                text668                            1F96     1F96       6A     3F2C       0
                text667                             D5C      D5C      2A4     1AB8       0
                text666                            15AC     15AC      129     2B58       0
                text665                             83E      83E      159     107C       0
                text664                            1EC3     1EC3       1A     3D86       0
                text663                            13CA     13CA       D6     2794       0
                text662                            1E90     1E90       19     3D20       0
                text661                            1E34     1E34       16     3C68       0
                text660                            1F3A     1F3A       2A     3E74       0
                text659                            10DE     10DE       21     21BC       0
                text658                            1E4A     1E4A       16     3C94       0
                text657                             803      803       3B     1006       0
                maintext                            997      997      1CA     132E       0
                cstackBANK0                          52       52       15       20       1
                cstackCOMMON                         70       70        C       70       1
                clrtext                            1DFA     1DFA        8     3BF4       0
                bssBANK1                             A0       A0       12       A0       1
                bssBANK0                             20       20       32       20       1
                bssCOMMON                            7C       7C        2       70       1
                cinit                              1E60     1E60       17     3CC0       0
                strings                            1000     1000       D9     2000       0

TOTAL           Name                               Link     Load   Length     Space
        CLASS   CONST          

        CLASS   CODE           
                end_init                             12       12        3         0
                intentry                              4        4        E         0
                reset_vec                             0        0        3         0
                text675_split_1                      15       15      738         0
                text687                            1E02     1E02        9         0
                text686                            10FF     10FF       72         0
                text685                            16D5     16D5      12B         0
                text684                            1EDD     1EDD       1C         0
                text683                            1EA9     1EA9       1A         0
                text682                            1F64     1F64       32         0
                text681                            1F19     1F19       21         0
                text680                            1E77     1E77       19         0
                text679                            1171     1171       86         0
                text678                            11F7     11F7       86         0
                text677                            127D     127D       86         0
                text676                            1E0B     1E0B        9         0
                text675                            14A0     14A0      10C         0
                text674                            1303     1303       C7         0
                text673                             B61      B61      1FB         0
                text672                            1E23     1E23       11         0
                text671                            1E14     1E14        F         0
                text670                             74D      74D       B2         0
                text669                            1EF9     1EF9       20         0
                text668                            1F96     1F96       6A         0
                text667                             D5C      D5C      2A4         0
                text666                            15AC     15AC      129         0
                text665                             83E      83E      159         0
                text664                            1EC3     1EC3       1A         0
                text663                            13CA     13CA       D6         0
                text662                            1E90     1E90       19         0
                text661                            1E34     1E34       16         0
                text660                            1F3A     1F3A       2A         0
                text659                            10DE     10DE       21         0
                text658                            1E4A     1E4A       16         0
                text657                             803      803       3B         0
                maintext                            997      997      1CA         0
                clrtext                            1DFA     1DFA        8         0
                cinit                              1E60     1E60       17         0

        CLASS   STRCODE        

        CLASS   ENTRY          

        CLASS   STRING         
                strings                            1000     1000       D9         0

        CLASS   COMMON         
                cstackCOMMON                         70       70        C         1
                bssCOMMON                            7C       7C        2         1

        CLASS   BANK0          
                cstackBANK0                          52       52       15         1
                bssBANK0                             20       20       32         1

        CLASS   BANK1          
                bssBANK1                             A0       A0       12         1

        CLASS   BANK2          

        CLASS   BANK3          

        CLASS   RAM            

        CLASS   ABS1           
                abs_s1                               7E       7E        2         1

        CLASS   SFR0           

        CLASS   SFR1           

        CLASS   SFR2           

        CLASS   SFR3           

        CLASS   CONFIG         
                config                             2007     2007        1         0

        CLASS   IDLOC          

        CLASS   EEDATA         



SEGMENTS        Name                           Load    Length   Top    Selector   Space  Class     Delta

                reset_vec                      000000  000003  000003         0       0  CODE        2
                intentry                       000004  0007FB  0007FF         8       0  CODE        2
                bssBANK0                       000020  000047  000067        20       1  BANK0       1
                cstackCOMMON                   000070  00000E  00007E        70       1  COMMON      1
                bssBANK1                       0000A0  000012  0000B2        A0       1  BANK1       1
                text657                        000803  00003B  00083E      1006       0  CODE        2
                text665                        00083E  000159  000997      107C       0  CODE        2
                maintext                       000997  0001CA  000B61      132E       0  CODE        2
                text673                        000B61  0001FB  000D5C      16C2       0  CODE        2
                text667                        000D5C  0002A4  001000      1AB8       0  CODE        2
                strings                        001000  0000D9  0010D9      2000       0  STRING      2
                text659                        0010DE  000021  0010FF      21BC       0  CODE        2
                text686                        0010FF  000072  001171      21FE       0  CODE        2
                text679                        001171  000086  0011F7      22E2       0  CODE        2
                text678                        0011F7  000086  00127D      23EE       0  CODE        2
                text677                        00127D  000086  001303      24FA       0  CODE        2
                text674                        001303  0000C7  0013CA      2606       0  CODE        2
                text663                        0013CA  0000D6  0014A0      2794       0  CODE        2
                text675                        0014A0  00010C  0015AC      2940       0  CODE        2
                text666                        0015AC  000129  0016D5      2B58       0  CODE        2
                text685                        0016D5  00012B  001800      2DAA       0  CODE        2
                clrtext                        001DFA  000008  001E02      3BF4       0  CODE        2
                text687                        001E02  000009  001E0B      3C04       0  CODE        2
                text676                        001E0B  000009  001E14      3C16       0  CODE        2
                text671                        001E14  00000F  001E23      3C28       0  CODE        2
                text672                        001E23  000011  001E34      3C46       0  CODE        2
                text661                        001E34  000016  001E4A      3C68       0  CODE        2
                text658                        001E4A  000016  001E60      3C94       0  CODE        2
                cinit                          001E60  000017  001E77      3CC0       0  CODE        2
                text680                        001E77  000019  001E90      3CEE       0  CODE        2
                text662                        001E90  000019  001EA9      3D20       0  CODE        2
                text683                        001EA9  00001A  001EC3      3D52       0  CODE        2
                text664                        001EC3  00001A  001EDD      3D86       0  CODE        2
                text684                        001EDD  00001C  001EF9      3DBA       0  CODE        2
                text669                        001EF9  000020  001F19      3DF2       0  CODE        2
                text681                        001F19  000021  001F3A      3E32       0  CODE        2
                text660                        001F3A  00002A  001F64      3E74       0  CODE        2
                text682                        001F64  000032  001F96      3EC8       0  CODE        2
                text668                        001F96  00006A  002000      3F2C       0  CODE        2
                config                         002007  000001  002008      400E       0  CONFIG      2


UNUSED ADDRESS RANGES

        Name                Unused          Largest block    Delta
        BANK0            0067-006F              9           1
        BANK1            00B2-00EF             3E           1
        BANK2            0110-016F             60           1
        BANK3            0190-01EF             60           1
        CODE             0003-0003              1           2
                         07FF-0802              1
                         10D9-10DD              5
                         1800-1DF9            5FA
        CONFIG           2008-2008              1           2
        CONST            0003-0003              1           2
                         07FF-0802              1
                         10D9-10DD              5
                         1800-1DF9            100
        ENTRY            0003-0003              1           2
                         07FF-0802              1
                         10D9-10DD              5
                         1800-1DF9            100
        IDLOC            2000-2003              4           2
        RAM              0067-006F              9           1
                         00B2-00EF             3E
                         0110-016F             60
                         0190-01EF             60
        SFR0             0000-001F             20           1
        SFR1             0080-009F             20           1
        SFR2             0100-010F             10           1
        SFR3             0180-018F             10           1
        STRCODE          0003-0003              1           2
                         07FF-0802              4
                         10D9-10DD              5
                         1800-1DF9            5FA
        STRING           0003-0003              1           2
                         07FF-0802              1
                         10D9-10DD              5
                         1800-1DF9            100

                                  Symbol Table

??_CapInit                cstackBANK0  0056
??_DisplayLEDs            cstackBANK0  0054
??_GetReading             cstackCOMMON 0071
??_Init                   cstackBANK0  0063
??_PIEZO                  cstackBANK0  005A
??_PIEZO_D                cstackBANK0  005A
??_PIEZO_S                cstackBANK0  005A
??_RestartTimer1          cstackBANK0  0052
??_SetNextChannel         cstackCOMMON 0070
??___bmul                 cstackBANK0  0053
??_checkflag              cstackBANK0  0057
??_checkstatus            cstackBANK0  0057
??_delay                  cstackBANK0  0056
??_draw                   cstackBANK0  005A
??_e_pulse                cstackBANK0  005A
??_isr                    cstackCOMMON 0078
??_lcd_clr                cstackBANK0  005B
??_lcd_goto               cstackBANK0  005B
??_lcd_shift              cstackBANK0  005B
??_led_display1           cstackBANK0  0052
??_led_display2           cstackBANK0  0052
??_led_display3           cstackBANK0  0052
??_led_off                cstackBANK0  0054
??_main                   cstackBANK0  0064
??_player_1               cstackBANK0  0057
??_player_2               cstackBANK0  0057
??_send_char              cstackBANK0  005A
??_send_config            cstackBANK0  005A
??_send_string            cstackBANK0  005B
??_store                  cstackBANK0  0052
??_winlose                cstackBANK0  0056
??i1_RestartTimer1        cstackCOMMON 0070
?_CapInit                 cstackCOMMON 0070
?_DisplayLEDs             cstackCOMMON 0070
?_GetReading              cstackCOMMON 0070
?_Init                    cstackCOMMON 0070
?_PIEZO                   cstackCOMMON 0070
?_PIEZO_D                 cstackCOMMON 0070
?_PIEZO_S                 cstackCOMMON 0070
?_RestartTimer1           cstackCOMMON 0070
?_SetNextChannel          cstackCOMMON 0070
?___bmul                  cstackBANK0  0052
?_checkflag               cstackCOMMON 0070
?_checkstatus             cstackCOMMON 0070
?_delay                   cstackBANK0  0052
?_draw                    cstackCOMMON 0070
?_e_pulse                 cstackCOMMON 0070
?_isr                     cstackCOMMON 0070
?_lcd_clr                 cstackCOMMON 0070
?_lcd_goto                cstackCOMMON 0070
?_lcd_shift               cstackCOMMON 0070
?_led_display1            cstackCOMMON 0070
?_led_display2            cstackCOMMON 0070
?_led_display3            cstackCOMMON 0070
?_led_off                 cstackCOMMON 0070
?_main                    cstackCOMMON 0070
?_player_1                cstackCOMMON 0070
?_player_2                cstackCOMMON 0070
?_send_char               cstackCOMMON 0070
?_send_config             cstackCOMMON 0070
?_send_string             cstackCOMMON 0070
?_store                   cstackCOMMON 0070
?_winlose                 cstackCOMMON 0070
?i1_RestartTimer1         cstackCOMMON 0070
CapInit@i                 cstackBANK0  005B
CapInit@j                 cstackBANK0  005D
DisplayLEDs@k             cstackBANK0  0055
_ANSELA                   (abs)        0185
_ANSELB                   (abs)        0186
_ANSELD                   (abs)        0188
_ANSELE                   (abs)        0189
_Buttons                  bssBANK0     0032
_CCP1CON                  (abs)        0017
_CCPR1L                   (abs)        0015
_CPSCON0                  (abs)        0108
_CPSCON1                  (abs)        0109
_CapInit                  text670      074D
_DisplayLEDs              text675      14A0
_Flags                    bssBANK0     004D
_GIE                      (abs)        005F
_GetReading               text685      16D5
_Init                     text657      0803
_OSCCON                   (abs)        0090
_PEIE                     (abs)        005E
_PIEZO                    text666      15AC
_PIEZO_D                  text667      0D5C
_PIEZO_S                  text663      13CA
_PORTB                    (abs)        0006
_PORTE                    (abs)        0009
_PR2                      (abs)        0092
_RA0                      (abs)        0028
_RA1                      (abs)        0029
_RA2                      (abs)        002A
_RA3                      (abs)        002B
_RA5                      (abs)        002D
_RA6                      (abs)        002E
_RA7                      (abs)        002F
_RC0                      (abs)        0038
_RC1                      (abs)        0039
_RC3                      (abs)        003B
_RC4                      (abs)        003C
_RC5                      (abs)        003D
_RC6                      (abs)        003E
_RC7                      (abs)        003F
_RE0                      (abs)        0048
_RE1                      (abs)        0049
_RE2                      (abs)        004A
_RestartTimer1            text676      1E0B
_SetNextChannel           text686      10FF
_T1CON                    (abs)        0010
_T1GCON                   (abs)        008F
_T2CON                    (abs)        0012
_TMR1GIE                  (abs)        0467
_TMR1GIF                  (abs)        0067
_TMR1H                    (abs)        000F
_TMR1L                    (abs)        000E
_TMR1ON                   (abs)        0080
_TMR2                     (abs)        0011
_TMR2IE                   (abs)        0461
_TMR2IF                   (abs)        0061
_TMR2ON                   (abs)        0092
_TRISA                    (abs)        0085
_TRISB                    (abs)        0086
_TRISC                    (abs)        0087
_TRISD                    (abs)        0088
_TRISE                    (abs)        0089
__Habs1                   abs1         0000
__Hbank0                  bank0        0000
__Hbank1                  bank1        0000
__Hbank2                  bank2        0000
__Hbank3                  bank3        0000
__HbssBANK0               bssBANK0     0000
__HbssBANK1               bssBANK1     0000
__HbssCOMMON              bssCOMMON    0000
__Hcinit                  cinit        0000
__Hclrtext                clrtext      0000
__Hcode                   code         0000
__Hcommon                 common       0000
__Hconfig                 config       2008
__HcstackBANK0            cstackBANK0  0000
__HcstackCOMMON           cstackCOMMON 0000
__Heeprom_data            eeprom_data  0000
__Hend_init               end_init     0015
__Hfunctab                functab      0000
__Hidloc                  idloc        0000
__Hinit                   init         0012
__Hintentry               intentry     0012
__Hmaintext               maintext     0000
__Hpowerup                powerup      0000
__Hram                    ram          0000
__Hreset_vec              reset_vec    0003
__Hsfr0                   sfr0         0000
__Hsfr1                   sfr1         0000
__Hsfr2                   sfr2         0000
__Hsfr3                   sfr3         0000
__Hstrings                strings      0000
__Htext                   text         0000
__Labs1                   abs1         0000
__Lbank0                  bank0        0000
__Lbank1                  bank1        0000
__Lbank2                  bank2        0000
__Lbank3                  bank3        0000
__LbssBANK0               bssBANK0     0000
__LbssBANK1               bssBANK1     0000
__LbssCOMMON              bssCOMMON    0000
__Lcinit                  cinit        0000
__Lclrtext                clrtext      0000
__Lcode                   code         0000
__Lcommon                 common       0000
__Lconfig                 config       2007
__LcstackBANK0            cstackBANK0  0000
__LcstackCOMMON           cstackCOMMON 0000
__Leeprom_data            eeprom_data  0000
__Lend_init               end_init     0012
__Lfunctab                functab      0000
__Lidloc                  idloc        0000
__Linit                   init         0012
__Lintentry               intentry     0004
__Lmaintext               maintext     0000
__Lpowerup                powerup      0000
__Lram                    ram          0000
__Lreset_vec              reset_vec    0000
__Lsfr0                   sfr0         0000
__Lsfr1                   sfr1         0000
__Lsfr2                   sfr2         0000
__Lsfr3                   sfr3         0000
__Lstrings                strings      0000
__Ltext                   text         0000
__S0                      (abs)        2008
__S1                      (abs)        00B2
___bmul                   text683      1EA9
___bmul@multiplicand      cstackBANK0  0052
___bmul@multiplier        cstackBANK0  0055
___bmul@product           cstackBANK0  0054
__end_of_CapInit          text670      07FF
__end_of_DisplayLEDs      text675_split_1 074D
__end_of_GetReading       text685      1800
__end_of_Init             text657      083E
__end_of_PIEZO            text666      16D5
__end_of_PIEZO_D          text667      1000
__end_of_PIEZO_S          text663      14A0
__end_of_RestartTimer1    text676      1E14
__end_of_SetNextChannel   text686      1171
__end_of___bmul           text683      1EC3
__end_of_checkflag        text664      1EDD
__end_of_checkstatus      text673      0D5C
__end_of_delay            text682      1F96
__end_of_draw             text668      2000
__end_of_e_pulse          text681      1F3A
__end_of_isr              text684      1EF9
__end_of_lcd_clr          text658      1E60
__end_of_lcd_goto         text659      10FF
__end_of_lcd_shift        text661      1E4A
__end_of_led_display1     text677      1303
__end_of_led_display2     text678      127D
__end_of_led_display3     text679      11F7
__end_of_led_off          text669      1F19
__end_of_main             maintext     0B61
__end_of_player_1         text671      1E23
__end_of_player_2         text672      1E34
__end_of_send_char        text680      1E90
__end_of_send_config      text662      1EA9
__end_of_send_string      text660      1F64
__end_of_store            text674      13CA
__end_of_winlose          text665      0997
__end_ofi1_RestartTimer1  text687      1E0B
__pbssBANK0               bssBANK0     0020
__pbssBANK1               bssBANK1     00A0
__pbssCOMMON              bssCOMMON    007C
__pcstackBANK0            cstackBANK0  0052
__pcstackCOMMON           cstackCOMMON 0070
__pintentry               intentry     0004
__pmaintext               maintext     0997
__pstrings                strings      1000
__ptext657                text657      0803
__ptext658                text658      1E4A
__ptext659                text659      10DE
__ptext660                text660      1F3A
__ptext661                text661      1E34
__ptext662                text662      1E90
__ptext663                text663      13CA
__ptext664                text664      1EC3
__ptext665                text665      083E
__ptext666                text666      15AC
__ptext667                text667      0D5C
__ptext668                text668      1F96
__ptext669                text669      1EF9
__ptext670                text670      074D
__ptext671                text671      1E14
__ptext672                text672      1E23
__ptext673                text673      0B61
__ptext674                text674      1303
__ptext675                text675      14A0
__ptext676                text676      1E0B
__ptext677                text677      127D
__ptext678                text678      11F7
__ptext679                text679      1171
__ptext680                text680      1E77
__ptext681                text681      1F19
__ptext682                text682      1F64
__ptext683                text683      1EA9
__ptext684                text684      1EDD
__ptext685                text685      16D5
__ptext686                text686      10FF
__ptext687                text687      1E02
__ptext688                text688      0000
__size_of_CapInit         (abs)        0000
__size_of_DisplayLEDs     (abs)        0000
__size_of_GetReading      (abs)        0000
__size_of_Init            (abs)        0000
__size_of_PIEZO           (abs)        0000
__size_of_PIEZO_D         (abs)        0000
__size_of_PIEZO_S         (abs)        0000
__size_of_RestartTimer1   (abs)        0000
__size_of_SetNextChannel  (abs)        0000
__size_of___bmul          (abs)        0000
__size_of_checkflag       (abs)        0000
__size_of_checkstatus     (abs)        0000
__size_of_delay           (abs)        0000
__size_of_draw            (abs)        0000
__size_of_e_pulse         (abs)        0000
__size_of_isr             (abs)        0000
__size_of_lcd_clr         (abs)        0000
__size_of_lcd_goto        (abs)        0000
__size_of_lcd_shift       (abs)        0000
__size_of_led_display1    (abs)        0000
__size_of_led_display2    (abs)        0000
__size_of_led_display3    (abs)        0000
__size_of_led_off         (abs)        0000
__size_of_main            (abs)        0000
__size_of_player_1        (abs)        0000
__size_of_player_2        (abs)        0000
__size_of_send_char       (abs)        0000
__size_of_send_config     (abs)        0000
__size_of_send_string     (abs)        0000
__size_of_store           (abs)        0000
__size_of_winlose         (abs)        0000
__size_ofi1_RestartTimer1 (abs)        0000
_average                  bssBANK0     0020
_bigval                   bssCOMMON    007C
_checkflag                text664      1EC3
_checkstatus              text673      0B61
_data                     bssBANK0     004E
_delay                    text682      1F64
_draw                     text668      1F96
_e_pulse                  text681      1F19
_flag                     bssBANK0     004F
_index                    bssBANK0     0050
_isr                      text684      1EDD
_lcd_clr                  text658      1E4A
_lcd_goto                 text659      10DE
_lcd_shift                text661      1E34
_led_display1             text677      127D
_led_display2             text678      11F7
_led_display3             text679      1171
_led_off                  text669      1EF9
_main                     maintext     0997
_matrix                   bssBANK0     003B
_player_1                 text671      1E14
_player_2                 text672      1E23
_reading                  bssBANK1     00A0
_result                   bssBANK0     0051
_result1                  bssBANK0     0044
_send_char                text680      1E77
_send_config              text662      1E90
_send_string              text660      1F3A
_smallavg                 bssBANK0     0047
_store                    text674      1303
_threshold                bssBANK0     0049
_threshold4               bssBANK0     004B
_winlose                  text665      083E
btemp                     (abs)        007E
clear_ram                 clrtext      1DFA
delay@data                cstackBANK0  0052
end_of_initialization     cinit        1E73
i1_RestartTimer1          text687      1E02
interrupt_function        intentry     0004
intlevel0                 functab      0000
intlevel1                 functab      0000
intlevel2                 functab      0000
intlevel3                 functab      0000
intlevel4                 functab      0000
intlevel5                 functab      0000
lcd_goto@data             cstackBANK0  005C
led_display1@value1       cstackBANK0  0053
led_display2@value2       cstackBANK0  0053
led_display3@value3       cstackBANK0  0053
main@i                    cstackBANK0  0065
reset_vec                 reset_vec    0000
saved_w                   (abs)        007E
send_char@data            cstackBANK0  005A
send_config@data          cstackBANK0  005A
send_string@s             cstackBANK0  005C
start                     init         0012
start_initialization      cinit        1E60
winlose@flag_w            cstackBANK0  005C
winlose@i_277             cstackBANK0  0061
winlose@i_278             cstackBANK0  005D
winlose@j_279             cstackBANK0  005F
winlose@status            cstackBANK0  005A
wtemp0                    (abs)        007E
